ARM GAS  C:\Users\dell\AppData\Local\Temp\ccAx8ClQ.s 			page 1


   1              		.syntax unified
   2              		.cpu cortex-m0plus
   3              		.fpu softvfp
   4              		.eabi_attribute 20, 1
   5              		.eabi_attribute 21, 1
   6              		.eabi_attribute 23, 3
   7              		.eabi_attribute 24, 1
   8              		.eabi_attribute 25, 1
   9              		.eabi_attribute 26, 1
  10              		.eabi_attribute 30, 1
  11              		.eabi_attribute 34, 0
  12              		.eabi_attribute 18, 4
  13              		.thumb
  14              		.syntax unified
  15              		.file	"CapSense_Structure.c"
  16              		.text
  17              	.Ltext0:
  18              		.cfi_sections	.debug_frame
  19              		.section	.text.DsParseParamId,"ax",%progbits
  20              		.align	2
  21              		.code	16
  22              		.thumb_func
  23              		.type	DsParseParamId, %function
  24              	DsParseParamId:
  25              	.LFB3:
  26              		.file 1 "Generated_Source\\PSoC4\\CapSense_Structure.c"
   1:Generated_Source\PSoC4/CapSense_Structure.c **** /***************************************************************************//**
   2:Generated_Source\PSoC4/CapSense_Structure.c **** * \file CapSense_Structure.c
   3:Generated_Source\PSoC4/CapSense_Structure.c **** * \version 5.0
   4:Generated_Source\PSoC4/CapSense_Structure.c **** *
   5:Generated_Source\PSoC4/CapSense_Structure.c **** * \brief
   6:Generated_Source\PSoC4/CapSense_Structure.c **** *   This file defines the data structure global variables and provides implementation
   7:Generated_Source\PSoC4/CapSense_Structure.c **** *   for the high-level and low-level APIs of the Data Structure module.
   8:Generated_Source\PSoC4/CapSense_Structure.c **** *
   9:Generated_Source\PSoC4/CapSense_Structure.c **** * \see CapSense v5.0 Datasheet
  10:Generated_Source\PSoC4/CapSense_Structure.c **** *
  11:Generated_Source\PSoC4/CapSense_Structure.c **** *//*****************************************************************************
  12:Generated_Source\PSoC4/CapSense_Structure.c **** * Copyright (2016-2017), Cypress Semiconductor Corporation.
  13:Generated_Source\PSoC4/CapSense_Structure.c **** ********************************************************************************
  14:Generated_Source\PSoC4/CapSense_Structure.c **** * This software is owned by Cypress Semiconductor Corporation (Cypress) and is
  15:Generated_Source\PSoC4/CapSense_Structure.c **** * protected by and subject to worldwide patent protection (United States and
  16:Generated_Source\PSoC4/CapSense_Structure.c **** * foreign), United States copyright laws and international treaty provisions.
  17:Generated_Source\PSoC4/CapSense_Structure.c **** * Cypress hereby grants to licensee a personal, non-exclusive, non-transferable
  18:Generated_Source\PSoC4/CapSense_Structure.c **** * license to copy, use, modify, create derivative works of, and compile the
  19:Generated_Source\PSoC4/CapSense_Structure.c **** * Cypress Source Code and derivative works for the sole purpose of creating
  20:Generated_Source\PSoC4/CapSense_Structure.c **** * custom software in support of licensee product to be used only in conjunction
  21:Generated_Source\PSoC4/CapSense_Structure.c **** * with a Cypress integrated circuit as specified in the applicable agreement.
  22:Generated_Source\PSoC4/CapSense_Structure.c **** * Any reproduction, modification, translation, compilation, or representation of
  23:Generated_Source\PSoC4/CapSense_Structure.c **** * this software except as specified above is prohibited without the express
  24:Generated_Source\PSoC4/CapSense_Structure.c **** * written permission of Cypress.
  25:Generated_Source\PSoC4/CapSense_Structure.c **** *
  26:Generated_Source\PSoC4/CapSense_Structure.c **** * Disclaimer: CYPRESS MAKES NO WARRANTY OF ANY KIND, EXPRESS OR IMPLIED, WITH
  27:Generated_Source\PSoC4/CapSense_Structure.c **** * REGARD TO THIS MATERIAL, INCLUDING, BUT NOT LIMITED TO, THE IMPLIED
  28:Generated_Source\PSoC4/CapSense_Structure.c **** * WARRANTIES OF MERCHANTABILITY AND FITNESS FOR A PARTICULAR PURPOSE.
  29:Generated_Source\PSoC4/CapSense_Structure.c **** * Cypress reserves the right to make changes without further notice to the
  30:Generated_Source\PSoC4/CapSense_Structure.c **** * materials described herein. Cypress does not assume any liability arising out
  31:Generated_Source\PSoC4/CapSense_Structure.c **** * of the application or use of any product or circuit described herein. Cypress
ARM GAS  C:\Users\dell\AppData\Local\Temp\ccAx8ClQ.s 			page 2


  32:Generated_Source\PSoC4/CapSense_Structure.c **** * does not authorize its products for use as critical components in life-support
  33:Generated_Source\PSoC4/CapSense_Structure.c **** * systems where a malfunction or failure may reasonably be expected to result in
  34:Generated_Source\PSoC4/CapSense_Structure.c **** * significant injury to the user. The inclusion of Cypress' product in a life-
  35:Generated_Source\PSoC4/CapSense_Structure.c **** * support systems application implies that the manufacturer assumes all risk of
  36:Generated_Source\PSoC4/CapSense_Structure.c **** * such use and in doing so indemnifies Cypress against all charges. Use may be
  37:Generated_Source\PSoC4/CapSense_Structure.c **** * limited by and subject to the applicable Cypress software license agreement.
  38:Generated_Source\PSoC4/CapSense_Structure.c **** *******************************************************************************/
  39:Generated_Source\PSoC4/CapSense_Structure.c **** 
  40:Generated_Source\PSoC4/CapSense_Structure.c **** #include <cytypes.h>
  41:Generated_Source\PSoC4/CapSense_Structure.c **** #include "CyLib.h"
  42:Generated_Source\PSoC4/CapSense_Structure.c **** #include "CapSense_Structure.h"
  43:Generated_Source\PSoC4/CapSense_Structure.c **** #include "CapSense_Configuration.h"
  44:Generated_Source\PSoC4/CapSense_Structure.c **** 
  45:Generated_Source\PSoC4/CapSense_Structure.c **** #if (0u != CapSense_ADC_EN)
  46:Generated_Source\PSoC4/CapSense_Structure.c ****     #include "CapSense_Adc.h"
  47:Generated_Source\PSoC4/CapSense_Structure.c **** #endif /* (0u != CapSense_ADC_EN) */
  48:Generated_Source\PSoC4/CapSense_Structure.c **** 
  49:Generated_Source\PSoC4/CapSense_Structure.c **** #if (CapSense_ENABLE == CapSense_SELF_TEST_EN)
  50:Generated_Source\PSoC4/CapSense_Structure.c ****     #include "CapSense_SelfTest.h"
  51:Generated_Source\PSoC4/CapSense_Structure.c **** #endif
  52:Generated_Source\PSoC4/CapSense_Structure.c **** 
  53:Generated_Source\PSoC4/CapSense_Structure.c **** #if (CapSense_ENABLE == CapSense_CENTROID_5X5_CSD_EN)
  54:Generated_Source\PSoC4/CapSense_Structure.c ****     #include "CapSense_AdvancedCentroid_LL.h"
  55:Generated_Source\PSoC4/CapSense_Structure.c **** #endif
  56:Generated_Source\PSoC4/CapSense_Structure.c **** 
  57:Generated_Source\PSoC4/CapSense_Structure.c **** #if (CapSense_ENABLE == CapSense_GES_GLOBAL_EN)
  58:Generated_Source\PSoC4/CapSense_Structure.c ****     #include "CapSense_Gesture.h"
  59:Generated_Source\PSoC4/CapSense_Structure.c **** #endif /* (CapSense_ENABLE == CapSense_GES_GLOBAL_EN) */
  60:Generated_Source\PSoC4/CapSense_Structure.c **** 
  61:Generated_Source\PSoC4/CapSense_Structure.c **** /*******************************************************************************
  62:Generated_Source\PSoC4/CapSense_Structure.c **** * Defines the RAM Data Structure variables and their init data in flash
  63:Generated_Source\PSoC4/CapSense_Structure.c **** *******************************************************************************/
  64:Generated_Source\PSoC4/CapSense_Structure.c **** /**
  65:Generated_Source\PSoC4/CapSense_Structure.c **** * \cond SECTION_GLOBAL_VARIABLES
  66:Generated_Source\PSoC4/CapSense_Structure.c **** * \addtogroup group_global_variables
  67:Generated_Source\PSoC4/CapSense_Structure.c **** * \{
  68:Generated_Source\PSoC4/CapSense_Structure.c **** */
  69:Generated_Source\PSoC4/CapSense_Structure.c **** 
  70:Generated_Source\PSoC4/CapSense_Structure.c **** /**
  71:Generated_Source\PSoC4/CapSense_Structure.c **** * The variable that contains the CapSense configuration, settings and
  72:Generated_Source\PSoC4/CapSense_Structure.c **** * scanning results. CapSense_dsRam represents RAM Data Structure.
  73:Generated_Source\PSoC4/CapSense_Structure.c **** */
  74:Generated_Source\PSoC4/CapSense_Structure.c **** CapSense_RAM_STRUCT CapSense_dsRam;
  75:Generated_Source\PSoC4/CapSense_Structure.c **** /** \}
  76:Generated_Source\PSoC4/CapSense_Structure.c **** * \endcond */
  77:Generated_Source\PSoC4/CapSense_Structure.c **** 
  78:Generated_Source\PSoC4/CapSense_Structure.c **** /*******************************************************************************
  79:Generated_Source\PSoC4/CapSense_Structure.c **** * Declares Widget's De-bounce Counters
  80:Generated_Source\PSoC4/CapSense_Structure.c **** *******************************************************************************/
  81:Generated_Source\PSoC4/CapSense_Structure.c **** static uint8 CapSense_debouncebtnRO[CapSense_BTNRO_NUM_SENSORS];
  82:Generated_Source\PSoC4/CapSense_Structure.c **** static uint8 CapSense_debouncebtnCOLD[CapSense_BTNCOLD_NUM_SENSORS];
  83:Generated_Source\PSoC4/CapSense_Structure.c **** static uint8 CapSense_debouncebtnHOT[CapSense_BTNHOT_NUM_SENSORS];
  84:Generated_Source\PSoC4/CapSense_Structure.c **** static uint8 CapSense_debouncebtnLOCK[CapSense_BTNLOCK_NUM_SENSORS];
  85:Generated_Source\PSoC4/CapSense_Structure.c **** 
  86:Generated_Source\PSoC4/CapSense_Structure.c **** 
  87:Generated_Source\PSoC4/CapSense_Structure.c **** /***************************************************************************//**
  88:Generated_Source\PSoC4/CapSense_Structure.c **** * Declares Filter History Objects
ARM GAS  C:\Users\dell\AppData\Local\Temp\ccAx8ClQ.s 			page 3


  89:Generated_Source\PSoC4/CapSense_Structure.c **** *******************************************************************************/
  90:Generated_Source\PSoC4/CapSense_Structure.c **** static CapSense_REGULAR_FLTR_STRUCT CapSense_fltrHistorybtnRO[CapSense_BTNRO_NUM_SENSORS];
  91:Generated_Source\PSoC4/CapSense_Structure.c **** static CapSense_REGULAR_FLTR_STRUCT CapSense_fltrHistorybtnCOLD[CapSense_BTNCOLD_NUM_SENSORS];
  92:Generated_Source\PSoC4/CapSense_Structure.c **** static CapSense_REGULAR_FLTR_STRUCT CapSense_fltrHistorybtnHOT[CapSense_BTNHOT_NUM_SENSORS];
  93:Generated_Source\PSoC4/CapSense_Structure.c **** static CapSense_REGULAR_FLTR_STRUCT CapSense_fltrHistorybtnLOCK[CapSense_BTNLOCK_NUM_SENSORS];
  94:Generated_Source\PSoC4/CapSense_Structure.c **** 
  95:Generated_Source\PSoC4/CapSense_Structure.c **** /*******************************************************************************
  96:Generated_Source\PSoC4/CapSense_Structure.c **** * Defines and initializes the Flash Data Structure
  97:Generated_Source\PSoC4/CapSense_Structure.c **** *******************************************************************************/
  98:Generated_Source\PSoC4/CapSense_Structure.c **** 
  99:Generated_Source\PSoC4/CapSense_Structure.c **** 
 100:Generated_Source\PSoC4/CapSense_Structure.c **** 
 101:Generated_Source\PSoC4/CapSense_Structure.c **** /**
 102:Generated_Source\PSoC4/CapSense_Structure.c **** * \cond SECTION_API_CONSTANTS
 103:Generated_Source\PSoC4/CapSense_Structure.c **** * \addtogroup group_api_constants
 104:Generated_Source\PSoC4/CapSense_Structure.c **** * \{
 105:Generated_Source\PSoC4/CapSense_Structure.c **** */
 106:Generated_Source\PSoC4/CapSense_Structure.c **** /**
 107:Generated_Source\PSoC4/CapSense_Structure.c **** * Constant for the FLASH Data Structure
 108:Generated_Source\PSoC4/CapSense_Structure.c **** */
 109:Generated_Source\PSoC4/CapSense_Structure.c **** const CapSense_FLASH_STRUCT CapSense_dsFlash =
 110:Generated_Source\PSoC4/CapSense_Structure.c **** {
 111:Generated_Source\PSoC4/CapSense_Structure.c ****     /* Flash Widget Initialization Data */
 112:Generated_Source\PSoC4/CapSense_Structure.c ****     {
 113:Generated_Source\PSoC4/CapSense_Structure.c ****         { /* btnRO */
 114:Generated_Source\PSoC4/CapSense_Structure.c ****             &CapSense_ioList[0u],
 115:Generated_Source\PSoC4/CapSense_Structure.c ****             (void *)&CapSense_dsRam.wdgtList.btnro,
 116:Generated_Source\PSoC4/CapSense_Structure.c ****             CapSense_dsRam.snsList.btnro,
 117:Generated_Source\PSoC4/CapSense_Structure.c ****             (void *)CapSense_fltrHistorybtnRO,
 118:Generated_Source\PSoC4/CapSense_Structure.c ****             CapSense_debouncebtnRO,
 119:Generated_Source\PSoC4/CapSense_Structure.c ****             CapSense_BTNRO_STATIC_CONFIG,
 120:Generated_Source\PSoC4/CapSense_Structure.c ****             CapSense_BTNRO_NUM_SENSORS,
 121:Generated_Source\PSoC4/CapSense_Structure.c ****             (uint8)CapSense_WD_BUTTON_E,
 122:Generated_Source\PSoC4/CapSense_Structure.c ****             CapSense_BTNRO_NUM_SENSORS,
 123:Generated_Source\PSoC4/CapSense_Structure.c ****         },
 124:Generated_Source\PSoC4/CapSense_Structure.c ****         { /* btnCOLD */
 125:Generated_Source\PSoC4/CapSense_Structure.c ****             &CapSense_ioList[1u],
 126:Generated_Source\PSoC4/CapSense_Structure.c ****             (void *)&CapSense_dsRam.wdgtList.btncold,
 127:Generated_Source\PSoC4/CapSense_Structure.c ****             CapSense_dsRam.snsList.btncold,
 128:Generated_Source\PSoC4/CapSense_Structure.c ****             (void *)CapSense_fltrHistorybtnCOLD,
 129:Generated_Source\PSoC4/CapSense_Structure.c ****             CapSense_debouncebtnCOLD,
 130:Generated_Source\PSoC4/CapSense_Structure.c ****             CapSense_BTNCOLD_STATIC_CONFIG,
 131:Generated_Source\PSoC4/CapSense_Structure.c ****             CapSense_BTNCOLD_NUM_SENSORS,
 132:Generated_Source\PSoC4/CapSense_Structure.c ****             (uint8)CapSense_WD_BUTTON_E,
 133:Generated_Source\PSoC4/CapSense_Structure.c ****             CapSense_BTNCOLD_NUM_SENSORS,
 134:Generated_Source\PSoC4/CapSense_Structure.c ****         },
 135:Generated_Source\PSoC4/CapSense_Structure.c ****         { /* btnHOT */
 136:Generated_Source\PSoC4/CapSense_Structure.c ****             &CapSense_ioList[2u],
 137:Generated_Source\PSoC4/CapSense_Structure.c ****             (void *)&CapSense_dsRam.wdgtList.btnhot,
 138:Generated_Source\PSoC4/CapSense_Structure.c ****             CapSense_dsRam.snsList.btnhot,
 139:Generated_Source\PSoC4/CapSense_Structure.c ****             (void *)CapSense_fltrHistorybtnHOT,
 140:Generated_Source\PSoC4/CapSense_Structure.c ****             CapSense_debouncebtnHOT,
 141:Generated_Source\PSoC4/CapSense_Structure.c ****             CapSense_BTNHOT_STATIC_CONFIG,
 142:Generated_Source\PSoC4/CapSense_Structure.c ****             CapSense_BTNHOT_NUM_SENSORS,
 143:Generated_Source\PSoC4/CapSense_Structure.c ****             (uint8)CapSense_WD_BUTTON_E,
 144:Generated_Source\PSoC4/CapSense_Structure.c ****             CapSense_BTNHOT_NUM_SENSORS,
 145:Generated_Source\PSoC4/CapSense_Structure.c ****         },
ARM GAS  C:\Users\dell\AppData\Local\Temp\ccAx8ClQ.s 			page 4


 146:Generated_Source\PSoC4/CapSense_Structure.c ****         { /* btnLOCK */
 147:Generated_Source\PSoC4/CapSense_Structure.c ****             &CapSense_ioList[3u],
 148:Generated_Source\PSoC4/CapSense_Structure.c ****             (void *)&CapSense_dsRam.wdgtList.btnlock,
 149:Generated_Source\PSoC4/CapSense_Structure.c ****             CapSense_dsRam.snsList.btnlock,
 150:Generated_Source\PSoC4/CapSense_Structure.c ****             (void *)CapSense_fltrHistorybtnLOCK,
 151:Generated_Source\PSoC4/CapSense_Structure.c ****             CapSense_debouncebtnLOCK,
 152:Generated_Source\PSoC4/CapSense_Structure.c ****             CapSense_BTNLOCK_STATIC_CONFIG,
 153:Generated_Source\PSoC4/CapSense_Structure.c ****             CapSense_BTNLOCK_NUM_SENSORS,
 154:Generated_Source\PSoC4/CapSense_Structure.c ****             (uint8)CapSense_WD_BUTTON_E,
 155:Generated_Source\PSoC4/CapSense_Structure.c ****             CapSense_BTNLOCK_NUM_SENSORS,
 156:Generated_Source\PSoC4/CapSense_Structure.c ****         },
 157:Generated_Source\PSoC4/CapSense_Structure.c ****     },
 158:Generated_Source\PSoC4/CapSense_Structure.c **** };
 159:Generated_Source\PSoC4/CapSense_Structure.c **** 
 160:Generated_Source\PSoC4/CapSense_Structure.c **** /**
 161:Generated_Source\PSoC4/CapSense_Structure.c **** * The array of the pointers to the electrode specific register.
 162:Generated_Source\PSoC4/CapSense_Structure.c **** */
 163:Generated_Source\PSoC4/CapSense_Structure.c **** const CapSense_FLASH_IO_STRUCT CapSense_ioList[CapSense_TOTAL_ELECTRODES] =
 164:Generated_Source\PSoC4/CapSense_Structure.c **** {
 165:Generated_Source\PSoC4/CapSense_Structure.c ****     { /* 0: btnRO_Sns0 */
 166:Generated_Source\PSoC4/CapSense_Structure.c ****         (reg32 *)CapSense_Sns__0__HSIOM,
 167:Generated_Source\PSoC4/CapSense_Structure.c ****         (reg32 *)CapSense_Sns__0__PC,
 168:Generated_Source\PSoC4/CapSense_Structure.c ****         (reg32 *)CapSense_Sns__0__DR,
 169:Generated_Source\PSoC4/CapSense_Structure.c ****         (reg32 *)CapSense_Sns__0__PS,
 170:Generated_Source\PSoC4/CapSense_Structure.c ****         CapSense_Sns__0__HSIOM_MASK,
 171:Generated_Source\PSoC4/CapSense_Structure.c ****         CapSense_Sns__0__MASK,
 172:Generated_Source\PSoC4/CapSense_Structure.c ****         CapSense_Sns__0__HSIOM_SHIFT,
 173:Generated_Source\PSoC4/CapSense_Structure.c ****         (uint8)CapSense_Sns__0__SHIFT,
 174:Generated_Source\PSoC4/CapSense_Structure.c ****         (uint8)CapSense_Sns__0__SHIFT * 3u,
 175:Generated_Source\PSoC4/CapSense_Structure.c ****     },
 176:Generated_Source\PSoC4/CapSense_Structure.c ****     { /* 1: btnCOLD_Sns0 */
 177:Generated_Source\PSoC4/CapSense_Structure.c ****         (reg32 *)CapSense_Sns__1__HSIOM,
 178:Generated_Source\PSoC4/CapSense_Structure.c ****         (reg32 *)CapSense_Sns__1__PC,
 179:Generated_Source\PSoC4/CapSense_Structure.c ****         (reg32 *)CapSense_Sns__1__DR,
 180:Generated_Source\PSoC4/CapSense_Structure.c ****         (reg32 *)CapSense_Sns__1__PS,
 181:Generated_Source\PSoC4/CapSense_Structure.c ****         CapSense_Sns__1__HSIOM_MASK,
 182:Generated_Source\PSoC4/CapSense_Structure.c ****         CapSense_Sns__1__MASK,
 183:Generated_Source\PSoC4/CapSense_Structure.c ****         CapSense_Sns__1__HSIOM_SHIFT,
 184:Generated_Source\PSoC4/CapSense_Structure.c ****         (uint8)CapSense_Sns__1__SHIFT,
 185:Generated_Source\PSoC4/CapSense_Structure.c ****         (uint8)CapSense_Sns__1__SHIFT * 3u,
 186:Generated_Source\PSoC4/CapSense_Structure.c ****     },
 187:Generated_Source\PSoC4/CapSense_Structure.c ****     { /* 2: btnHOT_Sns0 */
 188:Generated_Source\PSoC4/CapSense_Structure.c ****         (reg32 *)CapSense_Sns__2__HSIOM,
 189:Generated_Source\PSoC4/CapSense_Structure.c ****         (reg32 *)CapSense_Sns__2__PC,
 190:Generated_Source\PSoC4/CapSense_Structure.c ****         (reg32 *)CapSense_Sns__2__DR,
 191:Generated_Source\PSoC4/CapSense_Structure.c ****         (reg32 *)CapSense_Sns__2__PS,
 192:Generated_Source\PSoC4/CapSense_Structure.c ****         CapSense_Sns__2__HSIOM_MASK,
 193:Generated_Source\PSoC4/CapSense_Structure.c ****         CapSense_Sns__2__MASK,
 194:Generated_Source\PSoC4/CapSense_Structure.c ****         CapSense_Sns__2__HSIOM_SHIFT,
 195:Generated_Source\PSoC4/CapSense_Structure.c ****         (uint8)CapSense_Sns__2__SHIFT,
 196:Generated_Source\PSoC4/CapSense_Structure.c ****         (uint8)CapSense_Sns__2__SHIFT * 3u,
 197:Generated_Source\PSoC4/CapSense_Structure.c ****     },
 198:Generated_Source\PSoC4/CapSense_Structure.c ****     { /* 3: btnLOCK_Sns0 */
 199:Generated_Source\PSoC4/CapSense_Structure.c ****         (reg32 *)CapSense_Sns__3__HSIOM,
 200:Generated_Source\PSoC4/CapSense_Structure.c ****         (reg32 *)CapSense_Sns__3__PC,
 201:Generated_Source\PSoC4/CapSense_Structure.c ****         (reg32 *)CapSense_Sns__3__DR,
 202:Generated_Source\PSoC4/CapSense_Structure.c ****         (reg32 *)CapSense_Sns__3__PS,
ARM GAS  C:\Users\dell\AppData\Local\Temp\ccAx8ClQ.s 			page 5


 203:Generated_Source\PSoC4/CapSense_Structure.c ****         CapSense_Sns__3__HSIOM_MASK,
 204:Generated_Source\PSoC4/CapSense_Structure.c ****         CapSense_Sns__3__MASK,
 205:Generated_Source\PSoC4/CapSense_Structure.c ****         CapSense_Sns__3__HSIOM_SHIFT,
 206:Generated_Source\PSoC4/CapSense_Structure.c ****         (uint8)CapSense_Sns__3__SHIFT,
 207:Generated_Source\PSoC4/CapSense_Structure.c ****         (uint8)CapSense_Sns__3__SHIFT * 3u,
 208:Generated_Source\PSoC4/CapSense_Structure.c ****     },
 209:Generated_Source\PSoC4/CapSense_Structure.c **** };
 210:Generated_Source\PSoC4/CapSense_Structure.c **** 
 211:Generated_Source\PSoC4/CapSense_Structure.c **** 
 212:Generated_Source\PSoC4/CapSense_Structure.c **** /**
 213:Generated_Source\PSoC4/CapSense_Structure.c ****  *  The array of the pointers to the ADC input channels specific register.
 214:Generated_Source\PSoC4/CapSense_Structure.c ****  */
 215:Generated_Source\PSoC4/CapSense_Structure.c **** const CapSense_FLASH_IO_STRUCT CapSense_adcIoList[CapSense_ADC_TOTAL_CHANNELS] =
 216:Generated_Source\PSoC4/CapSense_Structure.c **** {
 217:Generated_Source\PSoC4/CapSense_Structure.c ****     {
 218:Generated_Source\PSoC4/CapSense_Structure.c ****         (reg32 *)CapSense_AdcInput__0__HSIOM,
 219:Generated_Source\PSoC4/CapSense_Structure.c ****         (reg32 *)CapSense_AdcInput__0__PC,
 220:Generated_Source\PSoC4/CapSense_Structure.c ****         (reg32 *)CapSense_AdcInput__0__DR,
 221:Generated_Source\PSoC4/CapSense_Structure.c ****         (reg32 *)CapSense_AdcInput__0__PS,
 222:Generated_Source\PSoC4/CapSense_Structure.c ****         CapSense_AdcInput__0__HSIOM_MASK,
 223:Generated_Source\PSoC4/CapSense_Structure.c ****         CapSense_AdcInput__0__MASK,
 224:Generated_Source\PSoC4/CapSense_Structure.c ****         CapSense_AdcInput__0__HSIOM_SHIFT,
 225:Generated_Source\PSoC4/CapSense_Structure.c ****         (uint8)CapSense_AdcInput__0__SHIFT,
 226:Generated_Source\PSoC4/CapSense_Structure.c ****         (uint8)CapSense_AdcInput__0__SHIFT * 3u,
 227:Generated_Source\PSoC4/CapSense_Structure.c ****     },
 228:Generated_Source\PSoC4/CapSense_Structure.c **** };
 229:Generated_Source\PSoC4/CapSense_Structure.c **** 
 230:Generated_Source\PSoC4/CapSense_Structure.c **** 
 231:Generated_Source\PSoC4/CapSense_Structure.c **** 
 232:Generated_Source\PSoC4/CapSense_Structure.c **** /** \}
 233:Generated_Source\PSoC4/CapSense_Structure.c **** * \endcond */
 234:Generated_Source\PSoC4/CapSense_Structure.c **** 
 235:Generated_Source\PSoC4/CapSense_Structure.c **** /* Initialization data for RAM widget list */
 236:Generated_Source\PSoC4/CapSense_Structure.c **** const CapSense_RAM_WD_LIST_STRUCT CapSense_ramWidgetInit =
 237:Generated_Source\PSoC4/CapSense_Structure.c **** {
 238:Generated_Source\PSoC4/CapSense_Structure.c ****     { /* btnRO */
 239:Generated_Source\PSoC4/CapSense_Structure.c ****         CapSense_BTNRO_RESOLUTION,
 240:Generated_Source\PSoC4/CapSense_Structure.c ****         CapSense_BTNRO_FINGER_TH,
 241:Generated_Source\PSoC4/CapSense_Structure.c ****         CapSense_BTNRO_NOISE_TH,
 242:Generated_Source\PSoC4/CapSense_Structure.c ****         CapSense_BTNRO_NNOISE_TH,
 243:Generated_Source\PSoC4/CapSense_Structure.c ****         CapSense_BTNRO_HYSTERESIS,
 244:Generated_Source\PSoC4/CapSense_Structure.c ****         CapSense_BTNRO_ON_DEBOUNCE,
 245:Generated_Source\PSoC4/CapSense_Structure.c ****         CapSense_BTNRO_LOW_BSLN_RST,
 246:Generated_Source\PSoC4/CapSense_Structure.c ****         {
 247:Generated_Source\PSoC4/CapSense_Structure.c ****             CapSense_BTNRO_IDAC_MOD0,
 248:Generated_Source\PSoC4/CapSense_Structure.c ****         },
 249:Generated_Source\PSoC4/CapSense_Structure.c ****         CapSense_BTNRO_SNS_CLK,
 250:Generated_Source\PSoC4/CapSense_Structure.c ****         CapSense_BTNRO_SNS_CLK_SOURCE,
 251:Generated_Source\PSoC4/CapSense_Structure.c ****     },
 252:Generated_Source\PSoC4/CapSense_Structure.c ****     { /* btnCOLD */
 253:Generated_Source\PSoC4/CapSense_Structure.c ****         CapSense_BTNCOLD_RESOLUTION,
 254:Generated_Source\PSoC4/CapSense_Structure.c ****         CapSense_BTNCOLD_FINGER_TH,
 255:Generated_Source\PSoC4/CapSense_Structure.c ****         CapSense_BTNCOLD_NOISE_TH,
 256:Generated_Source\PSoC4/CapSense_Structure.c ****         CapSense_BTNCOLD_NNOISE_TH,
 257:Generated_Source\PSoC4/CapSense_Structure.c ****         CapSense_BTNCOLD_HYSTERESIS,
 258:Generated_Source\PSoC4/CapSense_Structure.c ****         CapSense_BTNCOLD_ON_DEBOUNCE,
 259:Generated_Source\PSoC4/CapSense_Structure.c ****         CapSense_BTNCOLD_LOW_BSLN_RST,
ARM GAS  C:\Users\dell\AppData\Local\Temp\ccAx8ClQ.s 			page 6


 260:Generated_Source\PSoC4/CapSense_Structure.c ****         {
 261:Generated_Source\PSoC4/CapSense_Structure.c ****             CapSense_BTNCOLD_IDAC_MOD0,
 262:Generated_Source\PSoC4/CapSense_Structure.c ****         },
 263:Generated_Source\PSoC4/CapSense_Structure.c ****         CapSense_BTNCOLD_SNS_CLK,
 264:Generated_Source\PSoC4/CapSense_Structure.c ****         CapSense_BTNCOLD_SNS_CLK_SOURCE,
 265:Generated_Source\PSoC4/CapSense_Structure.c ****     },
 266:Generated_Source\PSoC4/CapSense_Structure.c ****     { /* btnHOT */
 267:Generated_Source\PSoC4/CapSense_Structure.c ****         CapSense_BTNHOT_RESOLUTION,
 268:Generated_Source\PSoC4/CapSense_Structure.c ****         CapSense_BTNHOT_FINGER_TH,
 269:Generated_Source\PSoC4/CapSense_Structure.c ****         CapSense_BTNHOT_NOISE_TH,
 270:Generated_Source\PSoC4/CapSense_Structure.c ****         CapSense_BTNHOT_NNOISE_TH,
 271:Generated_Source\PSoC4/CapSense_Structure.c ****         CapSense_BTNHOT_HYSTERESIS,
 272:Generated_Source\PSoC4/CapSense_Structure.c ****         CapSense_BTNHOT_ON_DEBOUNCE,
 273:Generated_Source\PSoC4/CapSense_Structure.c ****         CapSense_BTNHOT_LOW_BSLN_RST,
 274:Generated_Source\PSoC4/CapSense_Structure.c ****         {
 275:Generated_Source\PSoC4/CapSense_Structure.c ****             CapSense_BTNHOT_IDAC_MOD0,
 276:Generated_Source\PSoC4/CapSense_Structure.c ****         },
 277:Generated_Source\PSoC4/CapSense_Structure.c ****         CapSense_BTNHOT_SNS_CLK,
 278:Generated_Source\PSoC4/CapSense_Structure.c ****         CapSense_BTNHOT_SNS_CLK_SOURCE,
 279:Generated_Source\PSoC4/CapSense_Structure.c ****     },
 280:Generated_Source\PSoC4/CapSense_Structure.c ****     { /* btnLOCK */
 281:Generated_Source\PSoC4/CapSense_Structure.c ****         CapSense_BTNLOCK_RESOLUTION,
 282:Generated_Source\PSoC4/CapSense_Structure.c ****         CapSense_BTNLOCK_FINGER_TH,
 283:Generated_Source\PSoC4/CapSense_Structure.c ****         CapSense_BTNLOCK_NOISE_TH,
 284:Generated_Source\PSoC4/CapSense_Structure.c ****         CapSense_BTNLOCK_NNOISE_TH,
 285:Generated_Source\PSoC4/CapSense_Structure.c ****         CapSense_BTNLOCK_HYSTERESIS,
 286:Generated_Source\PSoC4/CapSense_Structure.c ****         CapSense_BTNLOCK_ON_DEBOUNCE,
 287:Generated_Source\PSoC4/CapSense_Structure.c ****         CapSense_BTNLOCK_LOW_BSLN_RST,
 288:Generated_Source\PSoC4/CapSense_Structure.c ****         {
 289:Generated_Source\PSoC4/CapSense_Structure.c ****             CapSense_BTNLOCK_IDAC_MOD0,
 290:Generated_Source\PSoC4/CapSense_Structure.c ****         },
 291:Generated_Source\PSoC4/CapSense_Structure.c ****         CapSense_BTNLOCK_SNS_CLK,
 292:Generated_Source\PSoC4/CapSense_Structure.c ****         CapSense_BTNLOCK_SNS_CLK_SOURCE,
 293:Generated_Source\PSoC4/CapSense_Structure.c ****     },
 294:Generated_Source\PSoC4/CapSense_Structure.c **** };
 295:Generated_Source\PSoC4/CapSense_Structure.c **** 
 296:Generated_Source\PSoC4/CapSense_Structure.c **** 
 297:Generated_Source\PSoC4/CapSense_Structure.c **** /* IDAC Initialization Data */
 298:Generated_Source\PSoC4/CapSense_Structure.c **** const uint8 CapSense_ramIdacInit[CapSense_TOTAL_SENSORS] =
 299:Generated_Source\PSoC4/CapSense_Structure.c **** {
 300:Generated_Source\PSoC4/CapSense_Structure.c ****     /* btnRO */
 301:Generated_Source\PSoC4/CapSense_Structure.c ****     CapSense_BTNRO_SNS0_IDAC_COMP0,
 302:Generated_Source\PSoC4/CapSense_Structure.c **** 
 303:Generated_Source\PSoC4/CapSense_Structure.c ****     /* btnCOLD */
 304:Generated_Source\PSoC4/CapSense_Structure.c ****     CapSense_BTNCOLD_SNS0_IDAC_COMP0,
 305:Generated_Source\PSoC4/CapSense_Structure.c **** 
 306:Generated_Source\PSoC4/CapSense_Structure.c ****     /* btnHOT */
 307:Generated_Source\PSoC4/CapSense_Structure.c ****     CapSense_BTNHOT_SNS0_IDAC_COMP0,
 308:Generated_Source\PSoC4/CapSense_Structure.c **** 
 309:Generated_Source\PSoC4/CapSense_Structure.c ****     /* btnLOCK */
 310:Generated_Source\PSoC4/CapSense_Structure.c ****     CapSense_BTNLOCK_SNS0_IDAC_COMP0,
 311:Generated_Source\PSoC4/CapSense_Structure.c **** };
 312:Generated_Source\PSoC4/CapSense_Structure.c **** 
 313:Generated_Source\PSoC4/CapSense_Structure.c **** 
 314:Generated_Source\PSoC4/CapSense_Structure.c **** 
 315:Generated_Source\PSoC4/CapSense_Structure.c **** /*******************************************************************************
 316:Generated_Source\PSoC4/CapSense_Structure.c **** * Defines internal data types and statements
ARM GAS  C:\Users\dell\AppData\Local\Temp\ccAx8ClQ.s 			page 7


 317:Generated_Source\PSoC4/CapSense_Structure.c **** *******************************************************************************/
 318:Generated_Source\PSoC4/CapSense_Structure.c **** #define PARAM_TYPE_OFFSET       (30u)
 319:Generated_Source\PSoC4/CapSense_Structure.c **** #define PARAM_TYPE_MASK         (3Lu << PARAM_TYPE_OFFSET)
 320:Generated_Source\PSoC4/CapSense_Structure.c **** #define PARAM_RWBIT_OFFSET      (29u)
 321:Generated_Source\PSoC4/CapSense_Structure.c **** #define PARAM_RWBIT_MASK        (1Lu << PARAM_RWBIT_OFFSET)
 322:Generated_Source\PSoC4/CapSense_Structure.c **** #define PARAM_FBIT_OFFSET       (28u)
 323:Generated_Source\PSoC4/CapSense_Structure.c **** #define PARAM_FBIT_MASK         (1Lu << PARAM_FBIT_OFFSET)
 324:Generated_Source\PSoC4/CapSense_Structure.c **** #define PARAM_UBIT_OFFSET       (23u)
 325:Generated_Source\PSoC4/CapSense_Structure.c **** #define PARAM_UBIT_MASK         (1Lu << PARAM_UBIT_OFFSET)
 326:Generated_Source\PSoC4/CapSense_Structure.c **** #define PARAM_WDID_OFFSET       (16u)
 327:Generated_Source\PSoC4/CapSense_Structure.c **** #define PARAM_WDID_MASK         (0x7FLu << PARAM_WDID_OFFSET)
 328:Generated_Source\PSoC4/CapSense_Structure.c **** #define PARAM_CRC_OFFSET        (24u)
 329:Generated_Source\PSoC4/CapSense_Structure.c **** #define PARAM_CRC_MASK          (0x0FLu << PARAM_CRC_OFFSET)
 330:Generated_Source\PSoC4/CapSense_Structure.c **** 
 331:Generated_Source\PSoC4/CapSense_Structure.c **** /* Defines align masks for uint16 and uint32 */
 332:Generated_Source\PSoC4/CapSense_Structure.c **** #define UINT16_ALIGN_MASK       (1Lu)
 333:Generated_Source\PSoC4/CapSense_Structure.c **** #define UINT32_ALIGN_MASK       (3Lu)
 334:Generated_Source\PSoC4/CapSense_Structure.c **** 
 335:Generated_Source\PSoC4/CapSense_Structure.c **** /* Defines supported parameter types */
 336:Generated_Source\PSoC4/CapSense_Structure.c **** #define DS_PARAM_TYPE_UINT8     (0x01u)
 337:Generated_Source\PSoC4/CapSense_Structure.c **** #define DS_PARAM_TYPE_UINT16    (0x02u)
 338:Generated_Source\PSoC4/CapSense_Structure.c **** #define DS_PARAM_TYPE_UINT32    (0x03u)
 339:Generated_Source\PSoC4/CapSense_Structure.c **** 
 340:Generated_Source\PSoC4/CapSense_Structure.c **** 
 341:Generated_Source\PSoC4/CapSense_Structure.c **** /* Defines PARAM_ID structure */
 342:Generated_Source\PSoC4/CapSense_Structure.c **** typedef struct
 343:Generated_Source\PSoC4/CapSense_Structure.c **** {
 344:Generated_Source\PSoC4/CapSense_Structure.c ****     uint16 offset;      /* parameter offset */
 345:Generated_Source\PSoC4/CapSense_Structure.c ****     uint8  widgetId;    /* widget Id parameter belongs to */
 346:Generated_Source\PSoC4/CapSense_Structure.c ****     uint8  affectsCrc;  /* parameter affects widget CRC */
 347:Generated_Source\PSoC4/CapSense_Structure.c ****     uint8  crc;         /* parameter CRC */
 348:Generated_Source\PSoC4/CapSense_Structure.c ****     uint8  flash;       /* parameter located in FLASH flag */
 349:Generated_Source\PSoC4/CapSense_Structure.c ****     uint8  rw;          /* parameter is read/write flag */
 350:Generated_Source\PSoC4/CapSense_Structure.c ****     uint8  type;        /* parameter type: uint8/uint16/uint32 */
 351:Generated_Source\PSoC4/CapSense_Structure.c **** } PARAM_ID_STRUCT;
 352:Generated_Source\PSoC4/CapSense_Structure.c **** 
 353:Generated_Source\PSoC4/CapSense_Structure.c **** 
 354:Generated_Source\PSoC4/CapSense_Structure.c **** /*******************************************************************************
 355:Generated_Source\PSoC4/CapSense_Structure.c **** * Static Function Prototypes
 356:Generated_Source\PSoC4/CapSense_Structure.c **** *******************************************************************************/
 357:Generated_Source\PSoC4/CapSense_Structure.c **** /**
 358:Generated_Source\PSoC4/CapSense_Structure.c **** * \cond SECTION_C_INTERNAL
 359:Generated_Source\PSoC4/CapSense_Structure.c **** * \addtogroup group_c_internal
 360:Generated_Source\PSoC4/CapSense_Structure.c **** * \{
 361:Generated_Source\PSoC4/CapSense_Structure.c **** */
 362:Generated_Source\PSoC4/CapSense_Structure.c **** 
 363:Generated_Source\PSoC4/CapSense_Structure.c **** 
 364:Generated_Source\PSoC4/CapSense_Structure.c **** 
 365:Generated_Source\PSoC4/CapSense_Structure.c **** static cystatus DsParseParamId(uint32 paramId, PARAM_ID_STRUCT *pData);
 366:Generated_Source\PSoC4/CapSense_Structure.c **** 
 367:Generated_Source\PSoC4/CapSense_Structure.c **** /** \}
 368:Generated_Source\PSoC4/CapSense_Structure.c **** * \endcond */
 369:Generated_Source\PSoC4/CapSense_Structure.c **** 
 370:Generated_Source\PSoC4/CapSense_Structure.c **** 
 371:Generated_Source\PSoC4/CapSense_Structure.c **** /*******************************************************************************
 372:Generated_Source\PSoC4/CapSense_Structure.c **** * Function Name: CapSense_DsInitialize
 373:Generated_Source\PSoC4/CapSense_Structure.c **** ****************************************************************************//**
ARM GAS  C:\Users\dell\AppData\Local\Temp\ccAx8ClQ.s 			page 8


 374:Generated_Source\PSoC4/CapSense_Structure.c **** *
 375:Generated_Source\PSoC4/CapSense_Structure.c **** * \brief
 376:Generated_Source\PSoC4/CapSense_Structure.c **** *   This function initializes the Data Structure storage.
 377:Generated_Source\PSoC4/CapSense_Structure.c **** *
 378:Generated_Source\PSoC4/CapSense_Structure.c **** * \details
 379:Generated_Source\PSoC4/CapSense_Structure.c **** *   This function copies the default widget configuration parameters
 380:Generated_Source\PSoC4/CapSense_Structure.c **** *   from the Flash storage into the RAM Data Structure.
 381:Generated_Source\PSoC4/CapSense_Structure.c **** *
 382:Generated_Source\PSoC4/CapSense_Structure.c **** *******************************************************************************/
 383:Generated_Source\PSoC4/CapSense_Structure.c **** void CapSense_DsInitialize(void)
 384:Generated_Source\PSoC4/CapSense_Structure.c **** {
 385:Generated_Source\PSoC4/CapSense_Structure.c ****     #if ((CapSense_ENABLE == CapSense_CSX_EN) || \
 386:Generated_Source\PSoC4/CapSense_Structure.c ****          (CapSense_ENABLE == CapSense_CSD_IDAC_COMP_EN) || \
 387:Generated_Source\PSoC4/CapSense_Structure.c ****         ((CapSense_ENABLE == CapSense_CSX_EN) && \
 388:Generated_Source\PSoC4/CapSense_Structure.c ****          (CapSense_ENABLE == CapSense_CSX_SKIP_OVSMPL_SPECIFIC_NODES)))
 389:Generated_Source\PSoC4/CapSense_Structure.c ****         uint32 snsId;
 390:Generated_Source\PSoC4/CapSense_Structure.c ****         uint32 wdgtId;
 391:Generated_Source\PSoC4/CapSense_Structure.c ****         CapSense_RAM_SNS_STRUCT * ptrSnsTmp;
 392:Generated_Source\PSoC4/CapSense_Structure.c ****         CapSense_FLASH_WD_STRUCT const * ptrFlashWdgt;
 393:Generated_Source\PSoC4/CapSense_Structure.c ****     #endif
 394:Generated_Source\PSoC4/CapSense_Structure.c **** 
 395:Generated_Source\PSoC4/CapSense_Structure.c ****     #if ((CapSense_ENABLE == CapSense_CSX_EN) && \
 396:Generated_Source\PSoC4/CapSense_Structure.c ****          (CapSense_ENABLE == CapSense_CSX_SKIP_OVSMPL_SPECIFIC_NODES))
 397:Generated_Source\PSoC4/CapSense_Structure.c ****         uint16 subConvNumber;
 398:Generated_Source\PSoC4/CapSense_Structure.c ****     #endif
 399:Generated_Source\PSoC4/CapSense_Structure.c **** 
 400:Generated_Source\PSoC4/CapSense_Structure.c ****     #if ((0u != CapSense_CSX_EN) || (0 != CapSense_CSD_IDAC_COMP_EN))
 401:Generated_Source\PSoC4/CapSense_Structure.c ****         uint8 const * ptrIdacInit = CapSense_ramIdacInit;
 402:Generated_Source\PSoC4/CapSense_Structure.c ****     #endif
 403:Generated_Source\PSoC4/CapSense_Structure.c **** 
 404:Generated_Source\PSoC4/CapSense_Structure.c ****     /* Reset RAM data structure content */
 405:Generated_Source\PSoC4/CapSense_Structure.c ****     (void)memset(&CapSense_dsRam, 0, sizeof(CapSense_dsRam));
 406:Generated_Source\PSoC4/CapSense_Structure.c **** 
 407:Generated_Source\PSoC4/CapSense_Structure.c ****     /* Initialize configId, deviceId and hwClock registers */
 408:Generated_Source\PSoC4/CapSense_Structure.c ****     CapSense_dsRam.configId = CapSense_CONFIG_ID;
 409:Generated_Source\PSoC4/CapSense_Structure.c ****     CapSense_dsRam.deviceId = CapSense_DEVICE_ID;
 410:Generated_Source\PSoC4/CapSense_Structure.c ****     CapSense_dsRam.hwClock = CapSense_HW_CLOCK;
 411:Generated_Source\PSoC4/CapSense_Structure.c **** 
 412:Generated_Source\PSoC4/CapSense_Structure.c ****     /* Initialize global RAM data */
 413:Generated_Source\PSoC4/CapSense_Structure.c ****     CapSense_dsRam.csd0Config = CapSense_CSD0_CONFIG;
 414:Generated_Source\PSoC4/CapSense_Structure.c **** 
 415:Generated_Source\PSoC4/CapSense_Structure.c ****     #if (0u != CapSense_TOTAL_CSD_WIDGETS)
 416:Generated_Source\PSoC4/CapSense_Structure.c ****         CapSense_dsRam.modCsdClk = CapSense_CSD_SCANSPEED_DIVIDER;
 417:Generated_Source\PSoC4/CapSense_Structure.c **** 
 418:Generated_Source\PSoC4/CapSense_Structure.c ****         #if (0u != CapSense_CSD_COMMON_SNS_CLK_EN)
 419:Generated_Source\PSoC4/CapSense_Structure.c ****             CapSense_dsRam.snsCsdClk = CapSense_CSD_SNS_CLK_DIVIDER;
 420:Generated_Source\PSoC4/CapSense_Structure.c ****         #endif /* #if (0u != CapSense_CSD_COMMON_SNS_CLK_EN) */
 421:Generated_Source\PSoC4/CapSense_Structure.c ****     #endif /* #if (0u != CapSense_TOTAL_CSD_WIDGETS) */
 422:Generated_Source\PSoC4/CapSense_Structure.c **** 
 423:Generated_Source\PSoC4/CapSense_Structure.c ****     #if (0u != CapSense_CSX_EN)
 424:Generated_Source\PSoC4/CapSense_Structure.c ****         CapSense_dsRam.modCsxClk = CapSense_CSX_SCANSPEED_DIVIDER;
 425:Generated_Source\PSoC4/CapSense_Structure.c **** 
 426:Generated_Source\PSoC4/CapSense_Structure.c ****         #if (0u != CapSense_CSX_COMMON_TX_CLK_EN)
 427:Generated_Source\PSoC4/CapSense_Structure.c ****             CapSense_dsRam.snsCsxClk = CapSense_CSX_TX_CLK_DIVIDER;
 428:Generated_Source\PSoC4/CapSense_Structure.c ****         #endif /* #if (0u != CapSense_CSX_COMMON_TX_CLK_EN) */
 429:Generated_Source\PSoC4/CapSense_Structure.c ****     #endif /* #if (0u != CapSense_CSX_EN) */
 430:Generated_Source\PSoC4/CapSense_Structure.c **** 
ARM GAS  C:\Users\dell\AppData\Local\Temp\ccAx8ClQ.s 			page 9


 431:Generated_Source\PSoC4/CapSense_Structure.c ****     #if (0u != CapSense_ISX_EN)
 432:Generated_Source\PSoC4/CapSense_Structure.c ****         CapSense_dsRam.modIsxClk = CapSense_ISX_SCANSPEED_DIVIDER;
 433:Generated_Source\PSoC4/CapSense_Structure.c ****     #endif /* #if (0u != CapSense_ISX_EN) */
 434:Generated_Source\PSoC4/CapSense_Structure.c **** 
 435:Generated_Source\PSoC4/CapSense_Structure.c ****     #if (0u != CapSense_SELF_TEST_EN)
 436:Generated_Source\PSoC4/CapSense_Structure.c ****         CapSense_dsRam.glbCrc = CapSense_GLB_CRC;
 437:Generated_Source\PSoC4/CapSense_Structure.c ****     #endif /* #if (0u != CapSense_SELF_TEST_EN) */
 438:Generated_Source\PSoC4/CapSense_Structure.c **** 
 439:Generated_Source\PSoC4/CapSense_Structure.c ****     /* Initialize RAM widget data */
 440:Generated_Source\PSoC4/CapSense_Structure.c ****     CapSense_dsRam.wdgtList = CapSense_ramWidgetInit;
 441:Generated_Source\PSoC4/CapSense_Structure.c **** 
 442:Generated_Source\PSoC4/CapSense_Structure.c ****     /* Initialize Gesture configuration structure */
 443:Generated_Source\PSoC4/CapSense_Structure.c ****     #if ((0u != CapSense_GES_GLOBAL_EN) || (0u != CapSense_BALLISTIC_MULTIPLIER_EN))
 444:Generated_Source\PSoC4/CapSense_Structure.c ****         CapSense_dsRam.timestampInterval = CapSense_TIMESTAMP_INTERVAL;
 445:Generated_Source\PSoC4/CapSense_Structure.c ****     #endif /* ((0u != CapSense_GES_GLOBAL_EN) || (0u != CapSense_BALLISTIC_MULTIPLIER_EN)) */
 446:Generated_Source\PSoC4/CapSense_Structure.c ****         
 447:Generated_Source\PSoC4/CapSense_Structure.c ****     #if (0u != CapSense_GES_GLOBAL_EN)
 448:Generated_Source\PSoC4/CapSense_Structure.c ****         CapSense_dsRam.gestures = CapSense_ramGesturesInit;
 449:Generated_Source\PSoC4/CapSense_Structure.c ****     #endif /* (0u != CapSense_GES_GLOBAL_EN) */
 450:Generated_Source\PSoC4/CapSense_Structure.c **** 
 451:Generated_Source\PSoC4/CapSense_Structure.c ****     #if (0u != CapSense_BALLISTIC_MULTIPLIER_EN)
 452:Generated_Source\PSoC4/CapSense_Structure.c ****         CapSense_dsRam.ballisticConfig = CapSense_ramBallisticInit;
 453:Generated_Source\PSoC4/CapSense_Structure.c ****     #endif /* (0u != CapSense_BALLISTIC_MULTIPLIER_EN) */
 454:Generated_Source\PSoC4/CapSense_Structure.c **** 
 455:Generated_Source\PSoC4/CapSense_Structure.c ****     #if (0u != CapSense_CSX_EN) || (0 != CapSense_CSD_IDAC_COMP_EN)
 456:Generated_Source\PSoC4/CapSense_Structure.c ****         /* Initialize IDAC data */
 457:Generated_Source\PSoC4/CapSense_Structure.c ****         ptrFlashWdgt = CapSense_dsFlash.wdgtArray;
 458:Generated_Source\PSoC4/CapSense_Structure.c **** 
 459:Generated_Source\PSoC4/CapSense_Structure.c ****         for (wdgtId = CapSense_TOTAL_WIDGETS; wdgtId-- > 0u; )
 460:Generated_Source\PSoC4/CapSense_Structure.c ****         {
 461:Generated_Source\PSoC4/CapSense_Structure.c ****             ptrSnsTmp = ptrFlashWdgt->ptr2SnsRam;
 462:Generated_Source\PSoC4/CapSense_Structure.c **** 
 463:Generated_Source\PSoC4/CapSense_Structure.c ****             for (snsId = CapSense_GET_SNS_CNT_BY_PTR(ptrFlashWdgt); snsId-- > 0u;)
 464:Generated_Source\PSoC4/CapSense_Structure.c ****             {
 465:Generated_Source\PSoC4/CapSense_Structure.c ****                 ptrSnsTmp->idacComp[0u] = *ptrIdacInit;
 466:Generated_Source\PSoC4/CapSense_Structure.c ****                 ptrIdacInit++;
 467:Generated_Source\PSoC4/CapSense_Structure.c **** 
 468:Generated_Source\PSoC4/CapSense_Structure.c ****                 #if (0u != CapSense_MULTI_FREQ_SCAN_EN)
 469:Generated_Source\PSoC4/CapSense_Structure.c ****                     ptrSnsTmp->idacComp[1u] = *ptrIdacInit;
 470:Generated_Source\PSoC4/CapSense_Structure.c ****                     ptrIdacInit++;
 471:Generated_Source\PSoC4/CapSense_Structure.c **** 
 472:Generated_Source\PSoC4/CapSense_Structure.c ****                     ptrSnsTmp->idacComp[2u] = *ptrIdacInit;
 473:Generated_Source\PSoC4/CapSense_Structure.c ****                     ptrIdacInit++;
 474:Generated_Source\PSoC4/CapSense_Structure.c ****                 #endif /* #if (0u != CapSense_MULTI_FREQ_SCAN_EN) */
 475:Generated_Source\PSoC4/CapSense_Structure.c **** 
 476:Generated_Source\PSoC4/CapSense_Structure.c ****                 ptrSnsTmp++;
 477:Generated_Source\PSoC4/CapSense_Structure.c ****             }
 478:Generated_Source\PSoC4/CapSense_Structure.c **** 
 479:Generated_Source\PSoC4/CapSense_Structure.c ****             ptrFlashWdgt++; /* Move to next widget */
 480:Generated_Source\PSoC4/CapSense_Structure.c ****         }
 481:Generated_Source\PSoC4/CapSense_Structure.c ****     #endif /*(0u != CapSense_CSX_EN) || (0 != CapSense_CSD_IDAC_COMP_EN)*/
 482:Generated_Source\PSoC4/CapSense_Structure.c **** 
 483:Generated_Source\PSoC4/CapSense_Structure.c ****     #if ((CapSense_ENABLE == CapSense_CSX_EN) && \
 484:Generated_Source\PSoC4/CapSense_Structure.c ****          (CapSense_ENABLE == CapSense_CSX_SKIP_OVSMPL_SPECIFIC_NODES))
 485:Generated_Source\PSoC4/CapSense_Structure.c ****         /* Initialize Sub-Conversion Number for each node of each CSX widget */
 486:Generated_Source\PSoC4/CapSense_Structure.c ****         ptrFlashWdgt = CapSense_dsFlash.wdgtArray;
 487:Generated_Source\PSoC4/CapSense_Structure.c ****         for (wdgtId = CapSense_TOTAL_WIDGETS; wdgtId-- > 0u;)
ARM GAS  C:\Users\dell\AppData\Local\Temp\ccAx8ClQ.s 			page 10


 488:Generated_Source\PSoC4/CapSense_Structure.c ****         {
 489:Generated_Source\PSoC4/CapSense_Structure.c ****             /* Check for widget sense method */
 490:Generated_Source\PSoC4/CapSense_Structure.c ****             if (CapSense_SENSE_METHOD_CSX_E == CapSense_GET_SENSE_METHOD(ptrFlashWdgt))
 491:Generated_Source\PSoC4/CapSense_Structure.c ****             {
 492:Generated_Source\PSoC4/CapSense_Structure.c ****                 /* Take the sub-convesion number of a CSX widget and initialize each node of this w
 493:Generated_Source\PSoC4/CapSense_Structure.c ****                 subConvNumber = ((CapSense_RAM_WD_BASE_STRUCT *)(ptrFlashWdgt->ptr2WdgtRam))->resol
 494:Generated_Source\PSoC4/CapSense_Structure.c ****                 ptrSnsTmp = ptrFlashWdgt->ptr2SnsRam;
 495:Generated_Source\PSoC4/CapSense_Structure.c ****                 for (snsId = CapSense_GET_SNS_CNT_BY_PTR(ptrFlashWdgt); snsId-- > 0u;)
 496:Generated_Source\PSoC4/CapSense_Structure.c ****                 {
 497:Generated_Source\PSoC4/CapSense_Structure.c ****                     ptrSnsTmp->subConvNum = subConvNumber;
 498:Generated_Source\PSoC4/CapSense_Structure.c ****                     ptrSnsTmp++;
 499:Generated_Source\PSoC4/CapSense_Structure.c ****                 }
 500:Generated_Source\PSoC4/CapSense_Structure.c ****             }
 501:Generated_Source\PSoC4/CapSense_Structure.c ****             /* Move to the next widget */
 502:Generated_Source\PSoC4/CapSense_Structure.c ****             ptrFlashWdgt++;
 503:Generated_Source\PSoC4/CapSense_Structure.c ****         }
 504:Generated_Source\PSoC4/CapSense_Structure.c ****     #endif /* ((CapSense_ENABLE == CapSense_CSX_EN) && \
 505:Generated_Source\PSoC4/CapSense_Structure.c ****                (CapSense_ENABLE == CapSense_CSX_SKIP_OVSMPL_SPECIFIC_NODES)) */
 506:Generated_Source\PSoC4/CapSense_Structure.c **** 
 507:Generated_Source\PSoC4/CapSense_Structure.c ****     #if (0u != CapSense_ADC_EN)
 508:Generated_Source\PSoC4/CapSense_Structure.c ****         CapSense_AdcDsInitialize();
 509:Generated_Source\PSoC4/CapSense_Structure.c ****     #endif /* (0u != CapSense_ADC_EN) */
 510:Generated_Source\PSoC4/CapSense_Structure.c **** }
 511:Generated_Source\PSoC4/CapSense_Structure.c **** 
 512:Generated_Source\PSoC4/CapSense_Structure.c **** 
 513:Generated_Source\PSoC4/CapSense_Structure.c **** #if (0u != CapSense_ADC_EN)
 514:Generated_Source\PSoC4/CapSense_Structure.c ****     /*******************************************************************************
 515:Generated_Source\PSoC4/CapSense_Structure.c ****     * Function Name: CapSense_AdcDsInitialize
 516:Generated_Source\PSoC4/CapSense_Structure.c ****     ****************************************************************************//**
 517:Generated_Source\PSoC4/CapSense_Structure.c ****     *
 518:Generated_Source\PSoC4/CapSense_Structure.c ****     * \brief
 519:Generated_Source\PSoC4/CapSense_Structure.c ****     *   Configures the initial Adc datastructure members.
 520:Generated_Source\PSoC4/CapSense_Structure.c ****     *
 521:Generated_Source\PSoC4/CapSense_Structure.c ****     *******************************************************************************/
 522:Generated_Source\PSoC4/CapSense_Structure.c ****     void CapSense_AdcDsInitialize(void)
 523:Generated_Source\PSoC4/CapSense_Structure.c ****     {
 524:Generated_Source\PSoC4/CapSense_Structure.c ****         CapSense_dsRam.adcResolution = CapSense_ADC_RESOLUTION;
 525:Generated_Source\PSoC4/CapSense_Structure.c ****         CapSense_dsRam.adcIdac = (uint8)(CapSense_ADC_IDAC_DEFAULT);
 526:Generated_Source\PSoC4/CapSense_Structure.c ****         CapSense_dsRam.adcActiveCh = CapSense_AdcNO_CHANNEL;
 527:Generated_Source\PSoC4/CapSense_Structure.c ****     }
 528:Generated_Source\PSoC4/CapSense_Structure.c **** #endif /* (0u != CapSense_ADC_EN) */
 529:Generated_Source\PSoC4/CapSense_Structure.c **** 
 530:Generated_Source\PSoC4/CapSense_Structure.c **** 
 531:Generated_Source\PSoC4/CapSense_Structure.c **** /*******************************************************************************
 532:Generated_Source\PSoC4/CapSense_Structure.c **** * Function Name: DsParseParamId
 533:Generated_Source\PSoC4/CapSense_Structure.c **** ****************************************************************************//**
 534:Generated_Source\PSoC4/CapSense_Structure.c **** *
 535:Generated_Source\PSoC4/CapSense_Structure.c **** * \brief
 536:Generated_Source\PSoC4/CapSense_Structure.c **** *   This function parses the parameter ID and checks its correctness.
 537:Generated_Source\PSoC4/CapSense_Structure.c **** *
 538:Generated_Source\PSoC4/CapSense_Structure.c **** * \details
 539:Generated_Source\PSoC4/CapSense_Structure.c **** *   This function checks the parameter CRC if the self-test is enabled,
 540:Generated_Source\PSoC4/CapSense_Structure.c **** *   validates the offset value and parameter type.
 541:Generated_Source\PSoC4/CapSense_Structure.c **** *
 542:Generated_Source\PSoC4/CapSense_Structure.c **** * \param paramId The parameter to parse.
 543:Generated_Source\PSoC4/CapSense_Structure.c **** * \param pData   The pointer to the structure that will hold parsed data.
 544:Generated_Source\PSoC4/CapSense_Structure.c **** *
ARM GAS  C:\Users\dell\AppData\Local\Temp\ccAx8ClQ.s 			page 11


 545:Generated_Source\PSoC4/CapSense_Structure.c **** * \return CYRET_SUCCESS     If the parameter is valid
 546:Generated_Source\PSoC4/CapSense_Structure.c **** *         CYRET_BAD_PARAM   If the parameter is invalid
 547:Generated_Source\PSoC4/CapSense_Structure.c **** *
 548:Generated_Source\PSoC4/CapSense_Structure.c **** *******************************************************************************/
 549:Generated_Source\PSoC4/CapSense_Structure.c **** static cystatus DsParseParamId(uint32 paramId, PARAM_ID_STRUCT *pData)
 550:Generated_Source\PSoC4/CapSense_Structure.c **** {
  27              		.loc 1 550 0
  28              		.cfi_startproc
  29              		@ args = 0, pretend = 0, frame = 0
  30              		@ frame_needed = 0, uses_anonymous_args = 0
  31              	.LVL0:
  32 0000 70B5     		push	{r4, r5, r6, lr}
  33              		.cfi_def_cfa_offset 16
  34              		.cfi_offset 4, -16
  35              		.cfi_offset 5, -12
  36              		.cfi_offset 6, -8
  37              		.cfi_offset 14, -4
  38              	.LVL1:
 551:Generated_Source\PSoC4/CapSense_Structure.c ****     cystatus result = CYRET_SUCCESS;
 552:Generated_Source\PSoC4/CapSense_Structure.c **** 
 553:Generated_Source\PSoC4/CapSense_Structure.c ****     #if (0u != CapSense_SELF_TEST_EN)
 554:Generated_Source\PSoC4/CapSense_Structure.c ****         const uint8 crcTable[] =
 555:Generated_Source\PSoC4/CapSense_Structure.c ****         {
 556:Generated_Source\PSoC4/CapSense_Structure.c ****             0x00u, 0x09u, 0x0Bu, 0x02u, 0x0Fu, 0x06u, 0x04u, 0x0Du,
 557:Generated_Source\PSoC4/CapSense_Structure.c ****             0x07u, 0x0Eu, 0x0Cu, 0x05u, 0x08u, 0x01u, 0x03u, 0x0Au
 558:Generated_Source\PSoC4/CapSense_Structure.c ****         };
 559:Generated_Source\PSoC4/CapSense_Structure.c **** 
 560:Generated_Source\PSoC4/CapSense_Structure.c ****         uint32 i;
 561:Generated_Source\PSoC4/CapSense_Structure.c ****         uint32 actualCrc = 0u;
 562:Generated_Source\PSoC4/CapSense_Structure.c ****         uint32 crcIndex;
 563:Generated_Source\PSoC4/CapSense_Structure.c ****     #endif /* #if (0u != CapSense_SELF_TEST_EN) */
 564:Generated_Source\PSoC4/CapSense_Structure.c **** 
 565:Generated_Source\PSoC4/CapSense_Structure.c ****     /* Extract parameter data */
 566:Generated_Source\PSoC4/CapSense_Structure.c ****     pData->offset     = LO16(paramId);
  39              		.loc 1 566 0
  40 0002 85B2     		uxth	r5, r0
  41 0004 0D80     		strh	r5, [r1]
 567:Generated_Source\PSoC4/CapSense_Structure.c ****     pData->affectsCrc = LO8((paramId & PARAM_UBIT_MASK)  >> PARAM_UBIT_OFFSET);
  42              		.loc 1 567 0
  43 0006 C30D     		lsrs	r3, r0, #23
  44 0008 0124     		movs	r4, #1
  45 000a 2340     		ands	r3, r4
  46 000c CB70     		strb	r3, [r1, #3]
 568:Generated_Source\PSoC4/CapSense_Structure.c ****     pData->widgetId   = LO8((paramId & PARAM_WDID_MASK)  >> PARAM_WDID_OFFSET);
  47              		.loc 1 568 0
  48 000e 030C     		lsrs	r3, r0, #16
  49 0010 7F22     		movs	r2, #127
  50 0012 1340     		ands	r3, r2
  51 0014 8B70     		strb	r3, [r1, #2]
 569:Generated_Source\PSoC4/CapSense_Structure.c ****     pData->type       = LO8((paramId & PARAM_TYPE_MASK)  >> PARAM_TYPE_OFFSET);
  52              		.loc 1 569 0
  53 0016 860F     		lsrs	r6, r0, #30
  54 0018 CE71     		strb	r6, [r1, #7]
 570:Generated_Source\PSoC4/CapSense_Structure.c ****     pData->flash      = LO8((paramId & PARAM_FBIT_MASK)  >> PARAM_FBIT_OFFSET);
  55              		.loc 1 570 0
  56 001a 030F     		lsrs	r3, r0, #28
  57 001c 2340     		ands	r3, r4
ARM GAS  C:\Users\dell\AppData\Local\Temp\ccAx8ClQ.s 			page 12


  58 001e 4B71     		strb	r3, [r1, #5]
 571:Generated_Source\PSoC4/CapSense_Structure.c ****     pData->rw         = LO8((paramId & PARAM_RWBIT_MASK) >> PARAM_RWBIT_OFFSET);
  59              		.loc 1 571 0
  60 0020 420F     		lsrs	r2, r0, #29
  61 0022 2240     		ands	r2, r4
  62 0024 8A71     		strb	r2, [r1, #6]
 572:Generated_Source\PSoC4/CapSense_Structure.c ****     pData->crc        = LO8((paramId & PARAM_CRC_MASK)   >> PARAM_CRC_OFFSET);
  63              		.loc 1 572 0
  64 0026 000E     		lsrs	r0, r0, #24
  65              	.LVL2:
  66 0028 0E34     		adds	r4, r4, #14
  67 002a 2040     		ands	r0, r4
  68 002c 0871     		strb	r0, [r1, #4]
 573:Generated_Source\PSoC4/CapSense_Structure.c **** 
 574:Generated_Source\PSoC4/CapSense_Structure.c ****     /* Check parameter CRC if self-test is enabled */
 575:Generated_Source\PSoC4/CapSense_Structure.c ****     #if (0u != CapSense_SELF_TEST_EN)
 576:Generated_Source\PSoC4/CapSense_Structure.c **** 
 577:Generated_Source\PSoC4/CapSense_Structure.c ****         /* Calculate CRC for bits 0..24.
 578:Generated_Source\PSoC4/CapSense_Structure.c ****          * The CRC is calculated using nibbles (4-bits).
 579:Generated_Source\PSoC4/CapSense_Structure.c ****          * So for 0..24 bits there are in total 6 nibbles. */
 580:Generated_Source\PSoC4/CapSense_Structure.c ****         for (i = 6u; i > 0u; i--)
 581:Generated_Source\PSoC4/CapSense_Structure.c ****         {
 582:Generated_Source\PSoC4/CapSense_Structure.c ****             crcIndex = actualCrc ^ (paramId & 0x0Fu);
 583:Generated_Source\PSoC4/CapSense_Structure.c ****             actualCrc = crcTable[crcIndex];
 584:Generated_Source\PSoC4/CapSense_Structure.c ****             paramId >>= 4u;
 585:Generated_Source\PSoC4/CapSense_Structure.c ****         }
 586:Generated_Source\PSoC4/CapSense_Structure.c **** 
 587:Generated_Source\PSoC4/CapSense_Structure.c ****         /* Add bits 28..32 */
 588:Generated_Source\PSoC4/CapSense_Structure.c ****         crcIndex = actualCrc ^ ((paramId >> 4u) & 0x0Fu);
 589:Generated_Source\PSoC4/CapSense_Structure.c ****         actualCrc = crcTable[crcIndex];
 590:Generated_Source\PSoC4/CapSense_Structure.c **** 
 591:Generated_Source\PSoC4/CapSense_Structure.c ****         /* Add bits 24..28 (CRC) */
 592:Generated_Source\PSoC4/CapSense_Structure.c ****         crcIndex = actualCrc ^ (paramId & 0x0Fu);
 593:Generated_Source\PSoC4/CapSense_Structure.c ****         actualCrc = crcTable[crcIndex];
 594:Generated_Source\PSoC4/CapSense_Structure.c **** 
 595:Generated_Source\PSoC4/CapSense_Structure.c ****         if (0u != actualCrc)
 596:Generated_Source\PSoC4/CapSense_Structure.c ****         {
 597:Generated_Source\PSoC4/CapSense_Structure.c ****             /* CRC mismatch */
 598:Generated_Source\PSoC4/CapSense_Structure.c ****             result = CYRET_BAD_PARAM;
 599:Generated_Source\PSoC4/CapSense_Structure.c ****         }
 600:Generated_Source\PSoC4/CapSense_Structure.c **** 
 601:Generated_Source\PSoC4/CapSense_Structure.c ****         if ((CYRET_SUCCESS == result) &&
 602:Generated_Source\PSoC4/CapSense_Structure.c ****             (0u != pData->affectsCrc) && (pData->widgetId >= CapSense_TOTAL_WIDGETS ))
 603:Generated_Source\PSoC4/CapSense_Structure.c ****         {
 604:Generated_Source\PSoC4/CapSense_Structure.c ****             /* Wrong widgetId for protected parameter */
 605:Generated_Source\PSoC4/CapSense_Structure.c ****             result = CYRET_BAD_PARAM;
 606:Generated_Source\PSoC4/CapSense_Structure.c ****         }
 607:Generated_Source\PSoC4/CapSense_Structure.c **** 
 608:Generated_Source\PSoC4/CapSense_Structure.c ****         /* Check offset value range */
 609:Generated_Source\PSoC4/CapSense_Structure.c ****         if (CYRET_SUCCESS == result)
 610:Generated_Source\PSoC4/CapSense_Structure.c ****         {
 611:Generated_Source\PSoC4/CapSense_Structure.c ****             if (0u == pData->flash)
 612:Generated_Source\PSoC4/CapSense_Structure.c ****             {
 613:Generated_Source\PSoC4/CapSense_Structure.c ****                 /* Check offset for RAM Data Structure range */
 614:Generated_Source\PSoC4/CapSense_Structure.c ****                 if (pData->offset >= sizeof(CapSense_dsRam))
 615:Generated_Source\PSoC4/CapSense_Structure.c ****                 {
 616:Generated_Source\PSoC4/CapSense_Structure.c ****                     result = CYRET_BAD_PARAM;
ARM GAS  C:\Users\dell\AppData\Local\Temp\ccAx8ClQ.s 			page 13


 617:Generated_Source\PSoC4/CapSense_Structure.c ****                 }
 618:Generated_Source\PSoC4/CapSense_Structure.c ****             }
 619:Generated_Source\PSoC4/CapSense_Structure.c ****             else
 620:Generated_Source\PSoC4/CapSense_Structure.c ****             {
 621:Generated_Source\PSoC4/CapSense_Structure.c ****                 /* Check offset for Flash Data Structure range */
 622:Generated_Source\PSoC4/CapSense_Structure.c ****                 if (pData->offset >= sizeof(CapSense_dsFlash))
 623:Generated_Source\PSoC4/CapSense_Structure.c ****                 {
 624:Generated_Source\PSoC4/CapSense_Structure.c ****                     result = CYRET_BAD_PARAM;
 625:Generated_Source\PSoC4/CapSense_Structure.c ****                 }
 626:Generated_Source\PSoC4/CapSense_Structure.c **** 
 627:Generated_Source\PSoC4/CapSense_Structure.c ****                 /* Check if it is marked as Read Only */
 628:Generated_Source\PSoC4/CapSense_Structure.c ****                 if (0u != pData->rw)
 629:Generated_Source\PSoC4/CapSense_Structure.c ****                 {
 630:Generated_Source\PSoC4/CapSense_Structure.c ****                     result = CYRET_BAD_PARAM;
 631:Generated_Source\PSoC4/CapSense_Structure.c ****                 }
 632:Generated_Source\PSoC4/CapSense_Structure.c ****             }
 633:Generated_Source\PSoC4/CapSense_Structure.c ****         }
 634:Generated_Source\PSoC4/CapSense_Structure.c ****     #else /* #if (0u != CapSense_SELF_TEST_EN) */
 635:Generated_Source\PSoC4/CapSense_Structure.c ****         /* Check offset value range */
 636:Generated_Source\PSoC4/CapSense_Structure.c ****         if (0u == pData->flash)
  69              		.loc 1 636 0
  70 002e 002B     		cmp	r3, #0
  71 0030 03D1     		bne	.L2
 637:Generated_Source\PSoC4/CapSense_Structure.c ****         {
 638:Generated_Source\PSoC4/CapSense_Structure.c ****             /* Check offset for RAM Data Structure range */
 639:Generated_Source\PSoC4/CapSense_Structure.c ****             if (pData->offset >= sizeof(CapSense_dsRam))
  72              		.loc 1 639 0
  73 0032 8F2D     		cmp	r5, #143
  74 0034 09D8     		bhi	.L9
 551:Generated_Source\PSoC4/CapSense_Structure.c **** 
  75              		.loc 1 551 0
  76 0036 0020     		movs	r0, #0
  77 0038 0AE0     		b	.L3
  78              	.L2:
 640:Generated_Source\PSoC4/CapSense_Structure.c ****             {
 641:Generated_Source\PSoC4/CapSense_Structure.c ****                 result = CYRET_BAD_PARAM;
 642:Generated_Source\PSoC4/CapSense_Structure.c ****             }
 643:Generated_Source\PSoC4/CapSense_Structure.c ****         }
 644:Generated_Source\PSoC4/CapSense_Structure.c ****         else
 645:Generated_Source\PSoC4/CapSense_Structure.c ****         {
 646:Generated_Source\PSoC4/CapSense_Structure.c ****             /* Check offset for Flash Data Structure range */
 647:Generated_Source\PSoC4/CapSense_Structure.c ****             if (pData->offset >= sizeof(CapSense_dsFlash))
  79              		.loc 1 647 0
  80 003a 6F2D     		cmp	r5, #111
  81 003c 01D8     		bhi	.L10
 551:Generated_Source\PSoC4/CapSense_Structure.c **** 
  82              		.loc 1 551 0
  83 003e 0020     		movs	r0, #0
  84 0040 00E0     		b	.L4
  85              	.L10:
 648:Generated_Source\PSoC4/CapSense_Structure.c ****             {
 649:Generated_Source\PSoC4/CapSense_Structure.c ****                 result = CYRET_BAD_PARAM;
  86              		.loc 1 649 0
  87 0042 0120     		movs	r0, #1
  88              	.L4:
  89              	.LVL3:
 650:Generated_Source\PSoC4/CapSense_Structure.c ****             }
ARM GAS  C:\Users\dell\AppData\Local\Temp\ccAx8ClQ.s 			page 14


 651:Generated_Source\PSoC4/CapSense_Structure.c **** 
 652:Generated_Source\PSoC4/CapSense_Structure.c ****             /* Check if it is marked as Read Only */
 653:Generated_Source\PSoC4/CapSense_Structure.c ****             if (0u != pData->rw)
  90              		.loc 1 653 0
  91 0044 002A     		cmp	r2, #0
  92 0046 02D1     		bne	.L11
  93 0048 02E0     		b	.L3
  94              	.LVL4:
  95              	.L9:
 641:Generated_Source\PSoC4/CapSense_Structure.c ****             }
  96              		.loc 1 641 0
  97 004a 0120     		movs	r0, #1
  98 004c 00E0     		b	.L3
  99              	.LVL5:
 100              	.L11:
 654:Generated_Source\PSoC4/CapSense_Structure.c ****             {
 655:Generated_Source\PSoC4/CapSense_Structure.c ****                 result = CYRET_BAD_PARAM;
 101              		.loc 1 655 0
 102 004e 0120     		movs	r0, #1
 103              	.LVL6:
 104              	.L3:
 656:Generated_Source\PSoC4/CapSense_Structure.c ****             }
 657:Generated_Source\PSoC4/CapSense_Structure.c ****         }
 658:Generated_Source\PSoC4/CapSense_Structure.c ****     #endif /* #if (0u != CapSense_SELF_TEST_EN) */
 659:Generated_Source\PSoC4/CapSense_Structure.c **** 
 660:Generated_Source\PSoC4/CapSense_Structure.c ****     if (CYRET_SUCCESS == result)
 105              		.loc 1 660 0
 106 0050 0028     		cmp	r0, #0
 107 0052 11D1     		bne	.L5
 661:Generated_Source\PSoC4/CapSense_Structure.c ****     {
 662:Generated_Source\PSoC4/CapSense_Structure.c ****         /* Check parameter type, offset alignment */
 663:Generated_Source\PSoC4/CapSense_Structure.c ****         switch (pData->type)
 108              		.loc 1 663 0
 109 0054 022E     		cmp	r6, #2
 110 0056 04D0     		beq	.L6
 111 0058 032E     		cmp	r6, #3
 112 005a 05D0     		beq	.L7
 113 005c 012E     		cmp	r6, #1
 114 005e 06D1     		bne	.L15
 115 0060 0AE0     		b	.L5
 116              	.L6:
 664:Generated_Source\PSoC4/CapSense_Structure.c ****         {
 665:Generated_Source\PSoC4/CapSense_Structure.c ****         case DS_PARAM_TYPE_UINT16:
 666:Generated_Source\PSoC4/CapSense_Structure.c ****             if (0u != (pData->offset & UINT16_ALIGN_MASK))
 117              		.loc 1 666 0
 118 0062 EB07     		lsls	r3, r5, #31
 119 0064 05D4     		bmi	.L13
 120 0066 07E0     		b	.L5
 121              	.L7:
 667:Generated_Source\PSoC4/CapSense_Structure.c ****             {
 668:Generated_Source\PSoC4/CapSense_Structure.c ****                 result = CYRET_BAD_PARAM;
 669:Generated_Source\PSoC4/CapSense_Structure.c ****             }
 670:Generated_Source\PSoC4/CapSense_Structure.c ****             break;
 671:Generated_Source\PSoC4/CapSense_Structure.c **** 
 672:Generated_Source\PSoC4/CapSense_Structure.c ****         case DS_PARAM_TYPE_UINT32:
 673:Generated_Source\PSoC4/CapSense_Structure.c ****             if (0u != (pData->offset & UINT32_ALIGN_MASK))
 122              		.loc 1 673 0
ARM GAS  C:\Users\dell\AppData\Local\Temp\ccAx8ClQ.s 			page 15


 123 0068 AB07     		lsls	r3, r5, #30
 124 006a 04D1     		bne	.L14
 125 006c 04E0     		b	.L5
 126              	.L15:
 674:Generated_Source\PSoC4/CapSense_Structure.c ****             {
 675:Generated_Source\PSoC4/CapSense_Structure.c ****                 result = CYRET_BAD_PARAM;
 676:Generated_Source\PSoC4/CapSense_Structure.c ****             }
 677:Generated_Source\PSoC4/CapSense_Structure.c ****             break;
 678:Generated_Source\PSoC4/CapSense_Structure.c **** 
 679:Generated_Source\PSoC4/CapSense_Structure.c ****         case DS_PARAM_TYPE_UINT8:
 680:Generated_Source\PSoC4/CapSense_Structure.c ****             break;
 681:Generated_Source\PSoC4/CapSense_Structure.c **** 
 682:Generated_Source\PSoC4/CapSense_Structure.c ****         default:
 683:Generated_Source\PSoC4/CapSense_Structure.c ****             result = CYRET_BAD_PARAM;
 127              		.loc 1 683 0
 128 006e 0120     		movs	r0, #1
 129              	.LVL7:
 130 0070 02E0     		b	.L5
 131              	.LVL8:
 132              	.L13:
 668:Generated_Source\PSoC4/CapSense_Structure.c ****             }
 133              		.loc 1 668 0
 134 0072 0120     		movs	r0, #1
 135              	.LVL9:
 136 0074 00E0     		b	.L5
 137              	.LVL10:
 138              	.L14:
 675:Generated_Source\PSoC4/CapSense_Structure.c ****             }
 139              		.loc 1 675 0
 140 0076 0120     		movs	r0, #1
 141              	.LVL11:
 142              	.L5:
 684:Generated_Source\PSoC4/CapSense_Structure.c ****             break;
 685:Generated_Source\PSoC4/CapSense_Structure.c ****         }
 686:Generated_Source\PSoC4/CapSense_Structure.c ****     }
 687:Generated_Source\PSoC4/CapSense_Structure.c **** 
 688:Generated_Source\PSoC4/CapSense_Structure.c ****     return result;
 689:Generated_Source\PSoC4/CapSense_Structure.c **** }
 143              		.loc 1 689 0
 144              		@ sp needed
 145 0078 70BD     		pop	{r4, r5, r6, pc}
 146              		.cfi_endproc
 147              	.LFE3:
 148              		.size	DsParseParamId, .-DsParseParamId
 149 007a C046     		.section	.text.CapSense_AdcDsInitialize,"ax",%progbits
 150              		.align	2
 151              		.global	CapSense_AdcDsInitialize
 152              		.code	16
 153              		.thumb_func
 154              		.type	CapSense_AdcDsInitialize, %function
 155              	CapSense_AdcDsInitialize:
 156              	.LFB2:
 523:Generated_Source\PSoC4/CapSense_Structure.c ****         CapSense_dsRam.adcResolution = CapSense_ADC_RESOLUTION;
 157              		.loc 1 523 0
 158              		.cfi_startproc
 159              		@ args = 0, pretend = 0, frame = 0
 160              		@ frame_needed = 0, uses_anonymous_args = 0
ARM GAS  C:\Users\dell\AppData\Local\Temp\ccAx8ClQ.s 			page 16


 161              		@ link register save eliminated.
 524:Generated_Source\PSoC4/CapSense_Structure.c ****         CapSense_dsRam.adcIdac = (uint8)(CapSense_ADC_IDAC_DEFAULT);
 162              		.loc 1 524 0
 163 0000 054B     		ldr	r3, .L17
 164 0002 0A21     		movs	r1, #10
 165 0004 2722     		movs	r2, #39
 166 0006 9954     		strb	r1, [r3, r2]
 525:Generated_Source\PSoC4/CapSense_Structure.c ****         CapSense_dsRam.adcActiveCh = CapSense_AdcNO_CHANNEL;
 167              		.loc 1 525 0
 168 0008 0531     		adds	r1, r1, #5
 169 000a 063A     		subs	r2, r2, #6
 170 000c 9954     		strb	r1, [r3, r2]
 526:Generated_Source\PSoC4/CapSense_Structure.c ****     }
 171              		.loc 1 526 0
 172 000e F031     		adds	r1, r1, #240
 173 0010 0132     		adds	r2, r2, #1
 174 0012 9954     		strb	r1, [r3, r2]
 527:Generated_Source\PSoC4/CapSense_Structure.c **** #endif /* (0u != CapSense_ADC_EN) */
 175              		.loc 1 527 0
 176              		@ sp needed
 177 0014 7047     		bx	lr
 178              	.L18:
 179 0016 C046     		.align	2
 180              	.L17:
 181 0018 00000000 		.word	CapSense_dsRam
 182              		.cfi_endproc
 183              	.LFE2:
 184              		.size	CapSense_AdcDsInitialize, .-CapSense_AdcDsInitialize
 185              		.section	.text.CapSense_DsInitialize,"ax",%progbits
 186              		.align	2
 187              		.global	CapSense_DsInitialize
 188              		.code	16
 189              		.thumb_func
 190              		.type	CapSense_DsInitialize, %function
 191              	CapSense_DsInitialize:
 192              	.LFB1:
 384:Generated_Source\PSoC4/CapSense_Structure.c ****     #if ((CapSense_ENABLE == CapSense_CSX_EN) || \
 193              		.loc 1 384 0
 194              		.cfi_startproc
 195              		@ args = 0, pretend = 0, frame = 0
 196              		@ frame_needed = 0, uses_anonymous_args = 0
 197 0000 70B5     		push	{r4, r5, r6, lr}
 198              		.cfi_def_cfa_offset 16
 199              		.cfi_offset 4, -16
 200              		.cfi_offset 5, -12
 201              		.cfi_offset 6, -8
 202              		.cfi_offset 14, -4
 203              	.LVL12:
 405:Generated_Source\PSoC4/CapSense_Structure.c **** 
 204              		.loc 1 405 0
 205 0002 184D     		ldr	r5, .L24
 206 0004 9022     		movs	r2, #144
 207 0006 0021     		movs	r1, #0
 208 0008 2800     		movs	r0, r5
 209 000a FFF7FEFF 		bl	memset
 210              	.LVL13:
 408:Generated_Source\PSoC4/CapSense_Structure.c ****     CapSense_dsRam.deviceId = CapSense_DEVICE_ID;
ARM GAS  C:\Users\dell\AppData\Local\Temp\ccAx8ClQ.s 			page 17


 211              		.loc 1 408 0
 212 000e 164B     		ldr	r3, .L24+4
 213 0010 2B80     		strh	r3, [r5]
 409:Generated_Source\PSoC4/CapSense_Structure.c ****     CapSense_dsRam.hwClock = CapSense_HW_CLOCK;
 214              		.loc 1 409 0
 215 0012 8023     		movs	r3, #128
 216 0014 5B00     		lsls	r3, r3, #1
 217 0016 6B80     		strh	r3, [r5, #2]
 410:Generated_Source\PSoC4/CapSense_Structure.c **** 
 218              		.loc 1 410 0
 219 0018 144B     		ldr	r3, .L24+8
 220 001a AB80     		strh	r3, [r5, #4]
 413:Generated_Source\PSoC4/CapSense_Structure.c **** 
 221              		.loc 1 413 0
 222 001c 0823     		movs	r3, #8
 223 001e AB84     		strh	r3, [r5, #36]
 416:Generated_Source\PSoC4/CapSense_Structure.c **** 
 224              		.loc 1 416 0
 225 0020 0122     		movs	r2, #1
 226 0022 1E33     		adds	r3, r3, #30
 227 0024 EA54     		strb	r2, [r5, r3]
 440:Generated_Source\PSoC4/CapSense_Structure.c **** 
 228              		.loc 1 440 0
 229 0026 124C     		ldr	r4, .L24+12
 230 0028 2800     		movs	r0, r5
 231 002a 2A30     		adds	r0, r0, #42
 232 002c 2100     		movs	r1, r4
 233 002e 7431     		adds	r1, r1, #116
 234 0030 3732     		adds	r2, r2, #55
 235 0032 FFF7FEFF 		bl	memcpy
 236              	.LVL14:
 401:Generated_Source\PSoC4/CapSense_Structure.c ****     #endif
 237              		.loc 1 401 0
 238 0036 2100     		movs	r1, r4
 457:Generated_Source\PSoC4/CapSense_Structure.c **** 
 239              		.loc 1 457 0
 240 0038 0434     		adds	r4, r4, #4
 459:Generated_Source\PSoC4/CapSense_Structure.c ****         {
 241              		.loc 1 459 0
 242 003a 0423     		movs	r3, #4
 243 003c 0CE0     		b	.L20
 244              	.LVL15:
 245              	.L23:
 461:Generated_Source\PSoC4/CapSense_Structure.c **** 
 246              		.loc 1 461 0
 247 003e A268     		ldr	r2, [r4, #8]
 248              	.LVL16:
 463:Generated_Source\PSoC4/CapSense_Structure.c ****             {
 249              		.loc 1 463 0
 250 0040 238B     		ldrh	r3, [r4, #24]
 251              	.LVL17:
 252 0042 04E0     		b	.L21
 253              	.LVL18:
 254              	.L22:
 465:Generated_Source\PSoC4/CapSense_Structure.c ****                 ptrIdacInit++;
 255              		.loc 1 465 0
 256 0044 0B78     		ldrb	r3, [r1]
ARM GAS  C:\Users\dell\AppData\Local\Temp\ccAx8ClQ.s 			page 18


 257 0046 5372     		strb	r3, [r2, #9]
 466:Generated_Source\PSoC4/CapSense_Structure.c **** 
 258              		.loc 1 466 0
 259 0048 0131     		adds	r1, r1, #1
 260              	.LVL19:
 476:Generated_Source\PSoC4/CapSense_Structure.c ****             }
 261              		.loc 1 476 0
 262 004a 0A32     		adds	r2, r2, #10
 263              	.LVL20:
 463:Generated_Source\PSoC4/CapSense_Structure.c ****             {
 264              		.loc 1 463 0
 265 004c 0300     		movs	r3, r0
 266              	.LVL21:
 267              	.L21:
 463:Generated_Source\PSoC4/CapSense_Structure.c ****             {
 268              		.loc 1 463 0 is_stmt 0 discriminator 1
 269 004e 581E     		subs	r0, r3, #1
 270              	.LVL22:
 271 0050 002B     		cmp	r3, #0
 272 0052 F7D1     		bne	.L22
 479:Generated_Source\PSoC4/CapSense_Structure.c ****         }
 273              		.loc 1 479 0 is_stmt 1
 274 0054 1C34     		adds	r4, r4, #28
 275              	.LVL23:
 459:Generated_Source\PSoC4/CapSense_Structure.c ****         {
 276              		.loc 1 459 0
 277 0056 2B00     		movs	r3, r5
 278              	.LVL24:
 279              	.L20:
 459:Generated_Source\PSoC4/CapSense_Structure.c ****         {
 280              		.loc 1 459 0 is_stmt 0 discriminator 1
 281 0058 5D1E     		subs	r5, r3, #1
 282              	.LVL25:
 283 005a 002B     		cmp	r3, #0
 284 005c EFD1     		bne	.L23
 508:Generated_Source\PSoC4/CapSense_Structure.c ****     #endif /* (0u != CapSense_ADC_EN) */
 285              		.loc 1 508 0 is_stmt 1
 286 005e FFF7FEFF 		bl	CapSense_AdcDsInitialize
 287              	.LVL26:
 510:Generated_Source\PSoC4/CapSense_Structure.c **** 
 288              		.loc 1 510 0
 289              		@ sp needed
 290              	.LVL27:
 291              	.LVL28:
 292 0062 70BD     		pop	{r4, r5, r6, pc}
 293              	.L25:
 294              		.align	2
 295              	.L24:
 296 0064 00000000 		.word	CapSense_dsRam
 297 0068 E6A9FFFF 		.word	-22042
 298 006c B80B0000 		.word	3000
 299 0070 00000000 		.word	.LANCHOR0
 300              		.cfi_endproc
 301              	.LFE1:
 302              		.size	CapSense_DsInitialize, .-CapSense_DsInitialize
 303              		.section	.text.CapSense_GetParam,"ax",%progbits
 304              		.align	2
ARM GAS  C:\Users\dell\AppData\Local\Temp\ccAx8ClQ.s 			page 19


 305              		.global	CapSense_GetParam
 306              		.code	16
 307              		.thumb_func
 308              		.type	CapSense_GetParam, %function
 309              	CapSense_GetParam:
 310              	.LFB4:
 690:Generated_Source\PSoC4/CapSense_Structure.c **** 
 691:Generated_Source\PSoC4/CapSense_Structure.c **** /*******************************************************************************
 692:Generated_Source\PSoC4/CapSense_Structure.c **** * Function Name: CapSense_GetParam
 693:Generated_Source\PSoC4/CapSense_Structure.c **** ****************************************************************************//**
 694:Generated_Source\PSoC4/CapSense_Structure.c **** *
 695:Generated_Source\PSoC4/CapSense_Structure.c **** * \brief
 696:Generated_Source\PSoC4/CapSense_Structure.c **** *  Gets the specified parameter value from the \ref group_structures.
 697:Generated_Source\PSoC4/CapSense_Structure.c **** *
 698:Generated_Source\PSoC4/CapSense_Structure.c **** * \details
 699:Generated_Source\PSoC4/CapSense_Structure.c **** *  This function gets the value of the specified parameter by the paramId
 700:Generated_Source\PSoC4/CapSense_Structure.c **** *  argument. The paramId for each register is available in the
 701:Generated_Source\PSoC4/CapSense_Structure.c **** *  CapSense RegisterMap header file as
 702:Generated_Source\PSoC4/CapSense_Structure.c **** *  CapSense_<ParameterName>_PARAM_ID. The paramId is a special
 703:Generated_Source\PSoC4/CapSense_Structure.c **** *  enumerated value generated by the customizer. The format of paramId is as
 704:Generated_Source\PSoC4/CapSense_Structure.c **** *  follows:
 705:Generated_Source\PSoC4/CapSense_Structure.c **** *    1. [ byte 3 byte 2 byte 1 byte 0 ]
 706:Generated_Source\PSoC4/CapSense_Structure.c **** *    2. [ TTWFCCCC UIIIIIII MMMMMMMM LLLLLLLL ]
 707:Generated_Source\PSoC4/CapSense_Structure.c **** *    3. T - encodes the parameter type:
 708:Generated_Source\PSoC4/CapSense_Structure.c **** *      - 01b: uint8
 709:Generated_Source\PSoC4/CapSense_Structure.c **** *      - 10b: uint16
 710:Generated_Source\PSoC4/CapSense_Structure.c **** *      - 11b: uint32
 711:Generated_Source\PSoC4/CapSense_Structure.c **** *    4. W - indicates whether the parameter is writable:
 712:Generated_Source\PSoC4/CapSense_Structure.c **** *      - 0: ReadOnly
 713:Generated_Source\PSoC4/CapSense_Structure.c **** *      - 1: Read/Write
 714:Generated_Source\PSoC4/CapSense_Structure.c **** *    5. C - 4 bit CRC (X^3 + 1) of the whole paramId word, the C bits are
 715:Generated_Source\PSoC4/CapSense_Structure.c **** *       filled with 0s when the CRC is calculated.
 716:Generated_Source\PSoC4/CapSense_Structure.c **** *    6. U - indicates if the parameter affects the RAM Widget Object CRC.
 717:Generated_Source\PSoC4/CapSense_Structure.c **** *    7. I - specifies that the widgetId parameter belongs to
 718:Generated_Source\PSoC4/CapSense_Structure.c **** *    8. M,L - the parameter offset MSB and LSB accordingly in:
 719:Generated_Source\PSoC4/CapSense_Structure.c **** *      - Flash Data Structure if W bit is 0.
 720:Generated_Source\PSoC4/CapSense_Structure.c **** *      - RAM Data Structure if W bit is 1.
 721:Generated_Source\PSoC4/CapSense_Structure.c **** *
 722:Generated_Source\PSoC4/CapSense_Structure.c **** *  Refer to the \ref group_structures section for details of the data structure
 723:Generated_Source\PSoC4/CapSense_Structure.c **** *  organization and examples of its register access.
 724:Generated_Source\PSoC4/CapSense_Structure.c **** *
 725:Generated_Source\PSoC4/CapSense_Structure.c **** * \param paramId
 726:Generated_Source\PSoC4/CapSense_Structure.c **** *  Specifies the ID of parameter to get its value.
 727:Generated_Source\PSoC4/CapSense_Structure.c **** *  A macro for the parameter ID can be found in the CapSense RegisterMap header
 728:Generated_Source\PSoC4/CapSense_Structure.c **** *  file defined as CapSense_<ParameterName>_PARAM_ID.
 729:Generated_Source\PSoC4/CapSense_Structure.c **** *
 730:Generated_Source\PSoC4/CapSense_Structure.c **** * \param value
 731:Generated_Source\PSoC4/CapSense_Structure.c **** *  The pointer to a variable to be updated with the obtained value.
 732:Generated_Source\PSoC4/CapSense_Structure.c **** *
 733:Generated_Source\PSoC4/CapSense_Structure.c **** * \return
 734:Generated_Source\PSoC4/CapSense_Structure.c **** *  Returns the status of the operation:
 735:Generated_Source\PSoC4/CapSense_Structure.c **** *    - CYRET_SUCCESS - The operation is successfully completed.
 736:Generated_Source\PSoC4/CapSense_Structure.c **** *    - CYRET_BAD_PARAM - The input parameter is invalid.
 737:Generated_Source\PSoC4/CapSense_Structure.c **** *
 738:Generated_Source\PSoC4/CapSense_Structure.c **** *******************************************************************************/
 739:Generated_Source\PSoC4/CapSense_Structure.c **** cystatus CapSense_GetParam(uint32 paramId, uint32 *value)
 740:Generated_Source\PSoC4/CapSense_Structure.c **** {
ARM GAS  C:\Users\dell\AppData\Local\Temp\ccAx8ClQ.s 			page 20


 311              		.loc 1 740 0
 312              		.cfi_startproc
 313              		@ args = 0, pretend = 0, frame = 8
 314              		@ frame_needed = 0, uses_anonymous_args = 0
 315              	.LVL29:
 316 0000 30B5     		push	{r4, r5, lr}
 317              		.cfi_def_cfa_offset 12
 318              		.cfi_offset 4, -12
 319              		.cfi_offset 5, -8
 320              		.cfi_offset 14, -4
 321 0002 83B0     		sub	sp, sp, #12
 322              		.cfi_def_cfa_offset 24
 323 0004 0D00     		movs	r5, r1
 741:Generated_Source\PSoC4/CapSense_Structure.c ****     PARAM_ID_STRUCT pData;
 742:Generated_Source\PSoC4/CapSense_Structure.c ****     cystatus result;
 743:Generated_Source\PSoC4/CapSense_Structure.c **** 
 744:Generated_Source\PSoC4/CapSense_Structure.c ****     union
 745:Generated_Source\PSoC4/CapSense_Structure.c ****     {
 746:Generated_Source\PSoC4/CapSense_Structure.c ****         volatile void   const * ptr;
 747:Generated_Source\PSoC4/CapSense_Structure.c ****         volatile uint8  const * ptrUint8;
 748:Generated_Source\PSoC4/CapSense_Structure.c ****         volatile uint16 const * ptrUint16;
 749:Generated_Source\PSoC4/CapSense_Structure.c ****         volatile uint32 const * ptrUint32;
 750:Generated_Source\PSoC4/CapSense_Structure.c ****     } ptrData;
 751:Generated_Source\PSoC4/CapSense_Structure.c **** 
 752:Generated_Source\PSoC4/CapSense_Structure.c ****     result = DsParseParamId(paramId, &pData);
 324              		.loc 1 752 0
 325 0006 6946     		mov	r1, sp
 326              	.LVL30:
 327 0008 FFF7FEFF 		bl	DsParseParamId
 328              	.LVL31:
 329 000c 041E     		subs	r4, r0, #0
 330              	.LVL32:
 753:Generated_Source\PSoC4/CapSense_Structure.c **** 
 754:Generated_Source\PSoC4/CapSense_Structure.c ****     /* Parse and validate paramId */
 755:Generated_Source\PSoC4/CapSense_Structure.c ****     if (CYRET_SUCCESS == result)
 331              		.loc 1 755 0
 332 000e 1ED1     		bne	.L27
 756:Generated_Source\PSoC4/CapSense_Structure.c ****     {
 757:Generated_Source\PSoC4/CapSense_Structure.c ****         /* Get base address of parameter */
 758:Generated_Source\PSoC4/CapSense_Structure.c ****         if (0u == pData.flash)
 333              		.loc 1 758 0
 334 0010 6B46     		mov	r3, sp
 335 0012 5B79     		ldrb	r3, [r3, #5]
 336 0014 002B     		cmp	r3, #0
 337 0016 01D1     		bne	.L28
 759:Generated_Source\PSoC4/CapSense_Structure.c ****         {
 760:Generated_Source\PSoC4/CapSense_Structure.c ****             ptrData.ptr = &CapSense_dsRam;
 338              		.loc 1 760 0
 339 0018 0E4A     		ldr	r2, .L33
 340              	.LVL33:
 341 001a 01E0     		b	.L29
 342              	.L28:
 761:Generated_Source\PSoC4/CapSense_Structure.c ****         }
 762:Generated_Source\PSoC4/CapSense_Structure.c ****         else
 763:Generated_Source\PSoC4/CapSense_Structure.c ****         {
 764:Generated_Source\PSoC4/CapSense_Structure.c ****             ptrData.ptr = &CapSense_dsFlash;
 343              		.loc 1 764 0
ARM GAS  C:\Users\dell\AppData\Local\Temp\ccAx8ClQ.s 			page 21


 344 001c 0E4B     		ldr	r3, .L33+4
 345 001e 1A1D     		adds	r2, r3, #4
 346              	.L29:
 765:Generated_Source\PSoC4/CapSense_Structure.c ****         }
 766:Generated_Source\PSoC4/CapSense_Structure.c **** 
 767:Generated_Source\PSoC4/CapSense_Structure.c ****         /* Add offset to base address */
 768:Generated_Source\PSoC4/CapSense_Structure.c ****         ptrData.ptrUint8 += pData.offset;
 347              		.loc 1 768 0
 348 0020 6B46     		mov	r3, sp
 349 0022 1B88     		ldrh	r3, [r3]
 350              	.LVL34:
 351 0024 D318     		adds	r3, r2, r3
 769:Generated_Source\PSoC4/CapSense_Structure.c **** 
 770:Generated_Source\PSoC4/CapSense_Structure.c ****         /* Read data */
 771:Generated_Source\PSoC4/CapSense_Structure.c ****         if (DS_PARAM_TYPE_UINT8 == pData.type)
 352              		.loc 1 771 0
 353 0026 6A46     		mov	r2, sp
 354              	.LVL35:
 355 0028 D279     		ldrb	r2, [r2, #7]
 356 002a 012A     		cmp	r2, #1
 357 002c 02D1     		bne	.L30
 772:Generated_Source\PSoC4/CapSense_Structure.c ****         {
 773:Generated_Source\PSoC4/CapSense_Structure.c ****             *value = (uint32) (*ptrData.ptrUint8);
 358              		.loc 1 773 0
 359 002e 1B78     		ldrb	r3, [r3]
 360 0030 2B60     		str	r3, [r5]
 361 0032 0CE0     		b	.L27
 362              	.L30:
 774:Generated_Source\PSoC4/CapSense_Structure.c ****         }
 775:Generated_Source\PSoC4/CapSense_Structure.c ****         else if (DS_PARAM_TYPE_UINT16 == pData.type)
 363              		.loc 1 775 0
 364 0034 022A     		cmp	r2, #2
 365 0036 02D1     		bne	.L31
 776:Generated_Source\PSoC4/CapSense_Structure.c ****         {
 777:Generated_Source\PSoC4/CapSense_Structure.c ****             *value = (uint32) (*ptrData.ptrUint16);
 366              		.loc 1 777 0
 367 0038 1B88     		ldrh	r3, [r3]
 368 003a 2B60     		str	r3, [r5]
 369 003c 07E0     		b	.L27
 370              	.L31:
 778:Generated_Source\PSoC4/CapSense_Structure.c ****         }
 779:Generated_Source\PSoC4/CapSense_Structure.c ****         else if (DS_PARAM_TYPE_UINT32 == pData.type)
 371              		.loc 1 779 0
 372 003e 032A     		cmp	r2, #3
 373 0040 02D1     		bne	.L32
 780:Generated_Source\PSoC4/CapSense_Structure.c ****         {
 781:Generated_Source\PSoC4/CapSense_Structure.c ****             *value = *ptrData.ptrUint32;
 374              		.loc 1 781 0
 375 0042 1B68     		ldr	r3, [r3]
 376 0044 2B60     		str	r3, [r5]
 377 0046 02E0     		b	.L27
 378              	.L32:
 782:Generated_Source\PSoC4/CapSense_Structure.c ****         }
 783:Generated_Source\PSoC4/CapSense_Structure.c ****         else
 784:Generated_Source\PSoC4/CapSense_Structure.c ****         {
 785:Generated_Source\PSoC4/CapSense_Structure.c ****             /* Parameter comes here already validated. */
 786:Generated_Source\PSoC4/CapSense_Structure.c ****             CYASSERT(0u);
ARM GAS  C:\Users\dell\AppData\Local\Temp\ccAx8ClQ.s 			page 22


 379              		.loc 1 786 0 discriminator 1
 380 0048 0020     		movs	r0, #0
 381              	.LVL36:
 382 004a FFF7FEFF 		bl	CyHalt
 383              	.LVL37:
 384              	.L27:
 787:Generated_Source\PSoC4/CapSense_Structure.c ****         }
 788:Generated_Source\PSoC4/CapSense_Structure.c ****     }
 789:Generated_Source\PSoC4/CapSense_Structure.c **** 
 790:Generated_Source\PSoC4/CapSense_Structure.c ****     return result;
 791:Generated_Source\PSoC4/CapSense_Structure.c **** }
 385              		.loc 1 791 0
 386 004e 2000     		movs	r0, r4
 387 0050 03B0     		add	sp, sp, #12
 388              		@ sp needed
 389              	.LVL38:
 390              	.LVL39:
 391 0052 30BD     		pop	{r4, r5, pc}
 392              	.L34:
 393              		.align	2
 394              	.L33:
 395 0054 00000000 		.word	CapSense_dsRam
 396 0058 00000000 		.word	.LANCHOR0
 397              		.cfi_endproc
 398              	.LFE4:
 399              		.size	CapSense_GetParam, .-CapSense_GetParam
 400              		.section	.text.CapSense_SetParam,"ax",%progbits
 401              		.align	2
 402              		.global	CapSense_SetParam
 403              		.code	16
 404              		.thumb_func
 405              		.type	CapSense_SetParam, %function
 406              	CapSense_SetParam:
 407              	.LFB5:
 792:Generated_Source\PSoC4/CapSense_Structure.c **** 
 793:Generated_Source\PSoC4/CapSense_Structure.c **** 
 794:Generated_Source\PSoC4/CapSense_Structure.c **** /*******************************************************************************
 795:Generated_Source\PSoC4/CapSense_Structure.c **** * Function Name: CapSense_SetParam
 796:Generated_Source\PSoC4/CapSense_Structure.c **** ****************************************************************************//**
 797:Generated_Source\PSoC4/CapSense_Structure.c **** *
 798:Generated_Source\PSoC4/CapSense_Structure.c **** * \brief
 799:Generated_Source\PSoC4/CapSense_Structure.c **** *  Sets a new value for the specified parameter in the \ref group_structures.
 800:Generated_Source\PSoC4/CapSense_Structure.c **** *
 801:Generated_Source\PSoC4/CapSense_Structure.c **** * \details
 802:Generated_Source\PSoC4/CapSense_Structure.c **** *  This function sets the value of the specified parameter by the paramId
 803:Generated_Source\PSoC4/CapSense_Structure.c **** *  argument. The paramId for each register is available in the
 804:Generated_Source\PSoC4/CapSense_Structure.c **** *  CapSense RegisterMap header file as
 805:Generated_Source\PSoC4/CapSense_Structure.c **** *  CapSense_<ParameterName>_PARAM_ID. The paramId is a special
 806:Generated_Source\PSoC4/CapSense_Structure.c **** *  enumerated value generated by the customizer. The format of paramId is as
 807:Generated_Source\PSoC4/CapSense_Structure.c **** *  follows:
 808:Generated_Source\PSoC4/CapSense_Structure.c **** *    1. [ byte 3 byte 2 byte 1 byte 0 ]
 809:Generated_Source\PSoC4/CapSense_Structure.c **** *    2. [ TTWFCCCC UIIIIIII MMMMMMMM LLLLLLLL ]
 810:Generated_Source\PSoC4/CapSense_Structure.c **** *    3. T - encodes the parameter type:
 811:Generated_Source\PSoC4/CapSense_Structure.c **** *      - 01b: uint8
 812:Generated_Source\PSoC4/CapSense_Structure.c **** *      - 10b: uint16
 813:Generated_Source\PSoC4/CapSense_Structure.c **** *      - 11b: uint32
 814:Generated_Source\PSoC4/CapSense_Structure.c **** *    4. W - indicates whether the parameter is writable:
ARM GAS  C:\Users\dell\AppData\Local\Temp\ccAx8ClQ.s 			page 23


 815:Generated_Source\PSoC4/CapSense_Structure.c **** *      - 0: ReadOnly
 816:Generated_Source\PSoC4/CapSense_Structure.c **** *      - 1: Read/Write
 817:Generated_Source\PSoC4/CapSense_Structure.c **** *    5. C - 4 bit CRC (X^3 + 1) of the whole paramId word, the C bits are
 818:Generated_Source\PSoC4/CapSense_Structure.c **** *       filled with 0s when the CRC is calculated.
 819:Generated_Source\PSoC4/CapSense_Structure.c **** *    6. U - indicates if the parameter affects the RAM Widget Object CRC.
 820:Generated_Source\PSoC4/CapSense_Structure.c **** *    7. I - specifies that the widgetId parameter belongs to
 821:Generated_Source\PSoC4/CapSense_Structure.c **** *    8. M,L - the parameter offset MSB and LSB accordingly in:
 822:Generated_Source\PSoC4/CapSense_Structure.c **** *      - Flash Data Structure if W bit is 0.
 823:Generated_Source\PSoC4/CapSense_Structure.c **** *      - RAM Data Structure if W bit is 1.
 824:Generated_Source\PSoC4/CapSense_Structure.c **** *
 825:Generated_Source\PSoC4/CapSense_Structure.c **** *  Refer to the \ref group_structures section for details of the data structure
 826:Generated_Source\PSoC4/CapSense_Structure.c **** *  organization and examples of its register access.
 827:Generated_Source\PSoC4/CapSense_Structure.c **** *
 828:Generated_Source\PSoC4/CapSense_Structure.c **** *  This function writes specified value into the desired register without
 829:Generated_Source\PSoC4/CapSense_Structure.c **** *  other registers update. It is application layer responsibility to keep all
 830:Generated_Source\PSoC4/CapSense_Structure.c **** *  the data structure registers aligned. Repeated call of
 831:Generated_Source\PSoC4/CapSense_Structure.c **** *  CapSense_Start() function helps aligning dependent register values.
 832:Generated_Source\PSoC4/CapSense_Structure.c **** *
 833:Generated_Source\PSoC4/CapSense_Structure.c **** * \param paramId
 834:Generated_Source\PSoC4/CapSense_Structure.c **** *  Specifies the ID of parameter to set its value.
 835:Generated_Source\PSoC4/CapSense_Structure.c **** *  A macro for the parameter ID can be found in the CapSense RegisterMap header
 836:Generated_Source\PSoC4/CapSense_Structure.c **** *  file defined as CapSense_<ParameterName>_PARAM_ID.
 837:Generated_Source\PSoC4/CapSense_Structure.c **** 
 838:Generated_Source\PSoC4/CapSense_Structure.c **** * \param value
 839:Generated_Source\PSoC4/CapSense_Structure.c **** *  Specifies the new parameter's value.
 840:Generated_Source\PSoC4/CapSense_Structure.c **** *
 841:Generated_Source\PSoC4/CapSense_Structure.c **** * \return
 842:Generated_Source\PSoC4/CapSense_Structure.c **** *  Returns the status of the operation:
 843:Generated_Source\PSoC4/CapSense_Structure.c **** *    - CYRET_SUCCESS - The operation is successfully completed.
 844:Generated_Source\PSoC4/CapSense_Structure.c **** *    - CYRET_BAD_PARAM - The input parameter is invalid.
 845:Generated_Source\PSoC4/CapSense_Structure.c **** *
 846:Generated_Source\PSoC4/CapSense_Structure.c **** *******************************************************************************/
 847:Generated_Source\PSoC4/CapSense_Structure.c **** cystatus CapSense_SetParam(uint32 paramId, uint32 value)
 848:Generated_Source\PSoC4/CapSense_Structure.c **** {
 408              		.loc 1 848 0
 409              		.cfi_startproc
 410              		@ args = 0, pretend = 0, frame = 8
 411              		@ frame_needed = 0, uses_anonymous_args = 0
 412              	.LVL40:
 413 0000 30B5     		push	{r4, r5, lr}
 414              		.cfi_def_cfa_offset 12
 415              		.cfi_offset 4, -12
 416              		.cfi_offset 5, -8
 417              		.cfi_offset 14, -4
 418 0002 83B0     		sub	sp, sp, #12
 419              		.cfi_def_cfa_offset 24
 420 0004 0D00     		movs	r5, r1
 849:Generated_Source\PSoC4/CapSense_Structure.c ****     cystatus result;
 850:Generated_Source\PSoC4/CapSense_Structure.c ****     PARAM_ID_STRUCT pData;
 851:Generated_Source\PSoC4/CapSense_Structure.c **** 
 852:Generated_Source\PSoC4/CapSense_Structure.c ****     union
 853:Generated_Source\PSoC4/CapSense_Structure.c ****     {
 854:Generated_Source\PSoC4/CapSense_Structure.c ****         volatile void   * ptr;
 855:Generated_Source\PSoC4/CapSense_Structure.c ****         volatile uint8  * ptrUint8;
 856:Generated_Source\PSoC4/CapSense_Structure.c ****         volatile uint16 * ptrUint16;
 857:Generated_Source\PSoC4/CapSense_Structure.c ****         volatile uint32 * ptrUint32;
 858:Generated_Source\PSoC4/CapSense_Structure.c ****     } ptrData;
ARM GAS  C:\Users\dell\AppData\Local\Temp\ccAx8ClQ.s 			page 24


 859:Generated_Source\PSoC4/CapSense_Structure.c **** 
 860:Generated_Source\PSoC4/CapSense_Structure.c ****     result = DsParseParamId(paramId, &pData);
 421              		.loc 1 860 0
 422 0006 6946     		mov	r1, sp
 423              	.LVL41:
 424 0008 FFF7FEFF 		bl	DsParseParamId
 425              	.LVL42:
 426 000c 041E     		subs	r4, r0, #0
 427              	.LVL43:
 861:Generated_Source\PSoC4/CapSense_Structure.c **** 
 862:Generated_Source\PSoC4/CapSense_Structure.c ****     /* verify if parameter is writable */
 863:Generated_Source\PSoC4/CapSense_Structure.c ****     if (CYRET_SUCCESS == result)
 428              		.loc 1 863 0
 429 000e 04D1     		bne	.L36
 864:Generated_Source\PSoC4/CapSense_Structure.c ****     {
 865:Generated_Source\PSoC4/CapSense_Structure.c ****         if (0u == pData.rw)
 430              		.loc 1 865 0
 431 0010 6B46     		mov	r3, sp
 432 0012 9B79     		ldrb	r3, [r3, #6]
 433 0014 002B     		cmp	r3, #0
 434 0016 00D1     		bne	.L36
 866:Generated_Source\PSoC4/CapSense_Structure.c ****         {
 867:Generated_Source\PSoC4/CapSense_Structure.c ****             result = CYRET_BAD_PARAM;
 435              		.loc 1 867 0
 436 0018 0134     		adds	r4, r4, #1
 437              	.L36:
 438              	.LVL44:
 868:Generated_Source\PSoC4/CapSense_Structure.c ****         }
 869:Generated_Source\PSoC4/CapSense_Structure.c ****     }
 870:Generated_Source\PSoC4/CapSense_Structure.c **** 
 871:Generated_Source\PSoC4/CapSense_Structure.c ****     /* Parse and validate paramId */
 872:Generated_Source\PSoC4/CapSense_Structure.c ****     if (CYRET_SUCCESS == result)
 439              		.loc 1 872 0
 440 001a 002C     		cmp	r4, #0
 441 001c 16D1     		bne	.L37
 873:Generated_Source\PSoC4/CapSense_Structure.c ****     {
 874:Generated_Source\PSoC4/CapSense_Structure.c ****         /* Get base address of parameter */
 875:Generated_Source\PSoC4/CapSense_Structure.c ****         ptrData.ptr = &CapSense_dsRam;
 876:Generated_Source\PSoC4/CapSense_Structure.c **** 
 877:Generated_Source\PSoC4/CapSense_Structure.c ****         /* Add offset to base address */
 878:Generated_Source\PSoC4/CapSense_Structure.c ****         ptrData.ptrUint8 += pData.offset;
 442              		.loc 1 878 0
 443 001e 6B46     		mov	r3, sp
 444 0020 1A88     		ldrh	r2, [r3]
 445 0022 0C4B     		ldr	r3, .L42
 446 0024 D318     		adds	r3, r2, r3
 879:Generated_Source\PSoC4/CapSense_Structure.c **** 
 880:Generated_Source\PSoC4/CapSense_Structure.c ****         /* Write data */
 881:Generated_Source\PSoC4/CapSense_Structure.c ****         if (DS_PARAM_TYPE_UINT8 == pData.type)
 447              		.loc 1 881 0
 448 0026 6A46     		mov	r2, sp
 449 0028 D279     		ldrb	r2, [r2, #7]
 450 002a 012A     		cmp	r2, #1
 451 002c 02D1     		bne	.L38
 882:Generated_Source\PSoC4/CapSense_Structure.c ****         {
 883:Generated_Source\PSoC4/CapSense_Structure.c ****             *ptrData.ptrUint8 = LO8(value);
 452              		.loc 1 883 0
ARM GAS  C:\Users\dell\AppData\Local\Temp\ccAx8ClQ.s 			page 25


 453 002e EDB2     		uxtb	r5, r5
 454              	.LVL45:
 455 0030 1D70     		strb	r5, [r3]
 456 0032 0BE0     		b	.L37
 457              	.LVL46:
 458              	.L38:
 884:Generated_Source\PSoC4/CapSense_Structure.c ****         }
 885:Generated_Source\PSoC4/CapSense_Structure.c ****         else if (DS_PARAM_TYPE_UINT16 == pData.type)
 459              		.loc 1 885 0
 460 0034 022A     		cmp	r2, #2
 461 0036 02D1     		bne	.L39
 886:Generated_Source\PSoC4/CapSense_Structure.c ****         {
 887:Generated_Source\PSoC4/CapSense_Structure.c ****             *ptrData.ptrUint16 = LO16(value);
 462              		.loc 1 887 0
 463 0038 ADB2     		uxth	r5, r5
 464              	.LVL47:
 465 003a 1D80     		strh	r5, [r3]
 466 003c 06E0     		b	.L37
 467              	.LVL48:
 468              	.L39:
 888:Generated_Source\PSoC4/CapSense_Structure.c ****         }
 889:Generated_Source\PSoC4/CapSense_Structure.c ****         else if (DS_PARAM_TYPE_UINT32 == pData.type)
 469              		.loc 1 889 0
 470 003e 032A     		cmp	r2, #3
 471 0040 01D1     		bne	.L40
 890:Generated_Source\PSoC4/CapSense_Structure.c ****         {
 891:Generated_Source\PSoC4/CapSense_Structure.c ****             *ptrData.ptrUint32 = value;
 472              		.loc 1 891 0
 473 0042 1D60     		str	r5, [r3]
 474 0044 02E0     		b	.L37
 475              	.L40:
 892:Generated_Source\PSoC4/CapSense_Structure.c ****         }
 893:Generated_Source\PSoC4/CapSense_Structure.c ****         else
 894:Generated_Source\PSoC4/CapSense_Structure.c ****         {
 895:Generated_Source\PSoC4/CapSense_Structure.c ****             /* Parameter comes here already validated. */
 896:Generated_Source\PSoC4/CapSense_Structure.c ****             CYASSERT(0u);
 476              		.loc 1 896 0 discriminator 1
 477 0046 0020     		movs	r0, #0
 478 0048 FFF7FEFF 		bl	CyHalt
 479              	.LVL49:
 480              	.L37:
 897:Generated_Source\PSoC4/CapSense_Structure.c ****         }
 898:Generated_Source\PSoC4/CapSense_Structure.c **** 
 899:Generated_Source\PSoC4/CapSense_Structure.c ****         #if (CapSense_ENABLE == (CapSense_TST_WDGT_CRC_EN || CapSense_TST_GLOBAL_CRC_EN))
 900:Generated_Source\PSoC4/CapSense_Structure.c ****             /* Update widget or global CRC if self-test is enabled and parameter affects it */
 901:Generated_Source\PSoC4/CapSense_Structure.c ****             if (0u != pData.affectsCrc)
 902:Generated_Source\PSoC4/CapSense_Structure.c ****             {
 903:Generated_Source\PSoC4/CapSense_Structure.c ****                 if ((ptrData.ptrUint16 >= &CapSense_dsRam.csd0Config) &&
 904:Generated_Source\PSoC4/CapSense_Structure.c ****                     (ptrData.ptrUint16 <  &CapSense_dsRam.glbCrc))
 905:Generated_Source\PSoC4/CapSense_Structure.c ****                 {
 906:Generated_Source\PSoC4/CapSense_Structure.c **** 
 907:Generated_Source\PSoC4/CapSense_Structure.c ****                     #if (CapSense_ENABLE == CapSense_TST_GLOBAL_CRC_EN)
 908:Generated_Source\PSoC4/CapSense_Structure.c ****                         CapSense_DsUpdateGlobalCrc();
 909:Generated_Source\PSoC4/CapSense_Structure.c ****                     #endif /* (CapSense_ENABLE == CapSense_TST_GLOBAL_CRC_EN) */
 910:Generated_Source\PSoC4/CapSense_Structure.c **** 
 911:Generated_Source\PSoC4/CapSense_Structure.c ****                 }
 912:Generated_Source\PSoC4/CapSense_Structure.c ****                 else
ARM GAS  C:\Users\dell\AppData\Local\Temp\ccAx8ClQ.s 			page 26


 913:Generated_Source\PSoC4/CapSense_Structure.c ****                 {
 914:Generated_Source\PSoC4/CapSense_Structure.c ****                     #if (CapSense_ENABLE == CapSense_TST_WDGT_CRC_EN)
 915:Generated_Source\PSoC4/CapSense_Structure.c ****                         CapSense_DsUpdateWidgetCrc((uint32)pData.widgetId);
 916:Generated_Source\PSoC4/CapSense_Structure.c ****                     #endif /* (CapSense_ENABLE == CapSense_TST_WDGT_CRC_EN) */
 917:Generated_Source\PSoC4/CapSense_Structure.c ****                 }
 918:Generated_Source\PSoC4/CapSense_Structure.c ****             }
 919:Generated_Source\PSoC4/CapSense_Structure.c ****         #endif /* (CapSense_ENABLE == (CapSense_TST_WDGT_CRC_EN || CapSense_TST_GLOBAL_CRC_EN)) */
 920:Generated_Source\PSoC4/CapSense_Structure.c ****     }
 921:Generated_Source\PSoC4/CapSense_Structure.c **** 
 922:Generated_Source\PSoC4/CapSense_Structure.c ****     return result;
 923:Generated_Source\PSoC4/CapSense_Structure.c **** }
 481              		.loc 1 923 0
 482 004c 2000     		movs	r0, r4
 483 004e 03B0     		add	sp, sp, #12
 484              		@ sp needed
 485              	.LVL50:
 486 0050 30BD     		pop	{r4, r5, pc}
 487              	.L43:
 488 0052 C046     		.align	2
 489              	.L42:
 490 0054 00000000 		.word	CapSense_dsRam
 491              		.cfi_endproc
 492              	.LFE5:
 493              		.size	CapSense_SetParam, .-CapSense_SetParam
 494              		.section	.text.CapSense_IsAnyWidgetActive,"ax",%progbits
 495              		.align	2
 496              		.global	CapSense_IsAnyWidgetActive
 497              		.code	16
 498              		.thumb_func
 499              		.type	CapSense_IsAnyWidgetActive, %function
 500              	CapSense_IsAnyWidgetActive:
 501              	.LFB6:
 924:Generated_Source\PSoC4/CapSense_Structure.c **** 
 925:Generated_Source\PSoC4/CapSense_Structure.c **** /*******************************************************************************
 926:Generated_Source\PSoC4/CapSense_Structure.c **** * Function Name: CapSense_IsAnyWidgetActive
 927:Generated_Source\PSoC4/CapSense_Structure.c **** ****************************************************************************//**
 928:Generated_Source\PSoC4/CapSense_Structure.c **** *
 929:Generated_Source\PSoC4/CapSense_Structure.c **** * \brief
 930:Generated_Source\PSoC4/CapSense_Structure.c **** *  Reports if any widget has detected a touch.
 931:Generated_Source\PSoC4/CapSense_Structure.c **** *
 932:Generated_Source\PSoC4/CapSense_Structure.c **** * \details
 933:Generated_Source\PSoC4/CapSense_Structure.c **** *  This function reports if any widget has detected a touch or not by extracting
 934:Generated_Source\PSoC4/CapSense_Structure.c **** *  information from the wdgtStatus registers
 935:Generated_Source\PSoC4/CapSense_Structure.c **** *  (CapSense_WDGT_STATUS<X>_VALUE). This function does not process a
 936:Generated_Source\PSoC4/CapSense_Structure.c **** *  widget but extracts processed results from the \ref group_structures.
 937:Generated_Source\PSoC4/CapSense_Structure.c **** *
 938:Generated_Source\PSoC4/CapSense_Structure.c **** * \return
 939:Generated_Source\PSoC4/CapSense_Structure.c **** *   Returns the touch detection status of all the widgets:
 940:Generated_Source\PSoC4/CapSense_Structure.c **** *     - Zero - No touch is detected in all the widgets or sensors.
 941:Generated_Source\PSoC4/CapSense_Structure.c **** *     - Non-zero - At least one widget or sensor detected a touch.
 942:Generated_Source\PSoC4/CapSense_Structure.c **** *
 943:Generated_Source\PSoC4/CapSense_Structure.c **** *******************************************************************************/
 944:Generated_Source\PSoC4/CapSense_Structure.c **** uint32 CapSense_IsAnyWidgetActive(void)
 945:Generated_Source\PSoC4/CapSense_Structure.c **** {
 502              		.loc 1 945 0
 503              		.cfi_startproc
 504              		@ args = 0, pretend = 0, frame = 0
ARM GAS  C:\Users\dell\AppData\Local\Temp\ccAx8ClQ.s 			page 27


 505              		@ frame_needed = 0, uses_anonymous_args = 0
 506              		@ link register save eliminated.
 507              	.LVL51:
 946:Generated_Source\PSoC4/CapSense_Structure.c ****     uint32 result = 0Lu;
 947:Generated_Source\PSoC4/CapSense_Structure.c ****     uint32 wdWord;
 948:Generated_Source\PSoC4/CapSense_Structure.c **** 
 949:Generated_Source\PSoC4/CapSense_Structure.c ****     for (wdWord = CapSense_WDGT_STATUS_WORDS; wdWord-- > 0u;)
 508              		.loc 1 949 0
 509 0000 0123     		movs	r3, #1
 946:Generated_Source\PSoC4/CapSense_Structure.c ****     uint32 result = 0Lu;
 510              		.loc 1 946 0
 511 0002 0020     		movs	r0, #0
 512              		.loc 1 949 0
 513 0004 06E0     		b	.L45
 514              	.LVL52:
 515              	.L46:
 950:Generated_Source\PSoC4/CapSense_Structure.c ****     {
 951:Generated_Source\PSoC4/CapSense_Structure.c ****         result |= CapSense_dsRam.wdgtStatus[wdWord];
 516              		.loc 1 951 0
 517 0006 131D     		adds	r3, r2, #4
 518 0008 9B00     		lsls	r3, r3, #2
 519 000a 0449     		ldr	r1, .L47
 520 000c CB18     		adds	r3, r1, r3
 521 000e 5B68     		ldr	r3, [r3, #4]
 522 0010 1843     		orrs	r0, r3
 523              	.LVL53:
 949:Generated_Source\PSoC4/CapSense_Structure.c ****     {
 524              		.loc 1 949 0
 525 0012 1300     		movs	r3, r2
 526              	.LVL54:
 527              	.L45:
 949:Generated_Source\PSoC4/CapSense_Structure.c ****     {
 528              		.loc 1 949 0 is_stmt 0 discriminator 1
 529 0014 5A1E     		subs	r2, r3, #1
 530              	.LVL55:
 531 0016 002B     		cmp	r3, #0
 532 0018 F5D1     		bne	.L46
 952:Generated_Source\PSoC4/CapSense_Structure.c ****     }
 953:Generated_Source\PSoC4/CapSense_Structure.c **** 
 954:Generated_Source\PSoC4/CapSense_Structure.c ****     return result;
 955:Generated_Source\PSoC4/CapSense_Structure.c **** }
 533              		.loc 1 955 0 is_stmt 1
 534              		@ sp needed
 535 001a 7047     		bx	lr
 536              	.L48:
 537              		.align	2
 538              	.L47:
 539 001c 00000000 		.word	CapSense_dsRam
 540              		.cfi_endproc
 541              	.LFE6:
 542              		.size	CapSense_IsAnyWidgetActive, .-CapSense_IsAnyWidgetActive
 543              		.section	.text.CapSense_IsWidgetActive,"ax",%progbits
 544              		.align	2
 545              		.global	CapSense_IsWidgetActive
 546              		.code	16
 547              		.thumb_func
 548              		.type	CapSense_IsWidgetActive, %function
ARM GAS  C:\Users\dell\AppData\Local\Temp\ccAx8ClQ.s 			page 28


 549              	CapSense_IsWidgetActive:
 550              	.LFB7:
 956:Generated_Source\PSoC4/CapSense_Structure.c **** 
 957:Generated_Source\PSoC4/CapSense_Structure.c **** 
 958:Generated_Source\PSoC4/CapSense_Structure.c **** /*******************************************************************************
 959:Generated_Source\PSoC4/CapSense_Structure.c **** * Function Name: CapSense_IsWidgetActive
 960:Generated_Source\PSoC4/CapSense_Structure.c **** ****************************************************************************//**
 961:Generated_Source\PSoC4/CapSense_Structure.c **** *
 962:Generated_Source\PSoC4/CapSense_Structure.c **** * \brief
 963:Generated_Source\PSoC4/CapSense_Structure.c **** *  Reports if the specified widget detects a touch on any of its sensors.
 964:Generated_Source\PSoC4/CapSense_Structure.c **** *
 965:Generated_Source\PSoC4/CapSense_Structure.c **** * \details
 966:Generated_Source\PSoC4/CapSense_Structure.c **** *  This function reports if the specified widget has detected a touch or not by
 967:Generated_Source\PSoC4/CapSense_Structure.c **** *  extracting information from the wdgtStatus registers
 968:Generated_Source\PSoC4/CapSense_Structure.c **** *  (CapSense_WDGT_STATUS<X>_VALUE). This function does not process the
 969:Generated_Source\PSoC4/CapSense_Structure.c **** *  widget but extracts processed results from the \ref group_structures.
 970:Generated_Source\PSoC4/CapSense_Structure.c **** *
 971:Generated_Source\PSoC4/CapSense_Structure.c **** * \param widgetId
 972:Generated_Source\PSoC4/CapSense_Structure.c **** *  Specifies the ID number of the widget to get its status.
 973:Generated_Source\PSoC4/CapSense_Structure.c **** *  A macro for the widget ID can be found in the CapSense Configuration header
 974:Generated_Source\PSoC4/CapSense_Structure.c **** *  file defined as CapSense_<WidgetName>_WDGT_ID.
 975:Generated_Source\PSoC4/CapSense_Structure.c **** *
 976:Generated_Source\PSoC4/CapSense_Structure.c **** * \return
 977:Generated_Source\PSoC4/CapSense_Structure.c **** *  Returns the touch detection status of the specified widgets:
 978:Generated_Source\PSoC4/CapSense_Structure.c **** *    - Zero - No touch is detected in the specified widget or a wrong widgetId
 979:Generated_Source\PSoC4/CapSense_Structure.c **** *      is specified.
 980:Generated_Source\PSoC4/CapSense_Structure.c **** *    - Non-zero if at least one sensor of the specified widget is active, i.e.
 981:Generated_Source\PSoC4/CapSense_Structure.c **** *      a touch is detected.
 982:Generated_Source\PSoC4/CapSense_Structure.c **** *
 983:Generated_Source\PSoC4/CapSense_Structure.c **** *******************************************************************************/
 984:Generated_Source\PSoC4/CapSense_Structure.c **** uint32 CapSense_IsWidgetActive(uint32 widgetId)
 985:Generated_Source\PSoC4/CapSense_Structure.c **** {
 551              		.loc 1 985 0
 552              		.cfi_startproc
 553              		@ args = 0, pretend = 0, frame = 0
 554              		@ frame_needed = 0, uses_anonymous_args = 0
 555              		@ link register save eliminated.
 556              	.LVL56:
 986:Generated_Source\PSoC4/CapSense_Structure.c ****     uint32 result = 0Lu;
 987:Generated_Source\PSoC4/CapSense_Structure.c **** 
 988:Generated_Source\PSoC4/CapSense_Structure.c ****     if (widgetId < CapSense_TOTAL_WIDGETS)
 557              		.loc 1 988 0
 558 0000 0328     		cmp	r0, #3
 559 0002 0BD8     		bhi	.L51
 989:Generated_Source\PSoC4/CapSense_Structure.c ****     {
 990:Generated_Source\PSoC4/CapSense_Structure.c ****         result = CapSense_GET_WIDGET_ACTIVE_STATUS(widgetId);
 560              		.loc 1 990 0
 561 0004 1F23     		movs	r3, #31
 562 0006 0340     		ands	r3, r0
 563 0008 0122     		movs	r2, #1
 564 000a 9A40     		lsls	r2, r2, r3
 565 000c 4009     		lsrs	r0, r0, #5
 566              	.LVL57:
 567 000e 031D     		adds	r3, r0, #4
 568 0010 9B00     		lsls	r3, r3, #2
 569 0012 0348     		ldr	r0, .L52
 570 0014 C318     		adds	r3, r0, r3
ARM GAS  C:\Users\dell\AppData\Local\Temp\ccAx8ClQ.s 			page 29


 571 0016 5868     		ldr	r0, [r3, #4]
 572 0018 1040     		ands	r0, r2
 573              	.LVL58:
 574 001a 00E0     		b	.L50
 575              	.LVL59:
 576              	.L51:
 986:Generated_Source\PSoC4/CapSense_Structure.c ****     uint32 result = 0Lu;
 577              		.loc 1 986 0
 578 001c 0020     		movs	r0, #0
 579              	.LVL60:
 580              	.L50:
 991:Generated_Source\PSoC4/CapSense_Structure.c ****     }
 992:Generated_Source\PSoC4/CapSense_Structure.c ****     return result;
 993:Generated_Source\PSoC4/CapSense_Structure.c **** }
 581              		.loc 1 993 0
 582              		@ sp needed
 583 001e 7047     		bx	lr
 584              	.L53:
 585              		.align	2
 586              	.L52:
 587 0020 00000000 		.word	CapSense_dsRam
 588              		.cfi_endproc
 589              	.LFE7:
 590              		.size	CapSense_IsWidgetActive, .-CapSense_IsWidgetActive
 591              		.section	.text.CapSense_IsSensorActive,"ax",%progbits
 592              		.align	2
 593              		.global	CapSense_IsSensorActive
 594              		.code	16
 595              		.thumb_func
 596              		.type	CapSense_IsSensorActive, %function
 597              	CapSense_IsSensorActive:
 598              	.LFB8:
 994:Generated_Source\PSoC4/CapSense_Structure.c **** 
 995:Generated_Source\PSoC4/CapSense_Structure.c **** 
 996:Generated_Source\PSoC4/CapSense_Structure.c **** /*******************************************************************************
 997:Generated_Source\PSoC4/CapSense_Structure.c **** * Function Name: CapSense_IsSensorActive
 998:Generated_Source\PSoC4/CapSense_Structure.c **** ****************************************************************************//**
 999:Generated_Source\PSoC4/CapSense_Structure.c **** *
1000:Generated_Source\PSoC4/CapSense_Structure.c **** * \brief
1001:Generated_Source\PSoC4/CapSense_Structure.c **** *  Reports if the specified sensor in the widget detects a touch.
1002:Generated_Source\PSoC4/CapSense_Structure.c **** *
1003:Generated_Source\PSoC4/CapSense_Structure.c **** * \details
1004:Generated_Source\PSoC4/CapSense_Structure.c **** *  This function reports if the specified sensor in the widget has detected a
1005:Generated_Source\PSoC4/CapSense_Structure.c **** *  touch or not by extracting information from the wdgtStatus registers
1006:Generated_Source\PSoC4/CapSense_Structure.c **** *  (CapSense_WDGT_STATUS<X>_VALUE). This function does not process the
1007:Generated_Source\PSoC4/CapSense_Structure.c **** *  widget or sensor but extracts processed results from the \ref group_structures.
1008:Generated_Source\PSoC4/CapSense_Structure.c **** *
1009:Generated_Source\PSoC4/CapSense_Structure.c **** *  For proximity sensors, this function returns the proximity detection status. To
1010:Generated_Source\PSoC4/CapSense_Structure.c **** *  get the finger touch status of proximity sensors, use the
1011:Generated_Source\PSoC4/CapSense_Structure.c **** *  CapSense_IsProximitySensorActive() function.
1012:Generated_Source\PSoC4/CapSense_Structure.c **** *
1013:Generated_Source\PSoC4/CapSense_Structure.c **** * \param widgetId
1014:Generated_Source\PSoC4/CapSense_Structure.c **** *  Specifies the ID number of the widget.
1015:Generated_Source\PSoC4/CapSense_Structure.c **** *  A macro for the widget ID can be found in the CapSense Configuration header
1016:Generated_Source\PSoC4/CapSense_Structure.c **** *  file defined as CapSense_<WidgetName>_WDGT_ID.
1017:Generated_Source\PSoC4/CapSense_Structure.c **** 
1018:Generated_Source\PSoC4/CapSense_Structure.c **** * \param sensorId
ARM GAS  C:\Users\dell\AppData\Local\Temp\ccAx8ClQ.s 			page 30


1019:Generated_Source\PSoC4/CapSense_Structure.c **** *  Specifies the ID number of the sensor within the widget to get its touch
1020:Generated_Source\PSoC4/CapSense_Structure.c **** *  detection status.
1021:Generated_Source\PSoC4/CapSense_Structure.c **** *  A macro for the sensor ID within the specified widget can be found in the
1022:Generated_Source\PSoC4/CapSense_Structure.c **** *  CapSense Configuration header file defined as
1023:Generated_Source\PSoC4/CapSense_Structure.c **** *  CapSense_<WidgetName>_SNS<SensorNumber>_ID.
1024:Generated_Source\PSoC4/CapSense_Structure.c **** *
1025:Generated_Source\PSoC4/CapSense_Structure.c **** * \return
1026:Generated_Source\PSoC4/CapSense_Structure.c **** *  Returns the touch detection status of the specified sensor / widget:
1027:Generated_Source\PSoC4/CapSense_Structure.c **** *    - Zero if no touch is detected in the specified sensor / widget or a wrong
1028:Generated_Source\PSoC4/CapSense_Structure.c **** *      widget ID / sensor ID is specified.
1029:Generated_Source\PSoC4/CapSense_Structure.c **** *    - Non-zero if the specified sensor is active i.e. touch is detected. If the
1030:Generated_Source\PSoC4/CapSense_Structure.c **** *      specific sensor belongs to a proximity widget, the proximity detection
1031:Generated_Source\PSoC4/CapSense_Structure.c **** *      status is returned.
1032:Generated_Source\PSoC4/CapSense_Structure.c **** *
1033:Generated_Source\PSoC4/CapSense_Structure.c **** *******************************************************************************/
1034:Generated_Source\PSoC4/CapSense_Structure.c **** uint32 CapSense_IsSensorActive(uint32 widgetId, uint32 sensorId)
1035:Generated_Source\PSoC4/CapSense_Structure.c **** {
 599              		.loc 1 1035 0
 600              		.cfi_startproc
 601              		@ args = 0, pretend = 0, frame = 0
 602              		@ frame_needed = 0, uses_anonymous_args = 0
 603              		@ link register save eliminated.
 604              	.LVL61:
1036:Generated_Source\PSoC4/CapSense_Structure.c ****     uint32 result = 0Lu;
1037:Generated_Source\PSoC4/CapSense_Structure.c **** 
1038:Generated_Source\PSoC4/CapSense_Structure.c ****     if ((widgetId < CapSense_TOTAL_WIDGETS) &&
 605              		.loc 1 1038 0
 606 0000 0328     		cmp	r0, #3
 607 0002 0ED8     		bhi	.L56
1039:Generated_Source\PSoC4/CapSense_Structure.c ****         (sensorId < CapSense_GET_SENSOR_COUNT(widgetId)))
 608              		.loc 1 1039 0 discriminator 1
 609 0004 C200     		lsls	r2, r0, #3
 610 0006 121A     		subs	r2, r2, r0
 611 0008 9300     		lsls	r3, r2, #2
 612 000a 084A     		ldr	r2, .L58
 613 000c D318     		adds	r3, r2, r3
 614 000e 9B8B     		ldrh	r3, [r3, #28]
1038:Generated_Source\PSoC4/CapSense_Structure.c ****         (sensorId < CapSense_GET_SENSOR_COUNT(widgetId)))
 615              		.loc 1 1038 0 discriminator 1
 616 0010 8B42     		cmp	r3, r1
 617 0012 08D9     		bls	.L57
1040:Generated_Source\PSoC4/CapSense_Structure.c ****     {
1041:Generated_Source\PSoC4/CapSense_Structure.c ****         #if (CapSense_ENABLE == CapSense_PROXIMITY_WIDGET_EN)
1042:Generated_Source\PSoC4/CapSense_Structure.c ****             if (CapSense_WD_PROXIMITY_E ==
1043:Generated_Source\PSoC4/CapSense_Structure.c ****                 (CapSense_WD_TYPE_ENUM)CapSense_dsFlash.wdgtArray[widgetId].wdgtType)
1044:Generated_Source\PSoC4/CapSense_Structure.c ****             {
1045:Generated_Source\PSoC4/CapSense_Structure.c ****                 sensorId = CapSense_PROX_STS_OFFSET(sensorId);
1046:Generated_Source\PSoC4/CapSense_Structure.c ****             }
1047:Generated_Source\PSoC4/CapSense_Structure.c ****         #endif /* (CapSense_ENABLE != CapSense_PROXIMITY_WIDGET_EN) */
1048:Generated_Source\PSoC4/CapSense_Structure.c ****         result = CapSense_dsRam.snsStatus[widgetId] & (1Lu << sensorId);
 618              		.loc 1 1048 0
 619 0014 064B     		ldr	r3, .L58+4
 620 0016 1818     		adds	r0, r3, r0
 621              	.LVL62:
 622 0018 037E     		ldrb	r3, [r0, #24]
 623 001a 0120     		movs	r0, #1
 624 001c 8840     		lsls	r0, r0, r1
ARM GAS  C:\Users\dell\AppData\Local\Temp\ccAx8ClQ.s 			page 31


 625 001e 1840     		ands	r0, r3
 626              	.LVL63:
 627 0020 02E0     		b	.L55
 628              	.LVL64:
 629              	.L56:
1036:Generated_Source\PSoC4/CapSense_Structure.c **** 
 630              		.loc 1 1036 0
 631 0022 0020     		movs	r0, #0
 632              	.LVL65:
 633 0024 00E0     		b	.L55
 634              	.LVL66:
 635              	.L57:
 636 0026 0020     		movs	r0, #0
 637              	.LVL67:
 638              	.L55:
1049:Generated_Source\PSoC4/CapSense_Structure.c ****     }
1050:Generated_Source\PSoC4/CapSense_Structure.c **** 
1051:Generated_Source\PSoC4/CapSense_Structure.c ****     return result;
1052:Generated_Source\PSoC4/CapSense_Structure.c **** }
 639              		.loc 1 1052 0
 640              		@ sp needed
 641 0028 7047     		bx	lr
 642              	.L59:
 643 002a C046     		.align	2
 644              	.L58:
 645 002c 00000000 		.word	.LANCHOR0
 646 0030 00000000 		.word	CapSense_dsRam
 647              		.cfi_endproc
 648              	.LFE8:
 649              		.size	CapSense_IsSensorActive, .-CapSense_IsSensorActive
 650              		.global	CapSense_ramIdacInit
 651              		.global	CapSense_ramWidgetInit
 652              		.global	CapSense_adcIoList
 653              		.global	CapSense_ioList
 654              		.global	CapSense_dsFlash
 655              		.comm	CapSense_dsRam,144,4
 656              		.section	.rodata
 657              		.align	2
 658              		.set	.LANCHOR0,. + 0
 659              		.type	CapSense_ramIdacInit, %object
 660              		.size	CapSense_ramIdacInit, 4
 661              	CapSense_ramIdacInit:
 662 0000 20       		.byte	32
 663 0001 20       		.byte	32
 664 0002 20       		.byte	32
 665 0003 20       		.byte	32
 666              		.type	CapSense_dsFlash, %object
 667              		.size	CapSense_dsFlash, 112
 668              	CapSense_dsFlash:
 669 0004 00000000 		.word	CapSense_ioList
 670 0008 2A000000 		.word	CapSense_dsRam+42
 671 000c 62000000 		.word	CapSense_dsRam+98
 672 0010 18000000 		.word	CapSense_fltrHistorybtnRO
 673 0014 2C000000 		.word	CapSense_debouncebtnRO
 674 0018 01280000 		.word	10241
 675 001c 0100     		.short	1
 676 001e 01       		.byte	1
ARM GAS  C:\Users\dell\AppData\Local\Temp\ccAx8ClQ.s 			page 32


 677 001f 01       		.byte	1
 678 0020 1C000000 		.word	CapSense_ioList+28
 679 0024 38000000 		.word	CapSense_dsRam+56
 680 0028 6C000000 		.word	CapSense_dsRam+108
 681 002c 10000000 		.word	CapSense_fltrHistorybtnCOLD
 682 0030 28000000 		.word	CapSense_debouncebtnCOLD
 683 0034 01280000 		.word	10241
 684 0038 0100     		.short	1
 685 003a 01       		.byte	1
 686 003b 01       		.byte	1
 687 003c 38000000 		.word	CapSense_ioList+56
 688 0040 46000000 		.word	CapSense_dsRam+70
 689 0044 76000000 		.word	CapSense_dsRam+118
 690 0048 08000000 		.word	CapSense_fltrHistorybtnHOT
 691 004c 24000000 		.word	CapSense_debouncebtnHOT
 692 0050 01280000 		.word	10241
 693 0054 0100     		.short	1
 694 0056 01       		.byte	1
 695 0057 01       		.byte	1
 696 0058 54000000 		.word	CapSense_ioList+84
 697 005c 54000000 		.word	CapSense_dsRam+84
 698 0060 80000000 		.word	CapSense_dsRam+128
 699 0064 00000000 		.word	CapSense_fltrHistorybtnLOCK
 700 0068 20000000 		.word	CapSense_debouncebtnLOCK
 701 006c 01280000 		.word	10241
 702 0070 0100     		.short	1
 703 0072 01       		.byte	1
 704 0073 01       		.byte	1
 705              		.type	CapSense_ramWidgetInit, %object
 706              		.size	CapSense_ramWidgetInit, 56
 707              	CapSense_ramWidgetInit:
 708 0074 0A00     		.short	10
 709 0076 4800     		.short	72
 710 0078 24       		.byte	36
 711 0079 24       		.byte	36
 712 007a 09       		.byte	9
 713 007b 03       		.byte	3
 714 007c 1E       		.byte	30
 715 007d 20       		.byte	32
 716 007e 0800     		.short	8
 717 0080 00       		.byte	0
 718 0081 00       		.space	1
 719 0082 0A00     		.short	10
 720 0084 8000     		.short	128
 721 0086 40       		.byte	64
 722 0087 40       		.byte	64
 723 0088 10       		.byte	16
 724 0089 03       		.byte	3
 725 008a 1E       		.byte	30
 726 008b 20       		.byte	32
 727 008c 0800     		.short	8
 728 008e 00       		.byte	0
 729 008f 00       		.space	1
 730 0090 0B00     		.short	11
 731 0092 A000     		.short	160
 732 0094 50       		.byte	80
 733 0095 50       		.byte	80
ARM GAS  C:\Users\dell\AppData\Local\Temp\ccAx8ClQ.s 			page 33


 734 0096 14       		.byte	20
 735 0097 03       		.byte	3
 736 0098 1E       		.byte	30
 737 0099 20       		.byte	32
 738 009a 0800     		.short	8
 739 009c 00       		.byte	0
 740 009d 00       		.space	1
 741 009e 0A00     		.short	10
 742 00a0 8000     		.short	128
 743 00a2 40       		.byte	64
 744 00a3 40       		.byte	64
 745 00a4 10       		.byte	16
 746 00a5 03       		.byte	3
 747 00a6 1E       		.byte	30
 748 00a7 20       		.byte	32
 749 00a8 0800     		.short	8
 750 00aa 00       		.byte	0
 751 00ab 00       		.space	1
 752              		.type	CapSense_adcIoList, %object
 753              		.size	CapSense_adcIoList, 28
 754              	CapSense_adcIoList:
 755 00ac 00040240 		.word	1073873920
 756 00b0 08040440 		.word	1074005000
 757 00b4 00040440 		.word	1074004992
 758 00b8 04040440 		.word	1074004996
 759 00bc 00F00000 		.word	61440
 760 00c0 08000000 		.word	8
 761 00c4 0C       		.byte	12
 762 00c5 03       		.byte	3
 763 00c6 09       		.byte	9
 764 00c7 00       		.space	1
 765              		.type	CapSense_ioList, %object
 766              		.size	CapSense_ioList, 112
 767              	CapSense_ioList:
 768 00c8 00000240 		.word	1073872896
 769 00cc 08000440 		.word	1074003976
 770 00d0 00000440 		.word	1074003968
 771 00d4 04000440 		.word	1074003972
 772 00d8 0F000000 		.word	15
 773 00dc 01000000 		.word	1
 774 00e0 00       		.byte	0
 775 00e1 00       		.byte	0
 776 00e2 00       		.byte	0
 777 00e3 00       		.space	1
 778 00e4 00000240 		.word	1073872896
 779 00e8 08000440 		.word	1074003976
 780 00ec 00000440 		.word	1074003968
 781 00f0 04000440 		.word	1074003972
 782 00f4 F0000000 		.word	240
 783 00f8 02000000 		.word	2
 784 00fc 04       		.byte	4
 785 00fd 01       		.byte	1
 786 00fe 03       		.byte	3
 787 00ff 00       		.space	1
 788 0100 00000240 		.word	1073872896
 789 0104 08000440 		.word	1074003976
 790 0108 00000440 		.word	1074003968
ARM GAS  C:\Users\dell\AppData\Local\Temp\ccAx8ClQ.s 			page 34


 791 010c 04000440 		.word	1074003972
 792 0110 000F0000 		.word	3840
 793 0114 04000000 		.word	4
 794 0118 08       		.byte	8
 795 0119 02       		.byte	2
 796 011a 06       		.byte	6
 797 011b 00       		.space	1
 798 011c 00000240 		.word	1073872896
 799 0120 08000440 		.word	1074003976
 800 0124 00000440 		.word	1074003968
 801 0128 04000440 		.word	1074003972
 802 012c 00F00000 		.word	61440
 803 0130 08000000 		.word	8
 804 0134 0C       		.byte	12
 805 0135 03       		.byte	3
 806 0136 09       		.byte	9
 807 0137 00       		.space	1
 808              		.bss
 809              		.align	2
 810              		.type	CapSense_fltrHistorybtnLOCK, %object
 811              		.size	CapSense_fltrHistorybtnLOCK, 6
 812              	CapSense_fltrHistorybtnLOCK:
 813 0000 00000000 		.space	6
 813      0000
 814 0006 0000     		.space	2
 815              		.type	CapSense_fltrHistorybtnHOT, %object
 816              		.size	CapSense_fltrHistorybtnHOT, 6
 817              	CapSense_fltrHistorybtnHOT:
 818 0008 00000000 		.space	6
 818      0000
 819 000e 0000     		.space	2
 820              		.type	CapSense_fltrHistorybtnCOLD, %object
 821              		.size	CapSense_fltrHistorybtnCOLD, 6
 822              	CapSense_fltrHistorybtnCOLD:
 823 0010 00000000 		.space	6
 823      0000
 824 0016 0000     		.space	2
 825              		.type	CapSense_fltrHistorybtnRO, %object
 826              		.size	CapSense_fltrHistorybtnRO, 6
 827              	CapSense_fltrHistorybtnRO:
 828 0018 00000000 		.space	6
 828      0000
 829 001e 0000     		.space	2
 830              		.type	CapSense_debouncebtnLOCK, %object
 831              		.size	CapSense_debouncebtnLOCK, 1
 832              	CapSense_debouncebtnLOCK:
 833 0020 00       		.space	1
 834 0021 000000   		.space	3
 835              		.type	CapSense_debouncebtnHOT, %object
 836              		.size	CapSense_debouncebtnHOT, 1
 837              	CapSense_debouncebtnHOT:
 838 0024 00       		.space	1
 839 0025 000000   		.space	3
 840              		.type	CapSense_debouncebtnCOLD, %object
 841              		.size	CapSense_debouncebtnCOLD, 1
 842              	CapSense_debouncebtnCOLD:
 843 0028 00       		.space	1
ARM GAS  C:\Users\dell\AppData\Local\Temp\ccAx8ClQ.s 			page 35


 844 0029 000000   		.space	3
 845              		.type	CapSense_debouncebtnRO, %object
 846              		.size	CapSense_debouncebtnRO, 1
 847              	CapSense_debouncebtnRO:
 848 002c 00       		.space	1
 849              		.text
 850              	.Letext0:
 851              		.file 2 "Generated_Source\\PSoC4/cytypes.h"
 852              		.file 3 "Generated_Source\\PSoC4\\CapSense_Configuration.h"
 853              		.file 4 "Generated_Source\\PSoC4\\CapSense_Structure.h"
 854              		.file 5 "Generated_Source\\PSoC4\\CyLib.h"