ARM GAS  C:\Users\dell\AppData\Local\Temp\ccWEiAI7.s 			page 1


   1              		.syntax unified
   2              		.cpu cortex-m0plus
   3              		.fpu softvfp
   4              		.eabi_attribute 20, 1
   5              		.eabi_attribute 21, 1
   6              		.eabi_attribute 23, 3
   7              		.eabi_attribute 24, 1
   8              		.eabi_attribute 25, 1
   9              		.eabi_attribute 26, 1
  10              		.eabi_attribute 30, 1
  11              		.eabi_attribute 34, 0
  12              		.eabi_attribute 18, 4
  13              		.thumb
  14              		.syntax unified
  15              		.file	"CapSense_Filter.c"
  16              		.text
  17              	.Ltext0:
  18              		.cfi_sections	.debug_frame
  19              		.section	.text.CapSense_FtInitializeBaselineChannel,"ax",%progbits
  20              		.align	2
  21              		.global	CapSense_FtInitializeBaselineChannel
  22              		.code	16
  23              		.thumb_func
  24              		.type	CapSense_FtInitializeBaselineChannel, %function
  25              	CapSense_FtInitializeBaselineChannel:
  26              	.LFB10:
  27              		.file 1 "Generated_Source\\PSoC4\\CapSense_Filter.c"
   1:Generated_Source\PSoC4/CapSense_Filter.c **** /***************************************************************************//**
   2:Generated_Source\PSoC4/CapSense_Filter.c **** * \file CapSense_Filter.c
   3:Generated_Source\PSoC4/CapSense_Filter.c **** * \version 5.0
   4:Generated_Source\PSoC4/CapSense_Filter.c **** *
   5:Generated_Source\PSoC4/CapSense_Filter.c **** * \brief
   6:Generated_Source\PSoC4/CapSense_Filter.c **** *   This file contains the implementation source code to implement all
   7:Generated_Source\PSoC4/CapSense_Filter.c **** *   firmware filters.
   8:Generated_Source\PSoC4/CapSense_Filter.c **** *
   9:Generated_Source\PSoC4/CapSense_Filter.c **** * \see CapSense v5.0 Datasheet
  10:Generated_Source\PSoC4/CapSense_Filter.c **** *
  11:Generated_Source\PSoC4/CapSense_Filter.c **** *//*****************************************************************************
  12:Generated_Source\PSoC4/CapSense_Filter.c **** * Copyright (2016-2017), Cypress Semiconductor Corporation.
  13:Generated_Source\PSoC4/CapSense_Filter.c **** ********************************************************************************
  14:Generated_Source\PSoC4/CapSense_Filter.c **** * This software is owned by Cypress Semiconductor Corporation (Cypress) and is
  15:Generated_Source\PSoC4/CapSense_Filter.c **** * protected by and subject to worldwide patent protection (United States and
  16:Generated_Source\PSoC4/CapSense_Filter.c **** * foreign), United States copyright laws and international treaty provisions.
  17:Generated_Source\PSoC4/CapSense_Filter.c **** * Cypress hereby grants to licensee a personal, non-exclusive, non-transferable
  18:Generated_Source\PSoC4/CapSense_Filter.c **** * license to copy, use, modify, create derivative works of, and compile the
  19:Generated_Source\PSoC4/CapSense_Filter.c **** * Cypress Source Code and derivative works for the sole purpose of creating
  20:Generated_Source\PSoC4/CapSense_Filter.c **** * custom software in support of licensee product to be used only in conjunction
  21:Generated_Source\PSoC4/CapSense_Filter.c **** * with a Cypress integrated circuit as specified in the applicable agreement.
  22:Generated_Source\PSoC4/CapSense_Filter.c **** * Any reproduction, modification, translation, compilation, or representation of
  23:Generated_Source\PSoC4/CapSense_Filter.c **** * this software except as specified above is prohibited without the express
  24:Generated_Source\PSoC4/CapSense_Filter.c **** * written permission of Cypress.
  25:Generated_Source\PSoC4/CapSense_Filter.c **** *
  26:Generated_Source\PSoC4/CapSense_Filter.c **** * Disclaimer: CYPRESS MAKES NO WARRANTY OF ANY KIND, EXPRESS OR IMPLIED, WITH
  27:Generated_Source\PSoC4/CapSense_Filter.c **** * REGARD TO THIS MATERIAL, INCLUDING, BUT NOT LIMITED TO, THE IMPLIED
  28:Generated_Source\PSoC4/CapSense_Filter.c **** * WARRANTIES OF MERCHANTABILITY AND FITNESS FOR A PARTICULAR PURPOSE.
  29:Generated_Source\PSoC4/CapSense_Filter.c **** * Cypress reserves the right to make changes without further notice to the
  30:Generated_Source\PSoC4/CapSense_Filter.c **** * materials described herein. Cypress does not assume any liability arising out
ARM GAS  C:\Users\dell\AppData\Local\Temp\ccWEiAI7.s 			page 2


  31:Generated_Source\PSoC4/CapSense_Filter.c **** * of the application or use of any product or circuit described herein. Cypress
  32:Generated_Source\PSoC4/CapSense_Filter.c **** * does not authorize its products for use as critical components in life-support
  33:Generated_Source\PSoC4/CapSense_Filter.c **** * systems where a malfunction or failure may reasonably be expected to result in
  34:Generated_Source\PSoC4/CapSense_Filter.c **** * significant injury to the user. The inclusion of Cypress' product in a life-
  35:Generated_Source\PSoC4/CapSense_Filter.c **** * support systems application implies that the manufacturer assumes all risk of
  36:Generated_Source\PSoC4/CapSense_Filter.c **** * such use and in doing so indemnifies Cypress against all charges. Use may be
  37:Generated_Source\PSoC4/CapSense_Filter.c **** * limited by and subject to the applicable Cypress software license agreement.
  38:Generated_Source\PSoC4/CapSense_Filter.c **** *******************************************************************************/
  39:Generated_Source\PSoC4/CapSense_Filter.c **** 
  40:Generated_Source\PSoC4/CapSense_Filter.c **** #include "CapSense_Filter.h"
  41:Generated_Source\PSoC4/CapSense_Filter.c **** #include "CapSense_Configuration.h"
  42:Generated_Source\PSoC4/CapSense_Filter.c **** 
  43:Generated_Source\PSoC4/CapSense_Filter.c **** #if (0 != (CapSense_CSD_AUTOTUNE & CapSense_CSD_SS_TH_EN))
  44:Generated_Source\PSoC4/CapSense_Filter.c ****     #include "CapSense_SmartSense_LL.h"
  45:Generated_Source\PSoC4/CapSense_Filter.c **** #endif /* (0 != (CapSense_CSD_AUTOTUNE & CapSense_CSD_SS_TH_EN)) */
  46:Generated_Source\PSoC4/CapSense_Filter.c **** 
  47:Generated_Source\PSoC4/CapSense_Filter.c **** #if (CapSense_ENABLE == CapSense_SELF_TEST_EN)
  48:Generated_Source\PSoC4/CapSense_Filter.c ****     #include "CapSense_SelfTest.h"
  49:Generated_Source\PSoC4/CapSense_Filter.c **** #endif
  50:Generated_Source\PSoC4/CapSense_Filter.c **** 
  51:Generated_Source\PSoC4/CapSense_Filter.c **** /*******************************************************************************
  52:Generated_Source\PSoC4/CapSense_Filter.c **** * Function Name: CapSense_FtInitialize
  53:Generated_Source\PSoC4/CapSense_Filter.c **** ****************************************************************************//**
  54:Generated_Source\PSoC4/CapSense_Filter.c **** *
  55:Generated_Source\PSoC4/CapSense_Filter.c **** * \brief
  56:Generated_Source\PSoC4/CapSense_Filter.c **** *  Initializes all the firmware filter history, except the baseline filter.
  57:Generated_Source\PSoC4/CapSense_Filter.c **** *
  58:Generated_Source\PSoC4/CapSense_Filter.c **** * \details
  59:Generated_Source\PSoC4/CapSense_Filter.c **** *  Initializes all the firmware filter history, except the baseline filter.
  60:Generated_Source\PSoC4/CapSense_Filter.c **** *
  61:Generated_Source\PSoC4/CapSense_Filter.c **** *******************************************************************************/
  62:Generated_Source\PSoC4/CapSense_Filter.c **** void CapSense_FtInitialize(void)
  63:Generated_Source\PSoC4/CapSense_Filter.c **** {
  64:Generated_Source\PSoC4/CapSense_Filter.c ****     #if ((CapSense_ENABLE == CapSense_RC_FILTER_EN) || \
  65:Generated_Source\PSoC4/CapSense_Filter.c ****          (0u != (CapSense_CSD_AUTOTUNE & CapSense_CSD_SS_TH_EN)))
  66:Generated_Source\PSoC4/CapSense_Filter.c ****         CapSense_InitializeAllFilters();
  67:Generated_Source\PSoC4/CapSense_Filter.c ****     #endif /* ((CapSense_ENABLE == CapSense_RC_FILTER_EN) || \
  68:Generated_Source\PSoC4/CapSense_Filter.c ****                (0u != (CapSense_CSD_AUTOTUNE & CapSense_CSD_SS_TH_EN))) */
  69:Generated_Source\PSoC4/CapSense_Filter.c **** }
  70:Generated_Source\PSoC4/CapSense_Filter.c **** 
  71:Generated_Source\PSoC4/CapSense_Filter.c **** 
  72:Generated_Source\PSoC4/CapSense_Filter.c **** /*******************************************************************************
  73:Generated_Source\PSoC4/CapSense_Filter.c **** * Function Name: CapSense_UpdateAllBaselines
  74:Generated_Source\PSoC4/CapSense_Filter.c **** ****************************************************************************//**
  75:Generated_Source\PSoC4/CapSense_Filter.c **** *
  76:Generated_Source\PSoC4/CapSense_Filter.c **** * \brief
  77:Generated_Source\PSoC4/CapSense_Filter.c **** *  Updates the baseline for all the sensors in all the widgets.
  78:Generated_Source\PSoC4/CapSense_Filter.c **** *
  79:Generated_Source\PSoC4/CapSense_Filter.c **** * \details
  80:Generated_Source\PSoC4/CapSense_Filter.c **** *  Updates the baseline for all the sensors in all the widgets. Baseline updating is a
  81:Generated_Source\PSoC4/CapSense_Filter.c **** *  part of data processing performed by the process functions. So, no need to
  82:Generated_Source\PSoC4/CapSense_Filter.c **** *  call this function except a specific process flow is implemented.
  83:Generated_Source\PSoC4/CapSense_Filter.c **** *
  84:Generated_Source\PSoC4/CapSense_Filter.c **** *  This function ignores the value of the wdgtEnable register. Multiple calling
  85:Generated_Source\PSoC4/CapSense_Filter.c **** *  of this function (or any other function with a baseline updating task)
  86:Generated_Source\PSoC4/CapSense_Filter.c **** *  without scanning leads to unexpected behavior.
  87:Generated_Source\PSoC4/CapSense_Filter.c **** *
ARM GAS  C:\Users\dell\AppData\Local\Temp\ccWEiAI7.s 			page 3


  88:Generated_Source\PSoC4/CapSense_Filter.c **** *  If the Self-test library is enabled, this function executes the baseline duplication
  89:Generated_Source\PSoC4/CapSense_Filter.c **** *  test. Refer to CapSense_CheckBaselineDuplication() for details.
  90:Generated_Source\PSoC4/CapSense_Filter.c **** *
  91:Generated_Source\PSoC4/CapSense_Filter.c **** * \return
  92:Generated_Source\PSoC4/CapSense_Filter.c **** *  Returns the status of the update baseline operation of all the widgets:
  93:Generated_Source\PSoC4/CapSense_Filter.c **** *  - CYRET_SUCCESS - The operation is successfully completed.
  94:Generated_Source\PSoC4/CapSense_Filter.c **** *  - CYRET_BAD_DATA - The baseline processing failed.
  95:Generated_Source\PSoC4/CapSense_Filter.c **** *
  96:Generated_Source\PSoC4/CapSense_Filter.c **** *******************************************************************************/
  97:Generated_Source\PSoC4/CapSense_Filter.c **** cystatus CapSense_UpdateAllBaselines(void)
  98:Generated_Source\PSoC4/CapSense_Filter.c **** {
  99:Generated_Source\PSoC4/CapSense_Filter.c ****     uint32 widgetId;
 100:Generated_Source\PSoC4/CapSense_Filter.c ****     cystatus bslnStatus = CYRET_SUCCESS;
 101:Generated_Source\PSoC4/CapSense_Filter.c **** 
 102:Generated_Source\PSoC4/CapSense_Filter.c ****     for(widgetId = CapSense_TOTAL_WIDGETS; widgetId-- > 0u;)
 103:Generated_Source\PSoC4/CapSense_Filter.c ****     {
 104:Generated_Source\PSoC4/CapSense_Filter.c ****         bslnStatus |= CapSense_UpdateWidgetBaseline(widgetId);
 105:Generated_Source\PSoC4/CapSense_Filter.c ****     }
 106:Generated_Source\PSoC4/CapSense_Filter.c **** 
 107:Generated_Source\PSoC4/CapSense_Filter.c ****     return(bslnStatus);
 108:Generated_Source\PSoC4/CapSense_Filter.c **** }
 109:Generated_Source\PSoC4/CapSense_Filter.c **** 
 110:Generated_Source\PSoC4/CapSense_Filter.c **** 
 111:Generated_Source\PSoC4/CapSense_Filter.c **** /*******************************************************************************
 112:Generated_Source\PSoC4/CapSense_Filter.c **** * Function Name: CapSense_UpdateWidgetBaseline
 113:Generated_Source\PSoC4/CapSense_Filter.c **** ****************************************************************************//**
 114:Generated_Source\PSoC4/CapSense_Filter.c **** *
 115:Generated_Source\PSoC4/CapSense_Filter.c **** * \brief
 116:Generated_Source\PSoC4/CapSense_Filter.c **** *  Updates the baselines for all the sensors in a widget specified by the input
 117:Generated_Source\PSoC4/CapSense_Filter.c **** *  parameter.
 118:Generated_Source\PSoC4/CapSense_Filter.c **** *
 119:Generated_Source\PSoC4/CapSense_Filter.c **** * \details
 120:Generated_Source\PSoC4/CapSense_Filter.c **** *  This function performs exactly the same tasks as
 121:Generated_Source\PSoC4/CapSense_Filter.c **** *  CapSense_UpdateAllBaselines() but only for a specified widget.
 122:Generated_Source\PSoC4/CapSense_Filter.c **** *
 123:Generated_Source\PSoC4/CapSense_Filter.c **** *  This function ignores the value of the wdgtEnable register. Multiple calling
 124:Generated_Source\PSoC4/CapSense_Filter.c **** *  of this function (or any other function with a baseline updating task)
 125:Generated_Source\PSoC4/CapSense_Filter.c **** *  without scanning leads to unexpected behavior.
 126:Generated_Source\PSoC4/CapSense_Filter.c **** *
 127:Generated_Source\PSoC4/CapSense_Filter.c **** *  If the Self-test library is enabled, this function executes the baseline duplication
 128:Generated_Source\PSoC4/CapSense_Filter.c **** *  test. Refer to CapSense_CheckBaselineDuplication() for details.
 129:Generated_Source\PSoC4/CapSense_Filter.c **** *
 130:Generated_Source\PSoC4/CapSense_Filter.c **** * \param widgetId
 131:Generated_Source\PSoC4/CapSense_Filter.c **** *  Specifies the ID number of the widget to update the baseline of all the sensors
 132:Generated_Source\PSoC4/CapSense_Filter.c **** *  in the widget.
 133:Generated_Source\PSoC4/CapSense_Filter.c **** *  A macro for the widget ID can be found in the
 134:Generated_Source\PSoC4/CapSense_Filter.c **** *  CapSense Configuration header file defined as
 135:Generated_Source\PSoC4/CapSense_Filter.c **** *  CapSense_<WidgetName>_WDGT_ID.
 136:Generated_Source\PSoC4/CapSense_Filter.c **** *
 137:Generated_Source\PSoC4/CapSense_Filter.c **** * \return
 138:Generated_Source\PSoC4/CapSense_Filter.c **** *  Returns the status of the specified widget update baseline operation:
 139:Generated_Source\PSoC4/CapSense_Filter.c **** *  - CYRET_SUCCESS - The operation is successfully completed.
 140:Generated_Source\PSoC4/CapSense_Filter.c **** *  - CYRET_BAD_DATA - The baseline processing is failed.
 141:Generated_Source\PSoC4/CapSense_Filter.c **** *
 142:Generated_Source\PSoC4/CapSense_Filter.c **** *******************************************************************************/
 143:Generated_Source\PSoC4/CapSense_Filter.c **** cystatus CapSense_UpdateWidgetBaseline(uint32 widgetId)
 144:Generated_Source\PSoC4/CapSense_Filter.c **** {
ARM GAS  C:\Users\dell\AppData\Local\Temp\ccWEiAI7.s 			page 4


 145:Generated_Source\PSoC4/CapSense_Filter.c ****     uint32 sensorId;
 146:Generated_Source\PSoC4/CapSense_Filter.c ****     uint32 sensorsNumber;
 147:Generated_Source\PSoC4/CapSense_Filter.c **** 
 148:Generated_Source\PSoC4/CapSense_Filter.c ****     CapSense_FLASH_WD_STRUCT const *ptrWidget = &CapSense_dsFlash.wdgtArray[widgetId];
 149:Generated_Source\PSoC4/CapSense_Filter.c ****     cystatus bslnStatus = CYRET_SUCCESS;
 150:Generated_Source\PSoC4/CapSense_Filter.c **** 
 151:Generated_Source\PSoC4/CapSense_Filter.c ****     /* Find total amount of sensors in specified widget */
 152:Generated_Source\PSoC4/CapSense_Filter.c ****     sensorsNumber = CapSense_GET_SNS_CNT_BY_PTR(ptrWidget);
 153:Generated_Source\PSoC4/CapSense_Filter.c **** 
 154:Generated_Source\PSoC4/CapSense_Filter.c ****     for(sensorId = sensorsNumber; sensorId-- > 0u;)
 155:Generated_Source\PSoC4/CapSense_Filter.c ****     {
 156:Generated_Source\PSoC4/CapSense_Filter.c ****         bslnStatus |= CapSense_UpdateSensorBaseline(widgetId, sensorId);
 157:Generated_Source\PSoC4/CapSense_Filter.c ****     }
 158:Generated_Source\PSoC4/CapSense_Filter.c **** 
 159:Generated_Source\PSoC4/CapSense_Filter.c ****     return(bslnStatus);
 160:Generated_Source\PSoC4/CapSense_Filter.c **** }
 161:Generated_Source\PSoC4/CapSense_Filter.c **** 
 162:Generated_Source\PSoC4/CapSense_Filter.c **** 
 163:Generated_Source\PSoC4/CapSense_Filter.c **** /*******************************************************************************
 164:Generated_Source\PSoC4/CapSense_Filter.c **** * Function Name: CapSense_UpdateSensorBaseline
 165:Generated_Source\PSoC4/CapSense_Filter.c **** ****************************************************************************//**
 166:Generated_Source\PSoC4/CapSense_Filter.c **** *
 167:Generated_Source\PSoC4/CapSense_Filter.c **** * \brief
 168:Generated_Source\PSoC4/CapSense_Filter.c **** *  Updates the baseline for a sensor in a widget specified by the input parameters.
 169:Generated_Source\PSoC4/CapSense_Filter.c **** *
 170:Generated_Source\PSoC4/CapSense_Filter.c **** * \details
 171:Generated_Source\PSoC4/CapSense_Filter.c **** *  This function performs exactly the same tasks as
 172:Generated_Source\PSoC4/CapSense_Filter.c **** *  CapSense_UpdateAllBaselines() and
 173:Generated_Source\PSoC4/CapSense_Filter.c **** *  CapSense_UpdateWidgetBaseline() but only for a specified sensor.
 174:Generated_Source\PSoC4/CapSense_Filter.c **** *
 175:Generated_Source\PSoC4/CapSense_Filter.c **** *  This function ignores the value of the wdgtEnable register. Multiple calling
 176:Generated_Source\PSoC4/CapSense_Filter.c **** *  of this function (or any other function with a baseline updating task)
 177:Generated_Source\PSoC4/CapSense_Filter.c **** *  without scanning leads to unexpected behavior.
 178:Generated_Source\PSoC4/CapSense_Filter.c **** *
 179:Generated_Source\PSoC4/CapSense_Filter.c **** *  If the Self-test library is enabled, this function executes the baseline duplication
 180:Generated_Source\PSoC4/CapSense_Filter.c **** *  test. Refer to CapSense_CheckBaselineDuplication() for details.
 181:Generated_Source\PSoC4/CapSense_Filter.c **** *
 182:Generated_Source\PSoC4/CapSense_Filter.c **** * \param widgetId
 183:Generated_Source\PSoC4/CapSense_Filter.c **** *  Specifies the ID number of the widget to update the baseline of the sensor
 184:Generated_Source\PSoC4/CapSense_Filter.c **** *  specified by the sensorId argument.
 185:Generated_Source\PSoC4/CapSense_Filter.c **** *  A macro for the widget ID can be found in the CapSense Configuration header
 186:Generated_Source\PSoC4/CapSense_Filter.c **** *  file defined as CapSense_<WidgetName>_WDGT_ID.
 187:Generated_Source\PSoC4/CapSense_Filter.c **** *
 188:Generated_Source\PSoC4/CapSense_Filter.c **** * \param sensorId
 189:Generated_Source\PSoC4/CapSense_Filter.c **** *  Specifies the ID number of the sensor within the widget to update its baseline.
 190:Generated_Source\PSoC4/CapSense_Filter.c **** *  A macro for the sensor ID within a specified widget can be found in the
 191:Generated_Source\PSoC4/CapSense_Filter.c **** *  CapSense Configuration header file defined as
 192:Generated_Source\PSoC4/CapSense_Filter.c **** *  CapSense_<WidgetName>_SNS<SensorNumber>_ID.
 193:Generated_Source\PSoC4/CapSense_Filter.c **** *
 194:Generated_Source\PSoC4/CapSense_Filter.c **** * \return
 195:Generated_Source\PSoC4/CapSense_Filter.c **** *  Returns the status of the specified sensor update baseline operation:
 196:Generated_Source\PSoC4/CapSense_Filter.c **** *  - CYRET_SUCCESS - The operation is successfully completed.
 197:Generated_Source\PSoC4/CapSense_Filter.c **** *  - CYRET_BAD_DATA - The baseline processing failed.
 198:Generated_Source\PSoC4/CapSense_Filter.c **** *
 199:Generated_Source\PSoC4/CapSense_Filter.c **** *******************************************************************************/
 200:Generated_Source\PSoC4/CapSense_Filter.c **** cystatus CapSense_UpdateSensorBaseline(uint32 widgetId, uint32 sensorId)
 201:Generated_Source\PSoC4/CapSense_Filter.c **** {
ARM GAS  C:\Users\dell\AppData\Local\Temp\ccWEiAI7.s 			page 5


 202:Generated_Source\PSoC4/CapSense_Filter.c ****     uint32 result = CYRET_SUCCESS;
 203:Generated_Source\PSoC4/CapSense_Filter.c **** 
 204:Generated_Source\PSoC4/CapSense_Filter.c ****     CapSense_RAM_SNS_STRUCT *ptrSensor = NULL;
 205:Generated_Source\PSoC4/CapSense_Filter.c ****     CapSense_FLASH_WD_STRUCT const *ptrWidget = &CapSense_dsFlash.wdgtArray[widgetId];
 206:Generated_Source\PSoC4/CapSense_Filter.c ****     CapSense_RAM_WD_BASE_STRUCT *ptrWidgetRam = (CapSense_RAM_WD_BASE_STRUCT *)ptrWidget->ptr2WdgtR
 207:Generated_Source\PSoC4/CapSense_Filter.c **** 
 208:Generated_Source\PSoC4/CapSense_Filter.c ****     /* Find pointer to specified sensor object */
 209:Generated_Source\PSoC4/CapSense_Filter.c ****     ptrSensor = ptrWidget->ptr2SnsRam;
 210:Generated_Source\PSoC4/CapSense_Filter.c ****     ptrSensor = &ptrSensor[sensorId];
 211:Generated_Source\PSoC4/CapSense_Filter.c ****     result = CapSense_FtUpdateBaseline(ptrWidgetRam, ptrSensor, (uint32)ptrWidget->wdgtType);
 212:Generated_Source\PSoC4/CapSense_Filter.c **** 
 213:Generated_Source\PSoC4/CapSense_Filter.c ****     #if (CapSense_ENABLE == CapSense_TST_BSLN_DUPLICATION_EN)
 214:Generated_Source\PSoC4/CapSense_Filter.c ****         if (CYRET_SUCCESS != result)
 215:Generated_Source\PSoC4/CapSense_Filter.c ****         {
 216:Generated_Source\PSoC4/CapSense_Filter.c ****             result = CYRET_BAD_DATA;
 217:Generated_Source\PSoC4/CapSense_Filter.c ****             CapSense_UpdateTestResultBaselineDuplication(widgetId, sensorId);
 218:Generated_Source\PSoC4/CapSense_Filter.c ****         }
 219:Generated_Source\PSoC4/CapSense_Filter.c ****     #endif /* (CapSense_ENABLE == CapSense_TST_BSLN_DUPLICATION_EN) */
 220:Generated_Source\PSoC4/CapSense_Filter.c **** 
 221:Generated_Source\PSoC4/CapSense_Filter.c ****     return result;
 222:Generated_Source\PSoC4/CapSense_Filter.c **** }
 223:Generated_Source\PSoC4/CapSense_Filter.c **** 
 224:Generated_Source\PSoC4/CapSense_Filter.c **** /*******************************************************************************
 225:Generated_Source\PSoC4/CapSense_Filter.c **** * Function Name: CapSense_FtUpdateBaseline
 226:Generated_Source\PSoC4/CapSense_Filter.c **** ****************************************************************************//**
 227:Generated_Source\PSoC4/CapSense_Filter.c **** *
 228:Generated_Source\PSoC4/CapSense_Filter.c **** * \brief
 229:Generated_Source\PSoC4/CapSense_Filter.c **** *  Updates the baseline for a sensor specified by an input parameter.
 230:Generated_Source\PSoC4/CapSense_Filter.c **** *
 231:Generated_Source\PSoC4/CapSense_Filter.c **** * \details
 232:Generated_Source\PSoC4/CapSense_Filter.c **** *  Check a matching of present baseline and its inverse duplication. If they
 233:Generated_Source\PSoC4/CapSense_Filter.c **** *  match then updates the baseline for a sensor specified by an input parameter.
 234:Generated_Source\PSoC4/CapSense_Filter.c **** *  If don't match the function return CapSense_TST_BSLN_DUPLICATION
 235:Generated_Source\PSoC4/CapSense_Filter.c **** *  result and don't update baseline.
 236:Generated_Source\PSoC4/CapSense_Filter.c **** *
 237:Generated_Source\PSoC4/CapSense_Filter.c **** * \param ptrWidgetRam
 238:Generated_Source\PSoC4/CapSense_Filter.c **** *  The pointer to the widget RAM structure where all the widget parameters
 239:Generated_Source\PSoC4/CapSense_Filter.c **** *  are stored.
 240:Generated_Source\PSoC4/CapSense_Filter.c **** *
 241:Generated_Source\PSoC4/CapSense_Filter.c **** * \param ptrSensor
 242:Generated_Source\PSoC4/CapSense_Filter.c **** *  The pointer to the sensor RAM structure where all the sensor parameters
 243:Generated_Source\PSoC4/CapSense_Filter.c **** *  are stored.
 244:Generated_Source\PSoC4/CapSense_Filter.c **** *
 245:Generated_Source\PSoC4/CapSense_Filter.c **** * \param wdType
 246:Generated_Source\PSoC4/CapSense_Filter.c **** *  Specifies the type of a widget.
 247:Generated_Source\PSoC4/CapSense_Filter.c **** *
 248:Generated_Source\PSoC4/CapSense_Filter.c **** * \return
 249:Generated_Source\PSoC4/CapSense_Filter.c **** *  Returns a status indicating whether the baseline has been updated:
 250:Generated_Source\PSoC4/CapSense_Filter.c **** *  - CYRET_SUCCESS if baseline updating was successful.
 251:Generated_Source\PSoC4/CapSense_Filter.c **** *  - CapSense_PROCESS_BASELINE_FAILED if present sensor's any channel
 252:Generated_Source\PSoC4/CapSense_Filter.c **** *    baseline and its inversion doesn't matched.
 253:Generated_Source\PSoC4/CapSense_Filter.c **** *
 254:Generated_Source\PSoC4/CapSense_Filter.c **** *******************************************************************************/
 255:Generated_Source\PSoC4/CapSense_Filter.c **** uint32 CapSense_FtUpdateBaseline(
 256:Generated_Source\PSoC4/CapSense_Filter.c ****                                 CapSense_RAM_WD_BASE_STRUCT *ptrWidgetRam,
 257:Generated_Source\PSoC4/CapSense_Filter.c ****                                 CapSense_RAM_SNS_STRUCT *ptrSensor,
 258:Generated_Source\PSoC4/CapSense_Filter.c ****                                 uint32 wdType)
ARM GAS  C:\Users\dell\AppData\Local\Temp\ccWEiAI7.s 			page 6


 259:Generated_Source\PSoC4/CapSense_Filter.c **** {
 260:Generated_Source\PSoC4/CapSense_Filter.c ****     uint32 sign;
 261:Generated_Source\PSoC4/CapSense_Filter.c ****     uint32 difference;
 262:Generated_Source\PSoC4/CapSense_Filter.c ****     uint32 freqChannel;
 263:Generated_Source\PSoC4/CapSense_Filter.c ****     uint32 baselineCoeff;
 264:Generated_Source\PSoC4/CapSense_Filter.c ****     uint32 result = CYRET_SUCCESS;
 265:Generated_Source\PSoC4/CapSense_Filter.c **** 
 266:Generated_Source\PSoC4/CapSense_Filter.c ****     #if (CapSense_TOTAL_WIDGETS)
 267:Generated_Source\PSoC4/CapSense_Filter.c ****         uint32 history;
 268:Generated_Source\PSoC4/CapSense_Filter.c ****     #endif /* (CapSense_TOTAL_WIDGETS) */
 269:Generated_Source\PSoC4/CapSense_Filter.c **** 
 270:Generated_Source\PSoC4/CapSense_Filter.c ****     /* Apply baseline to every channel in sensor */
 271:Generated_Source\PSoC4/CapSense_Filter.c ****     for(freqChannel = CapSense_NUM_SCAN_FREQS; freqChannel-- > 0u;)
 272:Generated_Source\PSoC4/CapSense_Filter.c ****     {
 273:Generated_Source\PSoC4/CapSense_Filter.c ****         #if (CapSense_ENABLE == CapSense_TST_BSLN_DUPLICATION_EN)
 274:Generated_Source\PSoC4/CapSense_Filter.c ****             if (ptrSensor->bslnInv[freqChannel] != ((uint16) ~(ptrSensor->bsln[freqChannel])))
 275:Generated_Source\PSoC4/CapSense_Filter.c ****             {
 276:Generated_Source\PSoC4/CapSense_Filter.c ****                 result = CapSense_PROCESS_BASELINE_FAILED;
 277:Generated_Source\PSoC4/CapSense_Filter.c ****             }
 278:Generated_Source\PSoC4/CapSense_Filter.c ****             else
 279:Generated_Source\PSoC4/CapSense_Filter.c ****             {
 280:Generated_Source\PSoC4/CapSense_Filter.c ****         #endif /* (CapSense_ENABLE == CapSense_TST_BSLN_DUPLICATION_EN) */
 281:Generated_Source\PSoC4/CapSense_Filter.c **** 
 282:Generated_Source\PSoC4/CapSense_Filter.c ****         /* Calculate signal value and its sign */
 283:Generated_Source\PSoC4/CapSense_Filter.c ****         if(ptrSensor->raw[freqChannel] >= ptrSensor->bsln[freqChannel])
 284:Generated_Source\PSoC4/CapSense_Filter.c ****         {
 285:Generated_Source\PSoC4/CapSense_Filter.c ****             difference = (uint32)ptrSensor->raw[freqChannel] - (uint32)ptrSensor->bsln[freqChannel]
 286:Generated_Source\PSoC4/CapSense_Filter.c ****             sign = 1u;
 287:Generated_Source\PSoC4/CapSense_Filter.c ****             ptrSensor->negBslnRstCnt[freqChannel] = 0u;
 288:Generated_Source\PSoC4/CapSense_Filter.c ****         }
 289:Generated_Source\PSoC4/CapSense_Filter.c ****         else
 290:Generated_Source\PSoC4/CapSense_Filter.c ****         {
 291:Generated_Source\PSoC4/CapSense_Filter.c ****             difference = (uint32)ptrSensor->bsln[freqChannel] - (uint32)ptrSensor->raw[freqChannel]
 292:Generated_Source\PSoC4/CapSense_Filter.c ****             sign = 0u;
 293:Generated_Source\PSoC4/CapSense_Filter.c ****         }
 294:Generated_Source\PSoC4/CapSense_Filter.c **** 
 295:Generated_Source\PSoC4/CapSense_Filter.c ****         /* Reset baseline if condition is met */
 296:Generated_Source\PSoC4/CapSense_Filter.c ****         if((sign == 0u) && (difference > (uint32) ptrWidgetRam->nNoiseTh))
 297:Generated_Source\PSoC4/CapSense_Filter.c ****         {
 298:Generated_Source\PSoC4/CapSense_Filter.c ****             if(ptrSensor->negBslnRstCnt[freqChannel] >= ptrWidgetRam->lowBslnRst)
 299:Generated_Source\PSoC4/CapSense_Filter.c ****             {
 300:Generated_Source\PSoC4/CapSense_Filter.c ****                 CapSense_FtInitializeBaselineChannel(ptrSensor, wdType, freqChannel);
 301:Generated_Source\PSoC4/CapSense_Filter.c ****             }
 302:Generated_Source\PSoC4/CapSense_Filter.c ****             else
 303:Generated_Source\PSoC4/CapSense_Filter.c ****             {
 304:Generated_Source\PSoC4/CapSense_Filter.c ****                 ptrSensor->negBslnRstCnt[freqChannel]++;
 305:Generated_Source\PSoC4/CapSense_Filter.c ****             }
 306:Generated_Source\PSoC4/CapSense_Filter.c ****         }
 307:Generated_Source\PSoC4/CapSense_Filter.c ****         else
 308:Generated_Source\PSoC4/CapSense_Filter.c ****         {
 309:Generated_Source\PSoC4/CapSense_Filter.c ****             #if (!CapSense_SENSOR_AUTO_RESET_EN)
 310:Generated_Source\PSoC4/CapSense_Filter.c ****                 /* Update baseline only if signal is in range between noiseThreshold and negativeno
 311:Generated_Source\PSoC4/CapSense_Filter.c ****                 if ((difference <= (uint32)ptrWidgetRam->noiseTh) ||
 312:Generated_Source\PSoC4/CapSense_Filter.c ****                     ((difference < (uint32) ptrWidgetRam->nNoiseTh) && (sign == 0u)))
 313:Generated_Source\PSoC4/CapSense_Filter.c ****                 {
 314:Generated_Source\PSoC4/CapSense_Filter.c ****             #endif /* (CapSense_CSD_AUTO_RESET == CapSense_CSD_AUTO_RESET_DISABLE) */
 315:Generated_Source\PSoC4/CapSense_Filter.c **** 
ARM GAS  C:\Users\dell\AppData\Local\Temp\ccWEiAI7.s 			page 7


 316:Generated_Source\PSoC4/CapSense_Filter.c ****             #if (CapSense_BASELINE_TYPE == CapSense_IIR_BASELINE)
 317:Generated_Source\PSoC4/CapSense_Filter.c ****                 /* Calculate baseline value */
 318:Generated_Source\PSoC4/CapSense_Filter.c ****                 if ((CapSense_WD_TYPE_ENUM)wdType != CapSense_WD_PROXIMITY_E)
 319:Generated_Source\PSoC4/CapSense_Filter.c ****                 {
 320:Generated_Source\PSoC4/CapSense_Filter.c ****                     #if (CapSense_REGULAR_SENSOR_EN)
 321:Generated_Source\PSoC4/CapSense_Filter.c ****                         #if (CapSense_REGULAR_IIR_BL_TYPE == CapSense_IIR_FILTER_PERFORMANCE)
 322:Generated_Source\PSoC4/CapSense_Filter.c ****                             history = (uint32) ptrSensor->bsln[freqChannel] << 8u;
 323:Generated_Source\PSoC4/CapSense_Filter.c ****                             history |= ptrSensor->bslnExt[freqChannel];
 324:Generated_Source\PSoC4/CapSense_Filter.c ****                         #else
 325:Generated_Source\PSoC4/CapSense_Filter.c ****                             history = ptrSensor->bsln[freqChannel];
 326:Generated_Source\PSoC4/CapSense_Filter.c ****                         #endif /* (CapSense_REGULAR_IIR_BL_TYPE == CapSense_IIR_FILTER_PERFORMANCE)
 327:Generated_Source\PSoC4/CapSense_Filter.c **** 
 328:Generated_Source\PSoC4/CapSense_Filter.c ****                         #if (CapSense_ENABLE == CapSense_WD_BSLN_COEFF_EN)
 329:Generated_Source\PSoC4/CapSense_Filter.c ****                             baselineCoeff = ptrWidgetRam->bslnCoeff;
 330:Generated_Source\PSoC4/CapSense_Filter.c ****                         #else /* (CapSense_ENABLE == CapSense_WD_BSLN_COEFF_EN) */
 331:Generated_Source\PSoC4/CapSense_Filter.c ****                             baselineCoeff = CapSense_REGULAR_IIR_BL_N;
 332:Generated_Source\PSoC4/CapSense_Filter.c ****                         #endif /* (CapSense_ENABLE == CapSense_WD_BSLN_COEFF_EN) */
 333:Generated_Source\PSoC4/CapSense_Filter.c **** 
 334:Generated_Source\PSoC4/CapSense_Filter.c ****                         history =  CapSense_FtIIR1stOrder(
 335:Generated_Source\PSoC4/CapSense_Filter.c ****                                         (uint32)ptrSensor->raw[freqChannel],
 336:Generated_Source\PSoC4/CapSense_Filter.c ****                                         history, baselineCoeff,
 337:Generated_Source\PSoC4/CapSense_Filter.c ****                                         CapSense_REGULAR_IIR_BL_SHIFT);
 338:Generated_Source\PSoC4/CapSense_Filter.c **** 
 339:Generated_Source\PSoC4/CapSense_Filter.c ****                         #if (CapSense_REGULAR_IIR_BL_TYPE == CapSense_IIR_FILTER_PERFORMANCE)
 340:Generated_Source\PSoC4/CapSense_Filter.c ****                             ptrSensor->bsln[freqChannel] = LO16(history >> 8u);
 341:Generated_Source\PSoC4/CapSense_Filter.c ****                             ptrSensor->bslnExt[freqChannel] = LO8(history);
 342:Generated_Source\PSoC4/CapSense_Filter.c ****                         #else
 343:Generated_Source\PSoC4/CapSense_Filter.c ****                             ptrSensor->bsln[freqChannel] = LO16(history);
 344:Generated_Source\PSoC4/CapSense_Filter.c ****                         #endif /* (CapSense_REGULAR_IIR_BL_TYPE == CapSense_IIR_FILTER_PERFORMANCE)
 345:Generated_Source\PSoC4/CapSense_Filter.c ****                     #endif /* (CapSense_REGULAR_SENSOR_EN) */
 346:Generated_Source\PSoC4/CapSense_Filter.c ****                 }
 347:Generated_Source\PSoC4/CapSense_Filter.c ****                 else
 348:Generated_Source\PSoC4/CapSense_Filter.c ****                 {
 349:Generated_Source\PSoC4/CapSense_Filter.c ****                     #if (CapSense_PROXIMITY_SENSOR_EN)
 350:Generated_Source\PSoC4/CapSense_Filter.c ****                         #if (CapSense_PROX_IIR_BL_TYPE == CapSense_IIR_FILTER_PERFORMANCE)
 351:Generated_Source\PSoC4/CapSense_Filter.c ****                             history = (uint32) ptrSensor->bsln[freqChannel] << 8u;
 352:Generated_Source\PSoC4/CapSense_Filter.c ****                             history |= ptrSensor->bslnExt[freqChannel];
 353:Generated_Source\PSoC4/CapSense_Filter.c ****                         #else
 354:Generated_Source\PSoC4/CapSense_Filter.c ****                             history = (uint32) ptrSensor->bsln[freqChannel];
 355:Generated_Source\PSoC4/CapSense_Filter.c ****                         #endif /* (CapSense_PROX_IIR_BL_TYPE == CapSense_IIR_FILTER_PERFORMANCE) */
 356:Generated_Source\PSoC4/CapSense_Filter.c **** 
 357:Generated_Source\PSoC4/CapSense_Filter.c ****                         #if (CapSense_ENABLE == CapSense_WD_BSLN_COEFF_EN)
 358:Generated_Source\PSoC4/CapSense_Filter.c ****                             baselineCoeff = ptrWidgetRam->bslnCoeff;
 359:Generated_Source\PSoC4/CapSense_Filter.c ****                         #else /* (CapSense_ENABLE == CapSense_WD_BSLN_COEFF_EN) */
 360:Generated_Source\PSoC4/CapSense_Filter.c ****                             baselineCoeff = CapSense_PROX_IIR_BL_N;
 361:Generated_Source\PSoC4/CapSense_Filter.c ****                         #endif /* (CapSense_ENABLE == CapSense_WD_BSLN_COEFF_EN) */
 362:Generated_Source\PSoC4/CapSense_Filter.c **** 
 363:Generated_Source\PSoC4/CapSense_Filter.c ****                         history = CapSense_FtIIR1stOrder(
 364:Generated_Source\PSoC4/CapSense_Filter.c ****                                         (uint32)ptrSensor->raw[freqChannel],
 365:Generated_Source\PSoC4/CapSense_Filter.c ****                                         history, baselineCoeff,
 366:Generated_Source\PSoC4/CapSense_Filter.c ****                                         CapSense_PROX_IIR_BL_SHIFT);
 367:Generated_Source\PSoC4/CapSense_Filter.c **** 
 368:Generated_Source\PSoC4/CapSense_Filter.c ****                         #if (CapSense_PROX_IIR_BL_TYPE == CapSense_IIR_FILTER_PERFORMANCE)
 369:Generated_Source\PSoC4/CapSense_Filter.c ****                             ptrSensor->bsln[freqChannel] = LO16(history >> 8u);
 370:Generated_Source\PSoC4/CapSense_Filter.c ****                             ptrSensor->bslnExt[freqChannel] = LO8(history);
 371:Generated_Source\PSoC4/CapSense_Filter.c ****                         #else
 372:Generated_Source\PSoC4/CapSense_Filter.c ****                             ptrSensor->bsln[freqChannel] = LO16(history);
ARM GAS  C:\Users\dell\AppData\Local\Temp\ccWEiAI7.s 			page 8


 373:Generated_Source\PSoC4/CapSense_Filter.c ****                         #endif /* (CapSense_PROX_IIR_BL_TYPE == CapSense_IIR_FILTER_PERFORMANCE) */
 374:Generated_Source\PSoC4/CapSense_Filter.c ****                     #endif /* (CapSense_PROX_SENSOR_EN) */
 375:Generated_Source\PSoC4/CapSense_Filter.c ****                 }
 376:Generated_Source\PSoC4/CapSense_Filter.c ****             #else /* (CapSense_CSD_BASELINE_TYPE == CapSense_IIR_BASELINE) */
 377:Generated_Source\PSoC4/CapSense_Filter.c **** 
 378:Generated_Source\PSoC4/CapSense_Filter.c ****                 /******************************************************************
 379:Generated_Source\PSoC4/CapSense_Filter.c ****                 * This is the place where the bucket algorithm should be implemented.
 380:Generated_Source\PSoC4/CapSense_Filter.c ****                 * The bucket method will be implemented in future Component version.
 381:Generated_Source\PSoC4/CapSense_Filter.c ****                 *******************************************************************/
 382:Generated_Source\PSoC4/CapSense_Filter.c **** 
 383:Generated_Source\PSoC4/CapSense_Filter.c ****             #endif /* (CapSense_CSD_BASELINE_TYPE == CapSense_IIR_BASELINE) */
 384:Generated_Source\PSoC4/CapSense_Filter.c **** 
 385:Generated_Source\PSoC4/CapSense_Filter.c ****             #if (!CapSense_SENSOR_AUTO_RESET_EN)
 386:Generated_Source\PSoC4/CapSense_Filter.c ****                 }
 387:Generated_Source\PSoC4/CapSense_Filter.c ****             #endif /* (!CapSense_SENSOR_AUTO_RESET_EN) */
 388:Generated_Source\PSoC4/CapSense_Filter.c ****         }
 389:Generated_Source\PSoC4/CapSense_Filter.c **** 
 390:Generated_Source\PSoC4/CapSense_Filter.c ****         #if (CapSense_ENABLE == CapSense_TST_BSLN_DUPLICATION_EN)
 391:Generated_Source\PSoC4/CapSense_Filter.c ****             /* Update baseline inversion of every channel in sensor */
 392:Generated_Source\PSoC4/CapSense_Filter.c ****             ptrSensor->bslnInv[freqChannel] = ~(ptrSensor->bsln[freqChannel]);
 393:Generated_Source\PSoC4/CapSense_Filter.c ****             }
 394:Generated_Source\PSoC4/CapSense_Filter.c ****         #endif /* (CapSense_ENABLE == CapSense_TST_BSLN_DUPLICATION_EN) */
 395:Generated_Source\PSoC4/CapSense_Filter.c **** 
 396:Generated_Source\PSoC4/CapSense_Filter.c ****     }
 397:Generated_Source\PSoC4/CapSense_Filter.c ****     return result;
 398:Generated_Source\PSoC4/CapSense_Filter.c **** }
 399:Generated_Source\PSoC4/CapSense_Filter.c **** 
 400:Generated_Source\PSoC4/CapSense_Filter.c **** 
 401:Generated_Source\PSoC4/CapSense_Filter.c **** /*******************************************************************************
 402:Generated_Source\PSoC4/CapSense_Filter.c **** * Function Name: CapSense_InitializeAllBaselines
 403:Generated_Source\PSoC4/CapSense_Filter.c **** ****************************************************************************//**
 404:Generated_Source\PSoC4/CapSense_Filter.c **** *
 405:Generated_Source\PSoC4/CapSense_Filter.c **** * \brief
 406:Generated_Source\PSoC4/CapSense_Filter.c **** *  Initializes (or re-initializes) the baselines of all the sensors of all the widgets.
 407:Generated_Source\PSoC4/CapSense_Filter.c **** *
 408:Generated_Source\PSoC4/CapSense_Filter.c **** * \details
 409:Generated_Source\PSoC4/CapSense_Filter.c **** *  Initializes the baseline for all the sensors of all the widgets. Also, this function
 410:Generated_Source\PSoC4/CapSense_Filter.c **** *  can be used to re-initialize baselines. CapSense_Start() calls this
 411:Generated_Source\PSoC4/CapSense_Filter.c **** *  API as part of CapSense operation initialization.
 412:Generated_Source\PSoC4/CapSense_Filter.c **** *
 413:Generated_Source\PSoC4/CapSense_Filter.c **** *  If any raw count filter is enabled, make sure the raw count filter history is
 414:Generated_Source\PSoC4/CapSense_Filter.c **** *  initialized as well using one of these functions:
 415:Generated_Source\PSoC4/CapSense_Filter.c **** *  - CapSense_InitializeAllFilters().
 416:Generated_Source\PSoC4/CapSense_Filter.c **** *  - CapSense_InitializeWidgetFilter().
 417:Generated_Source\PSoC4/CapSense_Filter.c **** *
 418:Generated_Source\PSoC4/CapSense_Filter.c **** *******************************************************************************/
 419:Generated_Source\PSoC4/CapSense_Filter.c **** void CapSense_InitializeAllBaselines(void)
 420:Generated_Source\PSoC4/CapSense_Filter.c **** {
 421:Generated_Source\PSoC4/CapSense_Filter.c ****     uint32 widgetId;
 422:Generated_Source\PSoC4/CapSense_Filter.c **** 
 423:Generated_Source\PSoC4/CapSense_Filter.c ****     for(widgetId = CapSense_TOTAL_WIDGETS; widgetId-- > 0u;)
 424:Generated_Source\PSoC4/CapSense_Filter.c ****     {
 425:Generated_Source\PSoC4/CapSense_Filter.c ****         CapSense_InitializeWidgetBaseline(widgetId);
 426:Generated_Source\PSoC4/CapSense_Filter.c ****     }
 427:Generated_Source\PSoC4/CapSense_Filter.c **** }
 428:Generated_Source\PSoC4/CapSense_Filter.c **** 
 429:Generated_Source\PSoC4/CapSense_Filter.c **** 
ARM GAS  C:\Users\dell\AppData\Local\Temp\ccWEiAI7.s 			page 9


 430:Generated_Source\PSoC4/CapSense_Filter.c **** /*******************************************************************************
 431:Generated_Source\PSoC4/CapSense_Filter.c **** * Function Name: CapSense_InitializeWidgetBaseline
 432:Generated_Source\PSoC4/CapSense_Filter.c **** ****************************************************************************//**
 433:Generated_Source\PSoC4/CapSense_Filter.c **** *
 434:Generated_Source\PSoC4/CapSense_Filter.c **** * \brief
 435:Generated_Source\PSoC4/CapSense_Filter.c **** *  Initializes (or re-initializes) the baselines of all the sensors in a widget
 436:Generated_Source\PSoC4/CapSense_Filter.c **** *  specified by the input parameter.
 437:Generated_Source\PSoC4/CapSense_Filter.c **** *
 438:Generated_Source\PSoC4/CapSense_Filter.c **** * \details
 439:Generated_Source\PSoC4/CapSense_Filter.c **** *  Initializes (or re-initializes) the baseline for all the sensors of the
 440:Generated_Source\PSoC4/CapSense_Filter.c **** *  specified widget.
 441:Generated_Source\PSoC4/CapSense_Filter.c **** *
 442:Generated_Source\PSoC4/CapSense_Filter.c **** *  If any raw count filter is enabled, make sure the raw count filter history is
 443:Generated_Source\PSoC4/CapSense_Filter.c **** *  initialized as well using one of these functions:
 444:Generated_Source\PSoC4/CapSense_Filter.c **** *  - CapSense_InitializeAllFilters().
 445:Generated_Source\PSoC4/CapSense_Filter.c **** *  - CapSense_InitializeWidgetFilter().
 446:Generated_Source\PSoC4/CapSense_Filter.c **** *
 447:Generated_Source\PSoC4/CapSense_Filter.c **** * \param widgetId
 448:Generated_Source\PSoC4/CapSense_Filter.c **** *  Specifies the ID number of a widget to initialize the baseline of all the sensors
 449:Generated_Source\PSoC4/CapSense_Filter.c **** *  in the widget.
 450:Generated_Source\PSoC4/CapSense_Filter.c **** *  A macro for the widget ID can be found in the
 451:Generated_Source\PSoC4/CapSense_Filter.c **** *  CapSense Configuration header file defined as
 452:Generated_Source\PSoC4/CapSense_Filter.c **** *  CapSense_<WidgetName>_WDGT_ID.
 453:Generated_Source\PSoC4/CapSense_Filter.c **** *
 454:Generated_Source\PSoC4/CapSense_Filter.c **** *******************************************************************************/
 455:Generated_Source\PSoC4/CapSense_Filter.c **** void CapSense_InitializeWidgetBaseline(uint32 widgetId)
 456:Generated_Source\PSoC4/CapSense_Filter.c **** {
 457:Generated_Source\PSoC4/CapSense_Filter.c ****     uint32 sensorId;
 458:Generated_Source\PSoC4/CapSense_Filter.c ****     uint32 sensorsNumber;
 459:Generated_Source\PSoC4/CapSense_Filter.c **** 
 460:Generated_Source\PSoC4/CapSense_Filter.c ****     CapSense_FLASH_WD_STRUCT const *ptrWidget = &CapSense_dsFlash.wdgtArray[widgetId];
 461:Generated_Source\PSoC4/CapSense_Filter.c **** 
 462:Generated_Source\PSoC4/CapSense_Filter.c ****     /* Find total amount of sensors in specified widget */
 463:Generated_Source\PSoC4/CapSense_Filter.c ****     sensorsNumber = CapSense_GET_SNS_CNT_BY_PTR(ptrWidget);
 464:Generated_Source\PSoC4/CapSense_Filter.c **** 
 465:Generated_Source\PSoC4/CapSense_Filter.c ****     for(sensorId = sensorsNumber; sensorId-- > 0u;)
 466:Generated_Source\PSoC4/CapSense_Filter.c ****     {
 467:Generated_Source\PSoC4/CapSense_Filter.c ****         CapSense_InitializeSensorBaseline(widgetId, sensorId);
 468:Generated_Source\PSoC4/CapSense_Filter.c ****     }
 469:Generated_Source\PSoC4/CapSense_Filter.c **** }
 470:Generated_Source\PSoC4/CapSense_Filter.c **** 
 471:Generated_Source\PSoC4/CapSense_Filter.c **** 
 472:Generated_Source\PSoC4/CapSense_Filter.c **** /*******************************************************************************
 473:Generated_Source\PSoC4/CapSense_Filter.c **** * Function Name: CapSense_InitializeSensorBaseline
 474:Generated_Source\PSoC4/CapSense_Filter.c **** ****************************************************************************//**
 475:Generated_Source\PSoC4/CapSense_Filter.c **** *
 476:Generated_Source\PSoC4/CapSense_Filter.c **** * \brief
 477:Generated_Source\PSoC4/CapSense_Filter.c **** *  Initializes (or re-initializes) the baseline of a sensor in a widget specified
 478:Generated_Source\PSoC4/CapSense_Filter.c **** *  by the input parameters.
 479:Generated_Source\PSoC4/CapSense_Filter.c **** *
 480:Generated_Source\PSoC4/CapSense_Filter.c **** * \details
 481:Generated_Source\PSoC4/CapSense_Filter.c **** *  Initializes (or re-initializes) the baseline for a specified sensor within
 482:Generated_Source\PSoC4/CapSense_Filter.c **** *  a specified widget.
 483:Generated_Source\PSoC4/CapSense_Filter.c **** *
 484:Generated_Source\PSoC4/CapSense_Filter.c **** * \param widgetId
 485:Generated_Source\PSoC4/CapSense_Filter.c **** *  Specifies the ID number of a widget to initialize the baseline of the sensor
 486:Generated_Source\PSoC4/CapSense_Filter.c **** *  in the widget.
ARM GAS  C:\Users\dell\AppData\Local\Temp\ccWEiAI7.s 			page 10


 487:Generated_Source\PSoC4/CapSense_Filter.c **** *  A macro for the widget ID can be found in the
 488:Generated_Source\PSoC4/CapSense_Filter.c **** *  CapSense Configuration header file defined as
 489:Generated_Source\PSoC4/CapSense_Filter.c **** *  CapSense_<WidgetName>_WDGT_ID.
 490:Generated_Source\PSoC4/CapSense_Filter.c **** *
 491:Generated_Source\PSoC4/CapSense_Filter.c **** * \param sensorId
 492:Generated_Source\PSoC4/CapSense_Filter.c **** *  Specifies the ID number of the sensor within the widget to initialize its
 493:Generated_Source\PSoC4/CapSense_Filter.c **** *  baseline.
 494:Generated_Source\PSoC4/CapSense_Filter.c **** *  A macro for the sensor ID within a specified widget can be found in the
 495:Generated_Source\PSoC4/CapSense_Filter.c **** *  CapSense Configuration header file defined as
 496:Generated_Source\PSoC4/CapSense_Filter.c **** *  CapSense_<WidgetName>_SNS<SensorNumber>_ID.
 497:Generated_Source\PSoC4/CapSense_Filter.c **** *
 498:Generated_Source\PSoC4/CapSense_Filter.c **** *******************************************************************************/
 499:Generated_Source\PSoC4/CapSense_Filter.c **** void CapSense_InitializeSensorBaseline(uint32 widgetId, uint32 sensorId)
 500:Generated_Source\PSoC4/CapSense_Filter.c **** {
 501:Generated_Source\PSoC4/CapSense_Filter.c ****     CapSense_RAM_SNS_STRUCT *ptrSensor = NULL;
 502:Generated_Source\PSoC4/CapSense_Filter.c ****     CapSense_FLASH_WD_STRUCT const *ptrWidget = NULL;
 503:Generated_Source\PSoC4/CapSense_Filter.c ****     ptrWidget = &CapSense_dsFlash.wdgtArray[widgetId];
 504:Generated_Source\PSoC4/CapSense_Filter.c **** 
 505:Generated_Source\PSoC4/CapSense_Filter.c ****     /* Find pointer to specified sensor object */
 506:Generated_Source\PSoC4/CapSense_Filter.c ****     ptrSensor = ptrWidget->ptr2SnsRam;
 507:Generated_Source\PSoC4/CapSense_Filter.c ****     ptrSensor = &ptrSensor[sensorId];
 508:Generated_Source\PSoC4/CapSense_Filter.c **** 
 509:Generated_Source\PSoC4/CapSense_Filter.c ****     CapSense_FtInitializeBaseline(ptrSensor, (uint32)ptrWidget->wdgtType);
 510:Generated_Source\PSoC4/CapSense_Filter.c **** }
 511:Generated_Source\PSoC4/CapSense_Filter.c **** 
 512:Generated_Source\PSoC4/CapSense_Filter.c **** 
 513:Generated_Source\PSoC4/CapSense_Filter.c **** /*******************************************************************************
 514:Generated_Source\PSoC4/CapSense_Filter.c **** * Function Name: CapSense_FtInitializeBaseline
 515:Generated_Source\PSoC4/CapSense_Filter.c **** ****************************************************************************//**
 516:Generated_Source\PSoC4/CapSense_Filter.c **** *
 517:Generated_Source\PSoC4/CapSense_Filter.c **** * \brief
 518:Generated_Source\PSoC4/CapSense_Filter.c **** *  Initializes the baseline history for a sensor indicated by an input
 519:Generated_Source\PSoC4/CapSense_Filter.c **** *  parameter.
 520:Generated_Source\PSoC4/CapSense_Filter.c **** *
 521:Generated_Source\PSoC4/CapSense_Filter.c **** * \details
 522:Generated_Source\PSoC4/CapSense_Filter.c **** *  Initializes the baseline history for a sensor indicated by an input
 523:Generated_Source\PSoC4/CapSense_Filter.c **** *  parameter.
 524:Generated_Source\PSoC4/CapSense_Filter.c **** *
 525:Generated_Source\PSoC4/CapSense_Filter.c **** * \param *ptrSensor
 526:Generated_Source\PSoC4/CapSense_Filter.c **** *  The pointer to the sensor RAM object.
 527:Generated_Source\PSoC4/CapSense_Filter.c **** *
 528:Generated_Source\PSoC4/CapSense_Filter.c **** * \param wdType
 529:Generated_Source\PSoC4/CapSense_Filter.c **** *  Specifies the type of a widget.
 530:Generated_Source\PSoC4/CapSense_Filter.c **** *
 531:Generated_Source\PSoC4/CapSense_Filter.c **** *******************************************************************************/
 532:Generated_Source\PSoC4/CapSense_Filter.c **** void CapSense_FtInitializeBaseline(CapSense_RAM_SNS_STRUCT *ptrSensor, uint32 wdType)
 533:Generated_Source\PSoC4/CapSense_Filter.c **** {
 534:Generated_Source\PSoC4/CapSense_Filter.c ****     uint32 freqChannel;
 535:Generated_Source\PSoC4/CapSense_Filter.c **** 
 536:Generated_Source\PSoC4/CapSense_Filter.c ****     /* Apply baseline initialization to every channel in sensor */
 537:Generated_Source\PSoC4/CapSense_Filter.c ****     for(freqChannel = CapSense_NUM_SCAN_FREQS; freqChannel-- > 0u;)
 538:Generated_Source\PSoC4/CapSense_Filter.c ****     {
 539:Generated_Source\PSoC4/CapSense_Filter.c ****         CapSense_FtInitializeBaselineChannel(ptrSensor, wdType, freqChannel);
 540:Generated_Source\PSoC4/CapSense_Filter.c ****     }
 541:Generated_Source\PSoC4/CapSense_Filter.c **** }
 542:Generated_Source\PSoC4/CapSense_Filter.c **** 
 543:Generated_Source\PSoC4/CapSense_Filter.c **** 
ARM GAS  C:\Users\dell\AppData\Local\Temp\ccWEiAI7.s 			page 11


 544:Generated_Source\PSoC4/CapSense_Filter.c **** /*******************************************************************************
 545:Generated_Source\PSoC4/CapSense_Filter.c **** * Function Name: CapSense_FtInitializeBaselineChannel
 546:Generated_Source\PSoC4/CapSense_Filter.c **** ****************************************************************************//**
 547:Generated_Source\PSoC4/CapSense_Filter.c **** *
 548:Generated_Source\PSoC4/CapSense_Filter.c **** * \brief
 549:Generated_Source\PSoC4/CapSense_Filter.c **** *  Initializes the baseline history for a sensor indicated by an input
 550:Generated_Source\PSoC4/CapSense_Filter.c **** *  parameter.
 551:Generated_Source\PSoC4/CapSense_Filter.c **** *
 552:Generated_Source\PSoC4/CapSense_Filter.c **** * \details
 553:Generated_Source\PSoC4/CapSense_Filter.c **** *  Initializes the baseline history for a sensor indicated by an input
 554:Generated_Source\PSoC4/CapSense_Filter.c **** *  parameter.
 555:Generated_Source\PSoC4/CapSense_Filter.c **** *
 556:Generated_Source\PSoC4/CapSense_Filter.c **** * \param *ptrSensor
 557:Generated_Source\PSoC4/CapSense_Filter.c **** *  The pointer to the sensor RAM object.
 558:Generated_Source\PSoC4/CapSense_Filter.c **** *
 559:Generated_Source\PSoC4/CapSense_Filter.c **** * \param wdType
 560:Generated_Source\PSoC4/CapSense_Filter.c **** *  Specifies the type of a widget.
 561:Generated_Source\PSoC4/CapSense_Filter.c **** *
 562:Generated_Source\PSoC4/CapSense_Filter.c **** * \param channel
 563:Generated_Source\PSoC4/CapSense_Filter.c **** *  Specifies the number of the channel to be initialized.
 564:Generated_Source\PSoC4/CapSense_Filter.c **** *
 565:Generated_Source\PSoC4/CapSense_Filter.c **** *******************************************************************************/
 566:Generated_Source\PSoC4/CapSense_Filter.c **** void CapSense_FtInitializeBaselineChannel(CapSense_RAM_SNS_STRUCT *ptrSensor, uint32 wdType, uint32
 567:Generated_Source\PSoC4/CapSense_Filter.c **** {
  28              		.loc 1 567 0
  29              		.cfi_startproc
  30              		@ args = 0, pretend = 0, frame = 0
  31              		@ frame_needed = 0, uses_anonymous_args = 0
  32              		@ link register save eliminated.
  33              	.LVL0:
 568:Generated_Source\PSoC4/CapSense_Filter.c ****     #if (CapSense_BASELINE_TYPE == CapSense_IIR_BASELINE)
 569:Generated_Source\PSoC4/CapSense_Filter.c ****         if ((CapSense_WD_TYPE_ENUM)wdType != CapSense_WD_PROXIMITY_E)
  34              		.loc 1 569 0
  35 0000 FF23     		movs	r3, #255
  36 0002 1940     		ands	r1, r3
  37              	.LVL1:
  38 0004 0629     		cmp	r1, #6
  39 0006 02D0     		beq	.L2
 570:Generated_Source\PSoC4/CapSense_Filter.c ****         {
 571:Generated_Source\PSoC4/CapSense_Filter.c ****             #if (CapSense_REGULAR_SENSOR_EN)
 572:Generated_Source\PSoC4/CapSense_Filter.c ****                 #if (CapSense_REGULAR_IIR_BL_TYPE == CapSense_IIR_FILTER_PERFORMANCE)
 573:Generated_Source\PSoC4/CapSense_Filter.c ****                     ptrSensor->bslnExt[channel] = 0u;
  40              		.loc 1 573 0
  41 0008 8318     		adds	r3, r0, r2
  42 000a 0021     		movs	r1, #0
  43 000c 1971     		strb	r1, [r3, #4]
  44              	.L2:
 574:Generated_Source\PSoC4/CapSense_Filter.c ****                 #endif /* (CapSense_REGULAR_IIR_BL_TYPE == CapSense_IIR_FILTER_PERFORMANCE) */
 575:Generated_Source\PSoC4/CapSense_Filter.c ****             #endif /* (CapSense_REGULAR_SENSOR_EN) */
 576:Generated_Source\PSoC4/CapSense_Filter.c ****         }
 577:Generated_Source\PSoC4/CapSense_Filter.c ****         else
 578:Generated_Source\PSoC4/CapSense_Filter.c ****         {
 579:Generated_Source\PSoC4/CapSense_Filter.c ****             #if (CapSense_PROXIMITY_SENSOR_EN)
 580:Generated_Source\PSoC4/CapSense_Filter.c ****                 #if (CapSense_PROX_IIR_BL_TYPE == CapSense_IIR_FILTER_PERFORMANCE)
 581:Generated_Source\PSoC4/CapSense_Filter.c ****                     ptrSensor->bslnExt[channel] = 0u;
 582:Generated_Source\PSoC4/CapSense_Filter.c ****                 #endif /* (CapSense_PROX_IIR_BL_TYPE == CapSense_IIR_FILTER_PERFORMANCE) */
 583:Generated_Source\PSoC4/CapSense_Filter.c ****             #endif /* (CapSense_PROX_SENSOR_EN) */
ARM GAS  C:\Users\dell\AppData\Local\Temp\ccWEiAI7.s 			page 12


 584:Generated_Source\PSoC4/CapSense_Filter.c ****         }
 585:Generated_Source\PSoC4/CapSense_Filter.c ****     #else
 586:Generated_Source\PSoC4/CapSense_Filter.c ****         /* CapSense_BASELINE_TYPE == CapSense_BUCKET_BASELINE */
 587:Generated_Source\PSoC4/CapSense_Filter.c ****         ptrSensor->bslnExt[channel] = 0u;
 588:Generated_Source\PSoC4/CapSense_Filter.c ****     #endif /* (CapSense_BASELINE_TYPE == CapSense_IIR_BASELINE) */
 589:Generated_Source\PSoC4/CapSense_Filter.c **** 
 590:Generated_Source\PSoC4/CapSense_Filter.c ****     ptrSensor->bsln[channel] = ptrSensor->raw[channel];
  45              		.loc 1 590 0
  46 000e 5300     		lsls	r3, r2, #1
  47 0010 195A     		ldrh	r1, [r3, r0]
  48 0012 C318     		adds	r3, r0, r3
  49 0014 5980     		strh	r1, [r3, #2]
 591:Generated_Source\PSoC4/CapSense_Filter.c **** 
 592:Generated_Source\PSoC4/CapSense_Filter.c ****     #if (CapSense_ENABLE == CapSense_TST_BSLN_DUPLICATION_EN)
 593:Generated_Source\PSoC4/CapSense_Filter.c ****     /* Update baseline inversion of the channel in sensor */
 594:Generated_Source\PSoC4/CapSense_Filter.c ****         ptrSensor->bslnInv[channel] = ~(ptrSensor->bsln[channel]);
 595:Generated_Source\PSoC4/CapSense_Filter.c ****     #endif /* (CapSense_ENABLE == CapSense_TST_BSLN_DUPLICATION_EN) */
 596:Generated_Source\PSoC4/CapSense_Filter.c **** 
 597:Generated_Source\PSoC4/CapSense_Filter.c ****     ptrSensor->negBslnRstCnt[channel] = 0u;
  50              		.loc 1 597 0
  51 0016 8218     		adds	r2, r0, r2
  52              	.LVL2:
  53 0018 0023     		movs	r3, #0
  54 001a 1372     		strb	r3, [r2, #8]
 598:Generated_Source\PSoC4/CapSense_Filter.c **** }
  55              		.loc 1 598 0
  56              		@ sp needed
  57 001c 7047     		bx	lr
  58              		.cfi_endproc
  59              	.LFE10:
  60              		.size	CapSense_FtInitializeBaselineChannel, .-CapSense_FtInitializeBaselineChannel
  61 001e C046     		.section	.text.CapSense_FtInitializeBaseline,"ax",%progbits
  62              		.align	2
  63              		.global	CapSense_FtInitializeBaseline
  64              		.code	16
  65              		.thumb_func
  66              		.type	CapSense_FtInitializeBaseline, %function
  67              	CapSense_FtInitializeBaseline:
  68              	.LFB9:
 533:Generated_Source\PSoC4/CapSense_Filter.c ****     uint32 freqChannel;
  69              		.loc 1 533 0
  70              		.cfi_startproc
  71              		@ args = 0, pretend = 0, frame = 0
  72              		@ frame_needed = 0, uses_anonymous_args = 0
  73              	.LVL3:
  74 0000 70B5     		push	{r4, r5, r6, lr}
  75              		.cfi_def_cfa_offset 16
  76              		.cfi_offset 4, -16
  77              		.cfi_offset 5, -12
  78              		.cfi_offset 6, -8
  79              		.cfi_offset 14, -4
  80 0002 0600     		movs	r6, r0
  81 0004 0D00     		movs	r5, r1
  82              	.LVL4:
 537:Generated_Source\PSoC4/CapSense_Filter.c ****     {
  83              		.loc 1 537 0
  84 0006 0123     		movs	r3, #1
ARM GAS  C:\Users\dell\AppData\Local\Temp\ccWEiAI7.s 			page 13


  85 0008 05E0     		b	.L4
  86              	.LVL5:
  87              	.L5:
 539:Generated_Source\PSoC4/CapSense_Filter.c ****     }
  88              		.loc 1 539 0
  89 000a 2200     		movs	r2, r4
  90 000c 2900     		movs	r1, r5
  91 000e 3000     		movs	r0, r6
  92 0010 FFF7FEFF 		bl	CapSense_FtInitializeBaselineChannel
  93              	.LVL6:
 537:Generated_Source\PSoC4/CapSense_Filter.c ****     {
  94              		.loc 1 537 0
  95 0014 2300     		movs	r3, r4
  96              	.LVL7:
  97              	.L4:
 537:Generated_Source\PSoC4/CapSense_Filter.c ****     {
  98              		.loc 1 537 0 is_stmt 0 discriminator 1
  99 0016 5C1E     		subs	r4, r3, #1
 100              	.LVL8:
 101 0018 002B     		cmp	r3, #0
 102 001a F6D1     		bne	.L5
 541:Generated_Source\PSoC4/CapSense_Filter.c **** 
 103              		.loc 1 541 0 is_stmt 1
 104              		@ sp needed
 105              	.LVL9:
 106              	.LVL10:
 107              	.LVL11:
 108 001c 70BD     		pop	{r4, r5, r6, pc}
 109              		.cfi_endproc
 110              	.LFE9:
 111              		.size	CapSense_FtInitializeBaseline, .-CapSense_FtInitializeBaseline
 112 001e C046     		.section	.text.CapSense_InitializeSensorBaseline,"ax",%progbits
 113              		.align	2
 114              		.global	CapSense_InitializeSensorBaseline
 115              		.code	16
 116              		.thumb_func
 117              		.type	CapSense_InitializeSensorBaseline, %function
 118              	CapSense_InitializeSensorBaseline:
 119              	.LFB8:
 500:Generated_Source\PSoC4/CapSense_Filter.c ****     CapSense_RAM_SNS_STRUCT *ptrSensor = NULL;
 120              		.loc 1 500 0
 121              		.cfi_startproc
 122              		@ args = 0, pretend = 0, frame = 0
 123              		@ frame_needed = 0, uses_anonymous_args = 0
 124              	.LVL12:
 125 0000 70B5     		push	{r4, r5, r6, lr}
 126              		.cfi_def_cfa_offset 16
 127              		.cfi_offset 4, -16
 128              		.cfi_offset 5, -12
 129              		.cfi_offset 6, -8
 130              		.cfi_offset 14, -4
 131              	.LVL13:
 506:Generated_Source\PSoC4/CapSense_Filter.c ****     ptrSensor = &ptrSensor[sensorId];
 132              		.loc 1 506 0
 133 0002 094C     		ldr	r4, .L7
 134 0004 C300     		lsls	r3, r0, #3
 135 0006 1D1A     		subs	r5, r3, r0
ARM GAS  C:\Users\dell\AppData\Local\Temp\ccWEiAI7.s 			page 14


 136 0008 AA00     		lsls	r2, r5, #2
 137 000a A218     		adds	r2, r4, r2
 138 000c 9568     		ldr	r5, [r2, #8]
 139              	.LVL14:
 507:Generated_Source\PSoC4/CapSense_Filter.c **** 
 140              		.loc 1 507 0
 141 000e 8A00     		lsls	r2, r1, #2
 142 0010 5118     		adds	r1, r2, r1
 143              	.LVL15:
 144 0012 4A00     		lsls	r2, r1, #1
 145 0014 AA18     		adds	r2, r5, r2
 146              	.LVL16:
 509:Generated_Source\PSoC4/CapSense_Filter.c **** }
 147              		.loc 1 509 0
 148 0016 1B1A     		subs	r3, r3, r0
 149 0018 9900     		lsls	r1, r3, #2
 150 001a 6118     		adds	r1, r4, r1
 151 001c 897E     		ldrb	r1, [r1, #26]
 152 001e 1000     		movs	r0, r2
 153              	.LVL17:
 154 0020 FFF7FEFF 		bl	CapSense_FtInitializeBaseline
 155              	.LVL18:
 510:Generated_Source\PSoC4/CapSense_Filter.c **** 
 156              		.loc 1 510 0
 157              		@ sp needed
 158              	.LVL19:
 159 0024 70BD     		pop	{r4, r5, r6, pc}
 160              	.L8:
 161 0026 C046     		.align	2
 162              	.L7:
 163 0028 00000000 		.word	CapSense_dsFlash
 164              		.cfi_endproc
 165              	.LFE8:
 166              		.size	CapSense_InitializeSensorBaseline, .-CapSense_InitializeSensorBaseline
 167              		.section	.text.CapSense_InitializeWidgetBaseline,"ax",%progbits
 168              		.align	2
 169              		.global	CapSense_InitializeWidgetBaseline
 170              		.code	16
 171              		.thumb_func
 172              		.type	CapSense_InitializeWidgetBaseline, %function
 173              	CapSense_InitializeWidgetBaseline:
 174              	.LFB7:
 456:Generated_Source\PSoC4/CapSense_Filter.c ****     uint32 sensorId;
 175              		.loc 1 456 0
 176              		.cfi_startproc
 177              		@ args = 0, pretend = 0, frame = 0
 178              		@ frame_needed = 0, uses_anonymous_args = 0
 179              	.LVL20:
 180 0000 70B5     		push	{r4, r5, r6, lr}
 181              		.cfi_def_cfa_offset 16
 182              		.cfi_offset 4, -16
 183              		.cfi_offset 5, -12
 184              		.cfi_offset 6, -8
 185              		.cfi_offset 14, -4
 186 0002 0500     		movs	r5, r0
 187              	.LVL21:
 463:Generated_Source\PSoC4/CapSense_Filter.c **** 
ARM GAS  C:\Users\dell\AppData\Local\Temp\ccWEiAI7.s 			page 15


 188              		.loc 1 463 0
 189 0004 C200     		lsls	r2, r0, #3
 190 0006 121A     		subs	r2, r2, r0
 191 0008 9300     		lsls	r3, r2, #2
 192 000a 064A     		ldr	r2, .L12
 193 000c D318     		adds	r3, r2, r3
 194 000e 1B8B     		ldrh	r3, [r3, #24]
 195              	.LVL22:
 465:Generated_Source\PSoC4/CapSense_Filter.c ****     {
 196              		.loc 1 465 0
 197 0010 04E0     		b	.L10
 198              	.LVL23:
 199              	.L11:
 467:Generated_Source\PSoC4/CapSense_Filter.c ****     }
 200              		.loc 1 467 0
 201 0012 2100     		movs	r1, r4
 202 0014 2800     		movs	r0, r5
 203 0016 FFF7FEFF 		bl	CapSense_InitializeSensorBaseline
 204              	.LVL24:
 465:Generated_Source\PSoC4/CapSense_Filter.c ****     {
 205              		.loc 1 465 0
 206 001a 2300     		movs	r3, r4
 207              	.LVL25:
 208              	.L10:
 465:Generated_Source\PSoC4/CapSense_Filter.c ****     {
 209              		.loc 1 465 0 is_stmt 0 discriminator 1
 210 001c 5C1E     		subs	r4, r3, #1
 211              	.LVL26:
 212 001e 002B     		cmp	r3, #0
 213 0020 F7D1     		bne	.L11
 469:Generated_Source\PSoC4/CapSense_Filter.c **** 
 214              		.loc 1 469 0 is_stmt 1
 215              		@ sp needed
 216              	.LVL27:
 217              	.LVL28:
 218 0022 70BD     		pop	{r4, r5, r6, pc}
 219              	.L13:
 220              		.align	2
 221              	.L12:
 222 0024 00000000 		.word	CapSense_dsFlash
 223              		.cfi_endproc
 224              	.LFE7:
 225              		.size	CapSense_InitializeWidgetBaseline, .-CapSense_InitializeWidgetBaseline
 226              		.section	.text.CapSense_InitializeAllBaselines,"ax",%progbits
 227              		.align	2
 228              		.global	CapSense_InitializeAllBaselines
 229              		.code	16
 230              		.thumb_func
 231              		.type	CapSense_InitializeAllBaselines, %function
 232              	CapSense_InitializeAllBaselines:
 233              	.LFB6:
 420:Generated_Source\PSoC4/CapSense_Filter.c ****     uint32 widgetId;
 234              		.loc 1 420 0
 235              		.cfi_startproc
 236              		@ args = 0, pretend = 0, frame = 0
 237              		@ frame_needed = 0, uses_anonymous_args = 0
 238 0000 10B5     		push	{r4, lr}
ARM GAS  C:\Users\dell\AppData\Local\Temp\ccWEiAI7.s 			page 16


 239              		.cfi_def_cfa_offset 8
 240              		.cfi_offset 4, -8
 241              		.cfi_offset 14, -4
 242              	.LVL29:
 423:Generated_Source\PSoC4/CapSense_Filter.c ****     {
 243              		.loc 1 423 0
 244 0002 0423     		movs	r3, #4
 245 0004 03E0     		b	.L15
 246              	.LVL30:
 247              	.L16:
 425:Generated_Source\PSoC4/CapSense_Filter.c ****     }
 248              		.loc 1 425 0
 249 0006 2000     		movs	r0, r4
 250 0008 FFF7FEFF 		bl	CapSense_InitializeWidgetBaseline
 251              	.LVL31:
 423:Generated_Source\PSoC4/CapSense_Filter.c ****     {
 252              		.loc 1 423 0
 253 000c 2300     		movs	r3, r4
 254              	.LVL32:
 255              	.L15:
 423:Generated_Source\PSoC4/CapSense_Filter.c ****     {
 256              		.loc 1 423 0 is_stmt 0 discriminator 1
 257 000e 5C1E     		subs	r4, r3, #1
 258              	.LVL33:
 259 0010 002B     		cmp	r3, #0
 260 0012 F8D1     		bne	.L16
 427:Generated_Source\PSoC4/CapSense_Filter.c **** 
 261              		.loc 1 427 0 is_stmt 1
 262              		@ sp needed
 263              	.LVL34:
 264 0014 10BD     		pop	{r4, pc}
 265              		.cfi_endproc
 266              	.LFE6:
 267              		.size	CapSense_InitializeAllBaselines, .-CapSense_InitializeAllBaselines
 268 0016 C046     		.section	.text.CapSense_InitializeAverageInternal,"ax",%progbits
 269              		.align	2
 270              		.global	CapSense_InitializeAverageInternal
 271              		.code	16
 272              		.thumb_func
 273              		.type	CapSense_InitializeAverageInternal, %function
 274              	CapSense_InitializeAverageInternal:
 275              	.LFB15:
 599:Generated_Source\PSoC4/CapSense_Filter.c **** 
 600:Generated_Source\PSoC4/CapSense_Filter.c **** #if ((CapSense_ENABLE == CapSense_RC_FILTER_EN) || \
 601:Generated_Source\PSoC4/CapSense_Filter.c ****      (0u != (CapSense_CSD_AUTOTUNE & CapSense_CSD_SS_TH_EN)))
 602:Generated_Source\PSoC4/CapSense_Filter.c **** /*******************************************************************************
 603:Generated_Source\PSoC4/CapSense_Filter.c **** * Function Name: CapSense_InitializeAllFilters
 604:Generated_Source\PSoC4/CapSense_Filter.c **** ****************************************************************************//**
 605:Generated_Source\PSoC4/CapSense_Filter.c **** *
 606:Generated_Source\PSoC4/CapSense_Filter.c **** * \brief
 607:Generated_Source\PSoC4/CapSense_Filter.c **** *  Initializes (or re-initializes) the raw count filter history of all the
 608:Generated_Source\PSoC4/CapSense_Filter.c **** *  sensors of all the widgets.
 609:Generated_Source\PSoC4/CapSense_Filter.c **** *
 610:Generated_Source\PSoC4/CapSense_Filter.c **** * \details
 611:Generated_Source\PSoC4/CapSense_Filter.c **** *  Initializes the raw count filter history for all the sensors of all the
 612:Generated_Source\PSoC4/CapSense_Filter.c **** *  widgets. Also, this function can be used to re-initialize baselines.
 613:Generated_Source\PSoC4/CapSense_Filter.c **** *  CapSense_Start() calls this API as part of CapSense
ARM GAS  C:\Users\dell\AppData\Local\Temp\ccWEiAI7.s 			page 17


 614:Generated_Source\PSoC4/CapSense_Filter.c **** *  operation initialization.
 615:Generated_Source\PSoC4/CapSense_Filter.c **** *
 616:Generated_Source\PSoC4/CapSense_Filter.c **** *******************************************************************************/
 617:Generated_Source\PSoC4/CapSense_Filter.c **** void CapSense_InitializeAllFilters(void)
 618:Generated_Source\PSoC4/CapSense_Filter.c **** {
 619:Generated_Source\PSoC4/CapSense_Filter.c ****     uint32 widgetId;
 620:Generated_Source\PSoC4/CapSense_Filter.c **** 
 621:Generated_Source\PSoC4/CapSense_Filter.c ****     for(widgetId = CapSense_TOTAL_WIDGETS; widgetId-- > 0u;)
 622:Generated_Source\PSoC4/CapSense_Filter.c ****     {
 623:Generated_Source\PSoC4/CapSense_Filter.c ****         CapSense_InitializeWidgetFilter(widgetId);
 624:Generated_Source\PSoC4/CapSense_Filter.c ****     }
 625:Generated_Source\PSoC4/CapSense_Filter.c **** }
 626:Generated_Source\PSoC4/CapSense_Filter.c **** 
 627:Generated_Source\PSoC4/CapSense_Filter.c **** /*******************************************************************************
 628:Generated_Source\PSoC4/CapSense_Filter.c **** * Function Name: CapSense_InitializeWidgetFilter
 629:Generated_Source\PSoC4/CapSense_Filter.c **** ****************************************************************************//**
 630:Generated_Source\PSoC4/CapSense_Filter.c **** *
 631:Generated_Source\PSoC4/CapSense_Filter.c **** * \brief
 632:Generated_Source\PSoC4/CapSense_Filter.c **** *  Initializes (or re-initializes) the raw count filter history of all the sensors
 633:Generated_Source\PSoC4/CapSense_Filter.c **** *  in a widget specified by the input parameter.
 634:Generated_Source\PSoC4/CapSense_Filter.c **** *
 635:Generated_Source\PSoC4/CapSense_Filter.c **** * \details
 636:Generated_Source\PSoC4/CapSense_Filter.c **** *  Initializes (or re-initializes) the raw count filter history of all the sensors
 637:Generated_Source\PSoC4/CapSense_Filter.c **** *  in a widget specified by the input parameter.
 638:Generated_Source\PSoC4/CapSense_Filter.c **** *
 639:Generated_Source\PSoC4/CapSense_Filter.c **** * \param widgetId
 640:Generated_Source\PSoC4/CapSense_Filter.c **** *  Specifies the ID number of a widget to initialize the filter history of all
 641:Generated_Source\PSoC4/CapSense_Filter.c **** *  the sensors in the widget.
 642:Generated_Source\PSoC4/CapSense_Filter.c **** *  A macro for the widget ID can be found in the
 643:Generated_Source\PSoC4/CapSense_Filter.c **** *  CapSense Configuration header file defined as
 644:Generated_Source\PSoC4/CapSense_Filter.c **** *  CapSense_<WidgetName>_WDGT_ID.
 645:Generated_Source\PSoC4/CapSense_Filter.c **** *
 646:Generated_Source\PSoC4/CapSense_Filter.c **** *******************************************************************************/
 647:Generated_Source\PSoC4/CapSense_Filter.c **** void CapSense_InitializeWidgetFilter(uint32 widgetId)
 648:Generated_Source\PSoC4/CapSense_Filter.c **** {
 649:Generated_Source\PSoC4/CapSense_Filter.c ****     uint32 sensorId;
 650:Generated_Source\PSoC4/CapSense_Filter.c ****     uint32 sensorsNumber;
 651:Generated_Source\PSoC4/CapSense_Filter.c **** 
 652:Generated_Source\PSoC4/CapSense_Filter.c ****     CapSense_FLASH_WD_STRUCT const *ptrWidget;
 653:Generated_Source\PSoC4/CapSense_Filter.c ****     CapSense_RAM_SNS_STRUCT *ptrSensor = NULL;
 654:Generated_Source\PSoC4/CapSense_Filter.c ****     #if (CapSense_ENABLE == CapSense_RC_FILTER_EN)
 655:Generated_Source\PSoC4/CapSense_Filter.c ****         CapSense_PTR_FILTER_VARIANT ptrFilterHistObj;
 656:Generated_Source\PSoC4/CapSense_Filter.c ****     #endif
 657:Generated_Source\PSoC4/CapSense_Filter.c **** 
 658:Generated_Source\PSoC4/CapSense_Filter.c ****     #if (0u != (CapSense_CSD_AUTOTUNE & CapSense_CSD_SS_TH_EN))
 659:Generated_Source\PSoC4/CapSense_Filter.c ****         CapSense_RAM_WD_BASE_STRUCT *ptrWidgetRam;
 660:Generated_Source\PSoC4/CapSense_Filter.c ****         SMARTSENSE_CSD_NOISE_ENVELOPE_STRUCT *ptrNoiseEnvelope = NULL;
 661:Generated_Source\PSoC4/CapSense_Filter.c ****     #endif /* (0u != (CapSense_CSD_AUTOTUNE & CapSense_CSD_SS_TH_EN)) */
 662:Generated_Source\PSoC4/CapSense_Filter.c **** 
 663:Generated_Source\PSoC4/CapSense_Filter.c ****     ptrWidget = &CapSense_dsFlash.wdgtArray[widgetId];
 664:Generated_Source\PSoC4/CapSense_Filter.c **** 
 665:Generated_Source\PSoC4/CapSense_Filter.c ****     #if (0u != (CapSense_CSD_AUTOTUNE & CapSense_CSD_SS_TH_EN))
 666:Generated_Source\PSoC4/CapSense_Filter.c ****         ptrWidgetRam = ptrWidget->ptr2WdgtRam;
 667:Generated_Source\PSoC4/CapSense_Filter.c ****     #endif /* (0u != (CapSense_CSD_AUTOTUNE & CapSense_CSD_SS_TH_EN)) */
 668:Generated_Source\PSoC4/CapSense_Filter.c **** 
 669:Generated_Source\PSoC4/CapSense_Filter.c ****     /* Find total amount of sensors in specified widget */
 670:Generated_Source\PSoC4/CapSense_Filter.c ****     sensorsNumber = CapSense_GET_SNS_CNT_BY_PTR(ptrWidget);
ARM GAS  C:\Users\dell\AppData\Local\Temp\ccWEiAI7.s 			page 18


 671:Generated_Source\PSoC4/CapSense_Filter.c **** 
 672:Generated_Source\PSoC4/CapSense_Filter.c ****     for (sensorId = sensorsNumber; sensorId-- > 0u;)
 673:Generated_Source\PSoC4/CapSense_Filter.c ****     {
 674:Generated_Source\PSoC4/CapSense_Filter.c ****         /* Find pointer to specified sensor object */
 675:Generated_Source\PSoC4/CapSense_Filter.c ****         ptrSensor = ptrWidget->ptr2SnsRam;
 676:Generated_Source\PSoC4/CapSense_Filter.c ****         ptrSensor = &ptrSensor[sensorId];
 677:Generated_Source\PSoC4/CapSense_Filter.c **** 
 678:Generated_Source\PSoC4/CapSense_Filter.c ****         #if (CapSense_ENABLE == CapSense_RC_FILTER_EN)
 679:Generated_Source\PSoC4/CapSense_Filter.c ****             /* Find pointer to to specified filter sensor object */
 680:Generated_Source\PSoC4/CapSense_Filter.c ****             ptrFilterHistObj.ptr = ptrWidget->ptr2FltrHistory;
 681:Generated_Source\PSoC4/CapSense_Filter.c ****         #endif
 682:Generated_Source\PSoC4/CapSense_Filter.c **** 
 683:Generated_Source\PSoC4/CapSense_Filter.c ****         #if (0u != (CapSense_CSD_AUTOTUNE & CapSense_CSD_SS_TH_EN))
 684:Generated_Source\PSoC4/CapSense_Filter.c ****             /* Find pointer to specified noise envelope sensor object */
 685:Generated_Source\PSoC4/CapSense_Filter.c ****             ptrNoiseEnvelope = ptrWidget->ptr2NoiseEnvlp;
 686:Generated_Source\PSoC4/CapSense_Filter.c ****             ptrNoiseEnvelope = &ptrNoiseEnvelope[sensorId];
 687:Generated_Source\PSoC4/CapSense_Filter.c ****         #endif /* (0u != (CapSense_CSD_AUTOTUNE & CapSense_CSD_SS_TH_EN)) */
 688:Generated_Source\PSoC4/CapSense_Filter.c **** 
 689:Generated_Source\PSoC4/CapSense_Filter.c ****         if ((CapSense_WD_TYPE_ENUM)ptrWidget->wdgtType != CapSense_WD_PROXIMITY_E)
 690:Generated_Source\PSoC4/CapSense_Filter.c ****         {
 691:Generated_Source\PSoC4/CapSense_Filter.c ****             #if (0u != CapSense_REGULAR_RC_ALP_FILTER_EN)
 692:Generated_Source\PSoC4/CapSense_Filter.c ****                 ptrFilterHistObj.ptrAlp = &ptrFilterHistObj.ptrAlp[sensorId];
 693:Generated_Source\PSoC4/CapSense_Filter.c ****             #elif (0u != CapSense_REGULAR_RC_FILTER_EN)
 694:Generated_Source\PSoC4/CapSense_Filter.c ****                 ptrFilterHistObj.ptrRegular = &ptrFilterHistObj.ptrRegular[sensorId];
 695:Generated_Source\PSoC4/CapSense_Filter.c ****             #endif
 696:Generated_Source\PSoC4/CapSense_Filter.c ****         }
 697:Generated_Source\PSoC4/CapSense_Filter.c ****         else
 698:Generated_Source\PSoC4/CapSense_Filter.c ****         {
 699:Generated_Source\PSoC4/CapSense_Filter.c ****             #if (0u != CapSense_PROX_RC_ALP_FILTER_EN)
 700:Generated_Source\PSoC4/CapSense_Filter.c ****                 ptrFilterHistObj.ptrAlp = &ptrFilterHistObj.ptrAlp[sensorId];
 701:Generated_Source\PSoC4/CapSense_Filter.c ****             #elif (0u != CapSense_PROX_RC_FILTER_EN)
 702:Generated_Source\PSoC4/CapSense_Filter.c ****                 ptrFilterHistObj.ptrProx = &ptrFilterHistObj.ptrProx[sensorId];
 703:Generated_Source\PSoC4/CapSense_Filter.c ****             #endif /* #if (0u != CapSense_PROX_RC_FILTER_EN) */
 704:Generated_Source\PSoC4/CapSense_Filter.c ****         }
 705:Generated_Source\PSoC4/CapSense_Filter.c **** 
 706:Generated_Source\PSoC4/CapSense_Filter.c ****         #if (CapSense_REGULAR_RC_IIR_FILTER_EN || CapSense_PROX_RC_IIR_FILTER_EN)
 707:Generated_Source\PSoC4/CapSense_Filter.c ****             CapSense_InitializeIIRInternal(ptrFilterHistObj, ptrSensor, (uint32)ptrWidget->wdgtType
 708:Generated_Source\PSoC4/CapSense_Filter.c ****         #endif /* (CapSense_REGULAR_RC_IIR_FILTER_EN || CapSense_PROX_RC_IIR_FILTER_EN) */
 709:Generated_Source\PSoC4/CapSense_Filter.c **** 
 710:Generated_Source\PSoC4/CapSense_Filter.c ****         #if (CapSense_REGULAR_RC_MEDIAN_FILTER_EN || CapSense_PROX_RC_MEDIAN_FILTER_EN)
 711:Generated_Source\PSoC4/CapSense_Filter.c ****             CapSense_InitializeMedianInternal(ptrFilterHistObj, ptrSensor, (uint32)ptrWidget->wdgtT
 712:Generated_Source\PSoC4/CapSense_Filter.c ****         #endif /* (CapSense_REGULAR_RC_MEDIAN_FILTER_EN || CapSense_PROX_RC_MEDIAN_FILTER_EN) */
 713:Generated_Source\PSoC4/CapSense_Filter.c **** 
 714:Generated_Source\PSoC4/CapSense_Filter.c ****         #if (CapSense_REGULAR_RC_AVERAGE_FILTER_EN || CapSense_PROX_RC_AVERAGE_FILTER_EN)
 715:Generated_Source\PSoC4/CapSense_Filter.c ****             CapSense_InitializeAverageInternal(ptrFilterHistObj, ptrSensor, (uint32)ptrWidget->wdgt
 716:Generated_Source\PSoC4/CapSense_Filter.c ****         #endif /* (CapSense_REGULAR_RC_AVERAGE_FILTER_EN || CapSense_PROX_RC_AVERAGE_FILTER_EN) */
 717:Generated_Source\PSoC4/CapSense_Filter.c **** 
 718:Generated_Source\PSoC4/CapSense_Filter.c ****         #if (CapSense_ALP_FILTER_EN)
 719:Generated_Source\PSoC4/CapSense_Filter.c ****             CapSense_InitializeALPInternal(ptrFilterHistObj, ptrSensor, (uint32)ptrWidget->wdgtType
 720:Generated_Source\PSoC4/CapSense_Filter.c ****         #endif
 721:Generated_Source\PSoC4/CapSense_Filter.c **** 
 722:Generated_Source\PSoC4/CapSense_Filter.c ****         #if (0u != (CapSense_CSD_AUTOTUNE & CapSense_CSD_SS_TH_EN))
 723:Generated_Source\PSoC4/CapSense_Filter.c ****             if (CapSense_SENSE_METHOD_CSD_E ==
 724:Generated_Source\PSoC4/CapSense_Filter.c ****                 CapSense_GET_SENSE_METHOD(&CapSense_dsFlash.wdgtArray[widgetId]))
 725:Generated_Source\PSoC4/CapSense_Filter.c ****             {
 726:Generated_Source\PSoC4/CapSense_Filter.c ****                 SmartSense_InitializeNoiseEnvelope(ptrSensor->raw[0u], ptrWidgetRam->sigPFC, ptrNoi
 727:Generated_Source\PSoC4/CapSense_Filter.c ****             }
ARM GAS  C:\Users\dell\AppData\Local\Temp\ccWEiAI7.s 			page 19


 728:Generated_Source\PSoC4/CapSense_Filter.c ****         #endif /* (0u != (CapSense_CSD_AUTOTUNE & CapSense_CSD_SS_TH_EN)) */
 729:Generated_Source\PSoC4/CapSense_Filter.c ****     }
 730:Generated_Source\PSoC4/CapSense_Filter.c **** }
 731:Generated_Source\PSoC4/CapSense_Filter.c **** #endif /* ((CapSense_ENABLE == CapSense_RC_FILTER_EN) || \
 732:Generated_Source\PSoC4/CapSense_Filter.c ****            (0u != (CapSense_CSD_AUTOTUNE & CapSense_CSD_SS_TH_EN))) */
 733:Generated_Source\PSoC4/CapSense_Filter.c **** 
 734:Generated_Source\PSoC4/CapSense_Filter.c **** #if (CapSense_REGULAR_RC_IIR_FILTER_EN || CapSense_PROX_RC_IIR_FILTER_EN)
 735:Generated_Source\PSoC4/CapSense_Filter.c **** /*******************************************************************************
 736:Generated_Source\PSoC4/CapSense_Filter.c **** * Function Name: CapSense_InitializeIIR
 737:Generated_Source\PSoC4/CapSense_Filter.c **** ****************************************************************************//**
 738:Generated_Source\PSoC4/CapSense_Filter.c **** *
 739:Generated_Source\PSoC4/CapSense_Filter.c **** * \brief
 740:Generated_Source\PSoC4/CapSense_Filter.c **** *  Initialize the IIR filter history.
 741:Generated_Source\PSoC4/CapSense_Filter.c **** *
 742:Generated_Source\PSoC4/CapSense_Filter.c **** * \details
 743:Generated_Source\PSoC4/CapSense_Filter.c **** *  Initialize the IIR filter history.
 744:Generated_Source\PSoC4/CapSense_Filter.c **** *
 745:Generated_Source\PSoC4/CapSense_Filter.c **** * \param widgetId
 746:Generated_Source\PSoC4/CapSense_Filter.c **** *  Specifies the ID number of the widget.
 747:Generated_Source\PSoC4/CapSense_Filter.c **** *
 748:Generated_Source\PSoC4/CapSense_Filter.c **** * \param sensorId
 749:Generated_Source\PSoC4/CapSense_Filter.c **** *  Specifies the ID number of the sensor in the widget.
 750:Generated_Source\PSoC4/CapSense_Filter.c **** *
 751:Generated_Source\PSoC4/CapSense_Filter.c **** *******************************************************************************/
 752:Generated_Source\PSoC4/CapSense_Filter.c **** void CapSense_InitializeIIR(uint32 widgetId, uint32 sensorId)
 753:Generated_Source\PSoC4/CapSense_Filter.c **** {
 754:Generated_Source\PSoC4/CapSense_Filter.c ****     CapSense_FLASH_WD_STRUCT const *ptrWidget = &CapSense_dsFlash.wdgtArray[widgetId];
 755:Generated_Source\PSoC4/CapSense_Filter.c ****     CapSense_RAM_SNS_STRUCT *ptrSensor = NULL;
 756:Generated_Source\PSoC4/CapSense_Filter.c ****     CapSense_PTR_FILTER_VARIANT ptrFilterHistObj;
 757:Generated_Source\PSoC4/CapSense_Filter.c **** 
 758:Generated_Source\PSoC4/CapSense_Filter.c ****     /* Find pointer to specified sensor object */
 759:Generated_Source\PSoC4/CapSense_Filter.c ****     ptrSensor = ptrWidget->ptr2SnsRam;
 760:Generated_Source\PSoC4/CapSense_Filter.c ****     ptrSensor = &ptrSensor[sensorId];
 761:Generated_Source\PSoC4/CapSense_Filter.c **** 
 762:Generated_Source\PSoC4/CapSense_Filter.c ****     /* Find pointer to specified filter sensor object */
 763:Generated_Source\PSoC4/CapSense_Filter.c ****     ptrFilterHistObj.ptr = ptrWidget->ptr2FltrHistory;
 764:Generated_Source\PSoC4/CapSense_Filter.c **** 
 765:Generated_Source\PSoC4/CapSense_Filter.c ****     if ((CapSense_WD_TYPE_ENUM)ptrWidget->wdgtType != CapSense_WD_PROXIMITY_E)
 766:Generated_Source\PSoC4/CapSense_Filter.c ****     {
 767:Generated_Source\PSoC4/CapSense_Filter.c ****         #if (CapSense_REGULAR_SENSOR_EN)
 768:Generated_Source\PSoC4/CapSense_Filter.c ****             ptrFilterHistObj.ptrRegular = &ptrFilterHistObj.ptrRegular[sensorId];
 769:Generated_Source\PSoC4/CapSense_Filter.c ****         #endif /* (CapSense_REGULAR_SENSOR_EN) */
 770:Generated_Source\PSoC4/CapSense_Filter.c ****     }
 771:Generated_Source\PSoC4/CapSense_Filter.c ****     else
 772:Generated_Source\PSoC4/CapSense_Filter.c ****     {
 773:Generated_Source\PSoC4/CapSense_Filter.c ****         #if (CapSense_PROXIMITY_SENSOR_EN)
 774:Generated_Source\PSoC4/CapSense_Filter.c ****             ptrFilterHistObj.ptrProx = &ptrFilterHistObj.ptrProx[sensorId];
 775:Generated_Source\PSoC4/CapSense_Filter.c ****         #endif /* (CapSense_PROXIMITY_SENSOR_EN) */
 776:Generated_Source\PSoC4/CapSense_Filter.c ****     }
 777:Generated_Source\PSoC4/CapSense_Filter.c **** 
 778:Generated_Source\PSoC4/CapSense_Filter.c ****     CapSense_InitializeIIRInternal(ptrFilterHistObj, ptrSensor, (uint32)ptrWidget->wdgtType);
 779:Generated_Source\PSoC4/CapSense_Filter.c **** }
 780:Generated_Source\PSoC4/CapSense_Filter.c **** 
 781:Generated_Source\PSoC4/CapSense_Filter.c **** 
 782:Generated_Source\PSoC4/CapSense_Filter.c **** /*******************************************************************************
 783:Generated_Source\PSoC4/CapSense_Filter.c **** * Function Name: CapSense_RunIIR
 784:Generated_Source\PSoC4/CapSense_Filter.c **** ****************************************************************************//**
ARM GAS  C:\Users\dell\AppData\Local\Temp\ccWEiAI7.s 			page 20


 785:Generated_Source\PSoC4/CapSense_Filter.c **** *
 786:Generated_Source\PSoC4/CapSense_Filter.c **** * \brief
 787:Generated_Source\PSoC4/CapSense_Filter.c **** *  Executes the IIR filter algorithm on a sensor indicated by an input
 788:Generated_Source\PSoC4/CapSense_Filter.c **** *  parameter.
 789:Generated_Source\PSoC4/CapSense_Filter.c **** *
 790:Generated_Source\PSoC4/CapSense_Filter.c **** * \details
 791:Generated_Source\PSoC4/CapSense_Filter.c **** *  Executes the IIR filter algorithm on a sensor indicated by an input
 792:Generated_Source\PSoC4/CapSense_Filter.c **** *  parameter.
 793:Generated_Source\PSoC4/CapSense_Filter.c **** *
 794:Generated_Source\PSoC4/CapSense_Filter.c **** * \param widgetId
 795:Generated_Source\PSoC4/CapSense_Filter.c **** *  Specifies the ID number of the widget.
 796:Generated_Source\PSoC4/CapSense_Filter.c **** *
 797:Generated_Source\PSoC4/CapSense_Filter.c **** * \param sensorId
 798:Generated_Source\PSoC4/CapSense_Filter.c **** *  Specifies the ID number of the sensor in the widget.
 799:Generated_Source\PSoC4/CapSense_Filter.c **** *
 800:Generated_Source\PSoC4/CapSense_Filter.c **** *******************************************************************************/
 801:Generated_Source\PSoC4/CapSense_Filter.c **** void CapSense_RunIIR(uint32 widgetId, uint32 sensorId)
 802:Generated_Source\PSoC4/CapSense_Filter.c **** {
 803:Generated_Source\PSoC4/CapSense_Filter.c ****     CapSense_FLASH_WD_STRUCT const *ptrWidget = &CapSense_dsFlash.wdgtArray[widgetId];
 804:Generated_Source\PSoC4/CapSense_Filter.c ****     CapSense_RAM_SNS_STRUCT *ptrSensor = NULL;
 805:Generated_Source\PSoC4/CapSense_Filter.c ****     CapSense_PTR_FILTER_VARIANT ptrFilterHistObj;
 806:Generated_Source\PSoC4/CapSense_Filter.c **** 
 807:Generated_Source\PSoC4/CapSense_Filter.c ****     /* Find pointer to specified sensor object */
 808:Generated_Source\PSoC4/CapSense_Filter.c ****     ptrSensor = ptrWidget->ptr2SnsRam;
 809:Generated_Source\PSoC4/CapSense_Filter.c ****     ptrSensor = &ptrSensor[sensorId];
 810:Generated_Source\PSoC4/CapSense_Filter.c **** 
 811:Generated_Source\PSoC4/CapSense_Filter.c ****     /* Find pointer to specified filter sensor object */
 812:Generated_Source\PSoC4/CapSense_Filter.c ****     ptrFilterHistObj.ptr = ptrWidget->ptr2FltrHistory;
 813:Generated_Source\PSoC4/CapSense_Filter.c **** 
 814:Generated_Source\PSoC4/CapSense_Filter.c ****     if ((CapSense_WD_TYPE_ENUM)ptrWidget->wdgtType != CapSense_WD_PROXIMITY_E)
 815:Generated_Source\PSoC4/CapSense_Filter.c ****     {
 816:Generated_Source\PSoC4/CapSense_Filter.c ****         #if (CapSense_REGULAR_SENSOR_EN)
 817:Generated_Source\PSoC4/CapSense_Filter.c ****             ptrFilterHistObj.ptrRegular = &ptrFilterHistObj.ptrRegular[sensorId];
 818:Generated_Source\PSoC4/CapSense_Filter.c ****         #endif /* (CapSense_REGULAR_SENSOR_EN) */
 819:Generated_Source\PSoC4/CapSense_Filter.c ****     }
 820:Generated_Source\PSoC4/CapSense_Filter.c ****     else
 821:Generated_Source\PSoC4/CapSense_Filter.c ****     {
 822:Generated_Source\PSoC4/CapSense_Filter.c ****         #if (CapSense_PROXIMITY_SENSOR_EN)
 823:Generated_Source\PSoC4/CapSense_Filter.c ****             ptrFilterHistObj.ptrProx = &ptrFilterHistObj.ptrProx[sensorId];
 824:Generated_Source\PSoC4/CapSense_Filter.c ****         #endif /* (CapSense_PROXIMITY_SENSOR_EN) */
 825:Generated_Source\PSoC4/CapSense_Filter.c ****     }
 826:Generated_Source\PSoC4/CapSense_Filter.c **** 
 827:Generated_Source\PSoC4/CapSense_Filter.c ****     CapSense_RunIIRInternal(ptrFilterHistObj, ptrSensor, (uint32)ptrWidget->wdgtType);
 828:Generated_Source\PSoC4/CapSense_Filter.c **** }
 829:Generated_Source\PSoC4/CapSense_Filter.c **** 
 830:Generated_Source\PSoC4/CapSense_Filter.c **** /*******************************************************************************
 831:Generated_Source\PSoC4/CapSense_Filter.c **** * Function Name: CapSense_InitializeIIRInternal
 832:Generated_Source\PSoC4/CapSense_Filter.c **** ****************************************************************************//**
 833:Generated_Source\PSoC4/CapSense_Filter.c **** *
 834:Generated_Source\PSoC4/CapSense_Filter.c **** * \brief
 835:Generated_Source\PSoC4/CapSense_Filter.c **** *  Initializes the IIR filter history.
 836:Generated_Source\PSoC4/CapSense_Filter.c **** *
 837:Generated_Source\PSoC4/CapSense_Filter.c **** * \details
 838:Generated_Source\PSoC4/CapSense_Filter.c **** *  Initializes the IIR filter history.
 839:Generated_Source\PSoC4/CapSense_Filter.c **** *
 840:Generated_Source\PSoC4/CapSense_Filter.c **** * \param ptrFilterHistObj
 841:Generated_Source\PSoC4/CapSense_Filter.c **** *  The pointer to the filter RAM object of the sensor.
ARM GAS  C:\Users\dell\AppData\Local\Temp\ccWEiAI7.s 			page 21


 842:Generated_Source\PSoC4/CapSense_Filter.c **** *
 843:Generated_Source\PSoC4/CapSense_Filter.c **** * \param ptrSensorObj
 844:Generated_Source\PSoC4/CapSense_Filter.c **** *  The pointer to the sensor RAM object of the sensor.
 845:Generated_Source\PSoC4/CapSense_Filter.c **** *
 846:Generated_Source\PSoC4/CapSense_Filter.c **** * \param wdType
 847:Generated_Source\PSoC4/CapSense_Filter.c **** *  Specifies the type of a widget.
 848:Generated_Source\PSoC4/CapSense_Filter.c **** *
 849:Generated_Source\PSoC4/CapSense_Filter.c **** *******************************************************************************/
 850:Generated_Source\PSoC4/CapSense_Filter.c **** void CapSense_InitializeIIRInternal(CapSense_PTR_FILTER_VARIANT ptrFilterHistObj,
 851:Generated_Source\PSoC4/CapSense_Filter.c ****                                             CapSense_RAM_SNS_STRUCT *ptrSensorObj, uint32 wdType)
 852:Generated_Source\PSoC4/CapSense_Filter.c **** {
 853:Generated_Source\PSoC4/CapSense_Filter.c ****     uint32 freqChannel;
 854:Generated_Source\PSoC4/CapSense_Filter.c **** 
 855:Generated_Source\PSoC4/CapSense_Filter.c ****     for(freqChannel = CapSense_NUM_SCAN_FREQS; freqChannel-- > 0u;)
 856:Generated_Source\PSoC4/CapSense_Filter.c ****     {
 857:Generated_Source\PSoC4/CapSense_Filter.c ****         if ((CapSense_WD_TYPE_ENUM)wdType != CapSense_WD_PROXIMITY_E)
 858:Generated_Source\PSoC4/CapSense_Filter.c ****         {
 859:Generated_Source\PSoC4/CapSense_Filter.c ****             #if (CapSense_REGULAR_SENSOR_EN && CapSense_REGULAR_RC_IIR_FILTER_EN)
 860:Generated_Source\PSoC4/CapSense_Filter.c ****                 #if (CapSense_REGULAR_IIR_RC_TYPE == CapSense_IIR_FILTER_PERFORMANCE)
 861:Generated_Source\PSoC4/CapSense_Filter.c ****                     ptrFilterHistObj.ptrRegular->regularChannel[freqChannel].iirHistory = ptrSensor
 862:Generated_Source\PSoC4/CapSense_Filter.c ****                     ptrFilterHistObj.ptrRegular->regularChannel[freqChannel].iirHistoryLow = 0u;
 863:Generated_Source\PSoC4/CapSense_Filter.c ****                 #else
 864:Generated_Source\PSoC4/CapSense_Filter.c ****                     ptrFilterHistObj.ptrRegular->regularChannel[freqChannel].iirHistory = ptrSensor
 865:Generated_Source\PSoC4/CapSense_Filter.c ****                 #endif /* (CapSense_REGULAR_IIR_RC_TYPE == CapSense_IIR_FILTER_PERFORMANCE) */
 866:Generated_Source\PSoC4/CapSense_Filter.c ****             #endif /* (CapSense_REGULAR_SENSOR_EN) */
 867:Generated_Source\PSoC4/CapSense_Filter.c ****         }
 868:Generated_Source\PSoC4/CapSense_Filter.c ****         else
 869:Generated_Source\PSoC4/CapSense_Filter.c ****         {
 870:Generated_Source\PSoC4/CapSense_Filter.c ****             #if (CapSense_PROXIMITY_SENSOR_EN && CapSense_PROX_RC_IIR_FILTER_EN)
 871:Generated_Source\PSoC4/CapSense_Filter.c ****                 #if (CapSense_PROX_IIR_RC_TYPE == CapSense_IIR_FILTER_PERFORMANCE)
 872:Generated_Source\PSoC4/CapSense_Filter.c ****                     ptrFilterHistObj.ptrProx->proxChannel[freqChannel].iirHistory = ptrSensorObj->r
 873:Generated_Source\PSoC4/CapSense_Filter.c ****                     ptrFilterHistObj.ptrProx->proxChannel[freqChannel].iirHistoryLow = 0u;
 874:Generated_Source\PSoC4/CapSense_Filter.c ****                 #else
 875:Generated_Source\PSoC4/CapSense_Filter.c ****                     ptrFilterHistObj.ptrProx->proxChannel[freqChannel].iirHistory = ptrSensorObj->r
 876:Generated_Source\PSoC4/CapSense_Filter.c ****                 #endif /* (CapSense_PROX_IIR_RC_TYPE == CapSense_IIR_FILTER_PERFORMANCE) */
 877:Generated_Source\PSoC4/CapSense_Filter.c ****             #endif /* (CapSense_PROX_SENSOR_EN) */
 878:Generated_Source\PSoC4/CapSense_Filter.c ****         }
 879:Generated_Source\PSoC4/CapSense_Filter.c ****     }
 880:Generated_Source\PSoC4/CapSense_Filter.c **** }
 881:Generated_Source\PSoC4/CapSense_Filter.c **** 
 882:Generated_Source\PSoC4/CapSense_Filter.c **** 
 883:Generated_Source\PSoC4/CapSense_Filter.c **** /*******************************************************************************
 884:Generated_Source\PSoC4/CapSense_Filter.c **** * Function Name: CapSense_RunIIRInternal
 885:Generated_Source\PSoC4/CapSense_Filter.c **** ****************************************************************************//**
 886:Generated_Source\PSoC4/CapSense_Filter.c **** *
 887:Generated_Source\PSoC4/CapSense_Filter.c **** * \brief
 888:Generated_Source\PSoC4/CapSense_Filter.c **** *  Run the IIR filter.
 889:Generated_Source\PSoC4/CapSense_Filter.c **** *
 890:Generated_Source\PSoC4/CapSense_Filter.c **** * \details
 891:Generated_Source\PSoC4/CapSense_Filter.c **** *  Run the IIR filter.
 892:Generated_Source\PSoC4/CapSense_Filter.c **** *
 893:Generated_Source\PSoC4/CapSense_Filter.c **** * \param ptrFilterHistObj
 894:Generated_Source\PSoC4/CapSense_Filter.c **** *  The pointer to the filter RAM object of the sensor.
 895:Generated_Source\PSoC4/CapSense_Filter.c **** *
 896:Generated_Source\PSoC4/CapSense_Filter.c **** * \param ptrSensorObj
 897:Generated_Source\PSoC4/CapSense_Filter.c **** *  The pointer to the sensor RAM object of the sensor.
 898:Generated_Source\PSoC4/CapSense_Filter.c **** *
ARM GAS  C:\Users\dell\AppData\Local\Temp\ccWEiAI7.s 			page 22


 899:Generated_Source\PSoC4/CapSense_Filter.c **** * \param wdType
 900:Generated_Source\PSoC4/CapSense_Filter.c **** *  Specifies the type of a widget.
 901:Generated_Source\PSoC4/CapSense_Filter.c **** *
 902:Generated_Source\PSoC4/CapSense_Filter.c **** *******************************************************************************/
 903:Generated_Source\PSoC4/CapSense_Filter.c **** void CapSense_RunIIRInternal(CapSense_PTR_FILTER_VARIANT ptrFilterHistObj,
 904:Generated_Source\PSoC4/CapSense_Filter.c ****                                      CapSense_RAM_SNS_STRUCT *ptrSensorObj, uint32 wdType)
 905:Generated_Source\PSoC4/CapSense_Filter.c **** {
 906:Generated_Source\PSoC4/CapSense_Filter.c ****     uint32 freqChannel;
 907:Generated_Source\PSoC4/CapSense_Filter.c ****     uint32 temp;
 908:Generated_Source\PSoC4/CapSense_Filter.c **** 
 909:Generated_Source\PSoC4/CapSense_Filter.c ****     for(freqChannel = CapSense_NUM_SCAN_FREQS; freqChannel-- > 0u;)
 910:Generated_Source\PSoC4/CapSense_Filter.c ****     {
 911:Generated_Source\PSoC4/CapSense_Filter.c ****         if ((CapSense_WD_TYPE_ENUM)wdType != CapSense_WD_PROXIMITY_E)
 912:Generated_Source\PSoC4/CapSense_Filter.c ****         {
 913:Generated_Source\PSoC4/CapSense_Filter.c ****             #if (CapSense_REGULAR_SENSOR_EN && CapSense_REGULAR_RC_IIR_FILTER_EN)
 914:Generated_Source\PSoC4/CapSense_Filter.c ****                 #if (CapSense_REGULAR_IIR_RC_TYPE == CapSense_IIR_FILTER_PERFORMANCE)
 915:Generated_Source\PSoC4/CapSense_Filter.c ****                     temp = ((uint32)ptrFilterHistObj.ptrRegular->regularChannel[freqChannel].iirHis
 916:Generated_Source\PSoC4/CapSense_Filter.c ****                     temp |= ptrFilterHistObj.ptrRegular->regularChannel[freqChannel].iirHistoryLow;
 917:Generated_Source\PSoC4/CapSense_Filter.c ****                     temp = CapSense_FtIIR1stOrder((uint32)ptrSensorObj->raw[freqChannel],
 918:Generated_Source\PSoC4/CapSense_Filter.c ****                                                         temp,
 919:Generated_Source\PSoC4/CapSense_Filter.c ****                                                         CapSense_REGULAR_IIR_RC_N,
 920:Generated_Source\PSoC4/CapSense_Filter.c ****                                                         CapSense_REGULAR_IIR_RC_SHIFT);
 921:Generated_Source\PSoC4/CapSense_Filter.c ****                     ptrFilterHistObj.ptrRegular->regularChannel[freqChannel].iirHistory = LO16(temp
 922:Generated_Source\PSoC4/CapSense_Filter.c ****                     ptrFilterHistObj.ptrRegular->regularChannel[freqChannel].iirHistoryLow = LO8(te
 923:Generated_Source\PSoC4/CapSense_Filter.c ****                     ptrSensorObj->raw[freqChannel] = LO16(temp >>CapSense_REGULAR_IIR_RC_SHIFT);
 924:Generated_Source\PSoC4/CapSense_Filter.c ****                 #else
 925:Generated_Source\PSoC4/CapSense_Filter.c ****                     temp =CapSense_FtIIR1stOrder((uint32)ptrSensorObj->raw[freqChannel],
 926:Generated_Source\PSoC4/CapSense_Filter.c ****                                                         (uint32)ptrFilterHistObj.ptrRegular->regula
 927:Generated_Source\PSoC4/CapSense_Filter.c ****                                                         CapSense_REGULAR_IIR_RC_N,
 928:Generated_Source\PSoC4/CapSense_Filter.c ****                                                         CapSense_REGULAR_IIR_RC_SHIFT);
 929:Generated_Source\PSoC4/CapSense_Filter.c ****                     ptrFilterHistObj.ptrRegular->regularChannel[freqChannel].iirHistory = LO16(temp
 930:Generated_Source\PSoC4/CapSense_Filter.c ****                     ptrSensorObj->raw[freqChannel] = LO16(temp >>CapSense_REGULAR_IIR_RC_SHIFT);
 931:Generated_Source\PSoC4/CapSense_Filter.c ****                 #endif /* (CapSense_REGULAR_IIR_RC_TYPE == CapSense_IIR_FILTER_PERFORMANCE) */
 932:Generated_Source\PSoC4/CapSense_Filter.c ****             #endif /* (CapSense_REGULAR_SENSOR_EN) */
 933:Generated_Source\PSoC4/CapSense_Filter.c ****         }
 934:Generated_Source\PSoC4/CapSense_Filter.c ****         else
 935:Generated_Source\PSoC4/CapSense_Filter.c ****         {
 936:Generated_Source\PSoC4/CapSense_Filter.c ****             #if (CapSense_PROXIMITY_SENSOR_EN && CapSense_PROX_RC_IIR_FILTER_EN)
 937:Generated_Source\PSoC4/CapSense_Filter.c ****                 #if (CapSense_PROX_IIR_RC_TYPE == CapSense_IIR_FILTER_PERFORMANCE)
 938:Generated_Source\PSoC4/CapSense_Filter.c ****                     temp =  ptrFilterHistObj.ptrProx->proxChannel[freqChannel].iirHistory << CapSen
 939:Generated_Source\PSoC4/CapSense_Filter.c ****                     temp |= ptrFilterHistObj.ptrProx->proxChannel[freqChannel].iirHistoryLow;
 940:Generated_Source\PSoC4/CapSense_Filter.c ****                     temp =CapSense_FtIIR1stOrder((uint32)ptrSensorObj->raw[freqChannel],
 941:Generated_Source\PSoC4/CapSense_Filter.c ****                                                         temp,
 942:Generated_Source\PSoC4/CapSense_Filter.c ****                                                         CapSense_PROX_IIR_RC_N,
 943:Generated_Source\PSoC4/CapSense_Filter.c ****                                                         CapSense_PROX_IIR_RC_SHIFT);
 944:Generated_Source\PSoC4/CapSense_Filter.c ****                     ptrFilterHistObj.ptrProx->proxChannel[freqChannel].iirHistory = LO16(temp >>Cap
 945:Generated_Source\PSoC4/CapSense_Filter.c ****                     ptrFilterHistObj.ptrProx->proxChannel[freqChannel].iirHistoryLow = LO8(temp);
 946:Generated_Source\PSoC4/CapSense_Filter.c ****                     ptrSensorObj->raw[freqChannel] = LO16(temp >>CapSense_PROX_IIR_RC_SHIFT);
 947:Generated_Source\PSoC4/CapSense_Filter.c ****                 #else
 948:Generated_Source\PSoC4/CapSense_Filter.c ****                     temp =CapSense_FtIIR1stOrder((uint32)ptrSensorObj->raw[freqChannel],
 949:Generated_Source\PSoC4/CapSense_Filter.c ****                                                         (uint32)ptrFilterHistObj.ptrProx->proxChann
 950:Generated_Source\PSoC4/CapSense_Filter.c ****                                                         CapSense_PROX_IIR_RC_N,
 951:Generated_Source\PSoC4/CapSense_Filter.c ****                                                         CapSense_PROX_IIR_RC_SHIFT);
 952:Generated_Source\PSoC4/CapSense_Filter.c ****                     ptrFilterHistObj.ptrProx->proxChannel[freqChannel].iirHistory = LO16(temp);
 953:Generated_Source\PSoC4/CapSense_Filter.c ****                     ptrSensorObj->raw[freqChannel] = LO16(temp >>CapSense_PROX_IIR_RC_SHIFT);
 954:Generated_Source\PSoC4/CapSense_Filter.c ****                 #endif /* (CapSense_PROX_IIR_RC_TYPE == CapSense_IIR_FILTER_PERFORMANCE) */
 955:Generated_Source\PSoC4/CapSense_Filter.c ****             #endif /* (CapSense_PROX_SENSOR_EN) */
ARM GAS  C:\Users\dell\AppData\Local\Temp\ccWEiAI7.s 			page 23


 956:Generated_Source\PSoC4/CapSense_Filter.c ****         }
 957:Generated_Source\PSoC4/CapSense_Filter.c ****     }
 958:Generated_Source\PSoC4/CapSense_Filter.c **** }
 959:Generated_Source\PSoC4/CapSense_Filter.c **** #endif /* #if (CapSense_REGULAR_RC_IIR_FILTER_EN || CapSense_PROX_RC_IIR_FILTER_EN) */
 960:Generated_Source\PSoC4/CapSense_Filter.c **** 
 961:Generated_Source\PSoC4/CapSense_Filter.c **** 
 962:Generated_Source\PSoC4/CapSense_Filter.c **** #if (CapSense_REGULAR_RC_MEDIAN_FILTER_EN || CapSense_PROX_RC_MEDIAN_FILTER_EN)
 963:Generated_Source\PSoC4/CapSense_Filter.c **** 
 964:Generated_Source\PSoC4/CapSense_Filter.c **** /*******************************************************************************
 965:Generated_Source\PSoC4/CapSense_Filter.c **** * Function Name: CapSense_InitializeMedian
 966:Generated_Source\PSoC4/CapSense_Filter.c **** ****************************************************************************//**
 967:Generated_Source\PSoC4/CapSense_Filter.c **** *
 968:Generated_Source\PSoC4/CapSense_Filter.c **** * \brief
 969:Generated_Source\PSoC4/CapSense_Filter.c **** *  Initializes the Median filter history.
 970:Generated_Source\PSoC4/CapSense_Filter.c **** *
 971:Generated_Source\PSoC4/CapSense_Filter.c **** * \details
 972:Generated_Source\PSoC4/CapSense_Filter.c **** *  Initializes the Median filter history.
 973:Generated_Source\PSoC4/CapSense_Filter.c **** *
 974:Generated_Source\PSoC4/CapSense_Filter.c **** * \param widgetId
 975:Generated_Source\PSoC4/CapSense_Filter.c **** *  Specifies the ID number of the widget.
 976:Generated_Source\PSoC4/CapSense_Filter.c **** *
 977:Generated_Source\PSoC4/CapSense_Filter.c **** * \param sensorId
 978:Generated_Source\PSoC4/CapSense_Filter.c **** *  Specifies the ID number of the sensor in the widget.
 979:Generated_Source\PSoC4/CapSense_Filter.c **** *
 980:Generated_Source\PSoC4/CapSense_Filter.c **** *******************************************************************************/
 981:Generated_Source\PSoC4/CapSense_Filter.c **** void CapSense_InitializeMedian(uint32 widgetId, uint32 sensorId)
 982:Generated_Source\PSoC4/CapSense_Filter.c **** {
 983:Generated_Source\PSoC4/CapSense_Filter.c ****     CapSense_FLASH_WD_STRUCT const *ptrWidget = &CapSense_dsFlash.wdgtArray[widgetId];
 984:Generated_Source\PSoC4/CapSense_Filter.c ****     CapSense_RAM_SNS_STRUCT *ptrSensor = NULL;
 985:Generated_Source\PSoC4/CapSense_Filter.c ****     CapSense_PTR_FILTER_VARIANT ptrFilterHistObj;
 986:Generated_Source\PSoC4/CapSense_Filter.c **** 
 987:Generated_Source\PSoC4/CapSense_Filter.c ****     /* Find pointer to specified sensor object */
 988:Generated_Source\PSoC4/CapSense_Filter.c ****     ptrSensor = ptrWidget->ptr2SnsRam;
 989:Generated_Source\PSoC4/CapSense_Filter.c ****     ptrSensor = &ptrSensor[sensorId];
 990:Generated_Source\PSoC4/CapSense_Filter.c **** 
 991:Generated_Source\PSoC4/CapSense_Filter.c ****     /* Find pointer to specified filter sensor object */
 992:Generated_Source\PSoC4/CapSense_Filter.c ****     ptrFilterHistObj.ptr = ptrWidget->ptr2FltrHistory;
 993:Generated_Source\PSoC4/CapSense_Filter.c **** 
 994:Generated_Source\PSoC4/CapSense_Filter.c ****     if ((CapSense_WD_TYPE_ENUM)ptrWidget->wdgtType != CapSense_WD_PROXIMITY_E)
 995:Generated_Source\PSoC4/CapSense_Filter.c ****     {
 996:Generated_Source\PSoC4/CapSense_Filter.c ****         #if (CapSense_REGULAR_SENSOR_EN)
 997:Generated_Source\PSoC4/CapSense_Filter.c ****             ptrFilterHistObj.ptrRegular = &ptrFilterHistObj.ptrRegular[sensorId];
 998:Generated_Source\PSoC4/CapSense_Filter.c ****         #endif /* (CapSense_REGULAR_SENSOR_EN) */
 999:Generated_Source\PSoC4/CapSense_Filter.c ****     }
1000:Generated_Source\PSoC4/CapSense_Filter.c ****     else
1001:Generated_Source\PSoC4/CapSense_Filter.c ****     {
1002:Generated_Source\PSoC4/CapSense_Filter.c ****         #if (CapSense_PROXIMITY_SENSOR_EN)
1003:Generated_Source\PSoC4/CapSense_Filter.c ****             ptrFilterHistObj.ptrProx = &ptrFilterHistObj.ptrProx[sensorId];
1004:Generated_Source\PSoC4/CapSense_Filter.c ****         #endif /* (CapSense_PROXIMITY_SENSOR_EN) */
1005:Generated_Source\PSoC4/CapSense_Filter.c ****     }
1006:Generated_Source\PSoC4/CapSense_Filter.c **** 
1007:Generated_Source\PSoC4/CapSense_Filter.c ****     CapSense_InitializeMedianInternal(ptrFilterHistObj, ptrSensor, (uint32)ptrWidget->wdgtType);
1008:Generated_Source\PSoC4/CapSense_Filter.c **** }
1009:Generated_Source\PSoC4/CapSense_Filter.c **** 
1010:Generated_Source\PSoC4/CapSense_Filter.c **** 
1011:Generated_Source\PSoC4/CapSense_Filter.c **** /*******************************************************************************
1012:Generated_Source\PSoC4/CapSense_Filter.c **** * Function Name: CapSense_RunMedian
ARM GAS  C:\Users\dell\AppData\Local\Temp\ccWEiAI7.s 			page 24


1013:Generated_Source\PSoC4/CapSense_Filter.c **** ****************************************************************************//**
1014:Generated_Source\PSoC4/CapSense_Filter.c **** *
1015:Generated_Source\PSoC4/CapSense_Filter.c **** * \brief
1016:Generated_Source\PSoC4/CapSense_Filter.c **** *  Executes the Median filter algorithm on a sensor indicated by an input
1017:Generated_Source\PSoC4/CapSense_Filter.c **** *  parameter.
1018:Generated_Source\PSoC4/CapSense_Filter.c **** *
1019:Generated_Source\PSoC4/CapSense_Filter.c **** * \details
1020:Generated_Source\PSoC4/CapSense_Filter.c **** *  Executes the Median filter algorithm on a sensor indicated by an input
1021:Generated_Source\PSoC4/CapSense_Filter.c **** *  parameter.
1022:Generated_Source\PSoC4/CapSense_Filter.c **** *
1023:Generated_Source\PSoC4/CapSense_Filter.c **** * \param widgetId
1024:Generated_Source\PSoC4/CapSense_Filter.c **** *  Specifies the ID number of the widget.
1025:Generated_Source\PSoC4/CapSense_Filter.c **** *
1026:Generated_Source\PSoC4/CapSense_Filter.c **** * \param sensorId
1027:Generated_Source\PSoC4/CapSense_Filter.c **** *  Specifies the ID number of the sensor in the widget.
1028:Generated_Source\PSoC4/CapSense_Filter.c **** *
1029:Generated_Source\PSoC4/CapSense_Filter.c **** *******************************************************************************/
1030:Generated_Source\PSoC4/CapSense_Filter.c **** void CapSense_RunMedian(uint32 widgetId, uint32 sensorId)
1031:Generated_Source\PSoC4/CapSense_Filter.c **** {
1032:Generated_Source\PSoC4/CapSense_Filter.c ****     CapSense_FLASH_WD_STRUCT const *ptrWidget = &CapSense_dsFlash.wdgtArray[widgetId];
1033:Generated_Source\PSoC4/CapSense_Filter.c ****     CapSense_RAM_SNS_STRUCT *ptrSensor = NULL;
1034:Generated_Source\PSoC4/CapSense_Filter.c ****     CapSense_PTR_FILTER_VARIANT ptrFilterHistObj;
1035:Generated_Source\PSoC4/CapSense_Filter.c **** 
1036:Generated_Source\PSoC4/CapSense_Filter.c ****     /* Find pointer to specified sensor object */
1037:Generated_Source\PSoC4/CapSense_Filter.c ****     ptrSensor = ptrWidget->ptr2SnsRam;
1038:Generated_Source\PSoC4/CapSense_Filter.c ****     ptrSensor = &ptrSensor[sensorId];
1039:Generated_Source\PSoC4/CapSense_Filter.c **** 
1040:Generated_Source\PSoC4/CapSense_Filter.c ****     /* Find pointer to specified filter sensor object */
1041:Generated_Source\PSoC4/CapSense_Filter.c ****     ptrFilterHistObj.ptr = ptrWidget->ptr2FltrHistory;
1042:Generated_Source\PSoC4/CapSense_Filter.c **** 
1043:Generated_Source\PSoC4/CapSense_Filter.c ****     if ((CapSense_WD_TYPE_ENUM)ptrWidget->wdgtType != CapSense_WD_PROXIMITY_E)
1044:Generated_Source\PSoC4/CapSense_Filter.c ****     {
1045:Generated_Source\PSoC4/CapSense_Filter.c ****         #if (CapSense_REGULAR_SENSOR_EN)
1046:Generated_Source\PSoC4/CapSense_Filter.c ****             ptrFilterHistObj.ptrRegular = &ptrFilterHistObj.ptrRegular[sensorId];
1047:Generated_Source\PSoC4/CapSense_Filter.c ****         #endif /* (CapSense_REGULAR_SENSOR_EN) */
1048:Generated_Source\PSoC4/CapSense_Filter.c ****     }
1049:Generated_Source\PSoC4/CapSense_Filter.c ****     else
1050:Generated_Source\PSoC4/CapSense_Filter.c ****     {
1051:Generated_Source\PSoC4/CapSense_Filter.c ****         #if (CapSense_PROXIMITY_SENSOR_EN)
1052:Generated_Source\PSoC4/CapSense_Filter.c ****             ptrFilterHistObj.ptrProx = &ptrFilterHistObj.ptrProx[sensorId];
1053:Generated_Source\PSoC4/CapSense_Filter.c ****         #endif /* (CapSense_PROXIMITY_SENSOR_EN) */
1054:Generated_Source\PSoC4/CapSense_Filter.c ****     }
1055:Generated_Source\PSoC4/CapSense_Filter.c **** 
1056:Generated_Source\PSoC4/CapSense_Filter.c ****     CapSense_RunMedianInternal(ptrFilterHistObj, ptrSensor, (uint32)ptrWidget->wdgtType);
1057:Generated_Source\PSoC4/CapSense_Filter.c **** }
1058:Generated_Source\PSoC4/CapSense_Filter.c **** 
1059:Generated_Source\PSoC4/CapSense_Filter.c **** 
1060:Generated_Source\PSoC4/CapSense_Filter.c **** /*******************************************************************************
1061:Generated_Source\PSoC4/CapSense_Filter.c **** * Function Name: CapSense_InitializeMedianInternal
1062:Generated_Source\PSoC4/CapSense_Filter.c **** ****************************************************************************//**
1063:Generated_Source\PSoC4/CapSense_Filter.c **** *
1064:Generated_Source\PSoC4/CapSense_Filter.c **** * \brief
1065:Generated_Source\PSoC4/CapSense_Filter.c **** *  Initializes the Median filter.
1066:Generated_Source\PSoC4/CapSense_Filter.c **** *
1067:Generated_Source\PSoC4/CapSense_Filter.c **** * \details
1068:Generated_Source\PSoC4/CapSense_Filter.c **** *  Initializes the Median filter.
1069:Generated_Source\PSoC4/CapSense_Filter.c **** *
ARM GAS  C:\Users\dell\AppData\Local\Temp\ccWEiAI7.s 			page 25


1070:Generated_Source\PSoC4/CapSense_Filter.c **** * \param ptrFilterHistObj
1071:Generated_Source\PSoC4/CapSense_Filter.c **** *  The pointer to the filter RAM object of the sensor.
1072:Generated_Source\PSoC4/CapSense_Filter.c **** *
1073:Generated_Source\PSoC4/CapSense_Filter.c **** * \param ptrSensorObj
1074:Generated_Source\PSoC4/CapSense_Filter.c **** *  The pointer to the sensor RAM object of the sensor.
1075:Generated_Source\PSoC4/CapSense_Filter.c **** *
1076:Generated_Source\PSoC4/CapSense_Filter.c **** * \param wdType
1077:Generated_Source\PSoC4/CapSense_Filter.c **** *  Specifies the type of a widget.
1078:Generated_Source\PSoC4/CapSense_Filter.c **** *
1079:Generated_Source\PSoC4/CapSense_Filter.c **** *******************************************************************************/
1080:Generated_Source\PSoC4/CapSense_Filter.c **** void CapSense_InitializeMedianInternal(CapSense_PTR_FILTER_VARIANT ptrFilterHistObj,
1081:Generated_Source\PSoC4/CapSense_Filter.c ****                                                CapSense_RAM_SNS_STRUCT *ptrSensorObj, uint32 wdType
1082:Generated_Source\PSoC4/CapSense_Filter.c **** {
1083:Generated_Source\PSoC4/CapSense_Filter.c ****     uint32 freqChannel;
1084:Generated_Source\PSoC4/CapSense_Filter.c **** 
1085:Generated_Source\PSoC4/CapSense_Filter.c ****     for(freqChannel = CapSense_NUM_SCAN_FREQS; freqChannel-- > 0u;)
1086:Generated_Source\PSoC4/CapSense_Filter.c ****     {
1087:Generated_Source\PSoC4/CapSense_Filter.c ****         if ((CapSense_WD_TYPE_ENUM)wdType != CapSense_WD_PROXIMITY_E)
1088:Generated_Source\PSoC4/CapSense_Filter.c ****         {
1089:Generated_Source\PSoC4/CapSense_Filter.c ****             #if (CapSense_REGULAR_SENSOR_EN && CapSense_REGULAR_RC_MEDIAN_FILTER_EN)
1090:Generated_Source\PSoC4/CapSense_Filter.c ****                 ptrFilterHistObj.ptrRegular->regularChannel[freqChannel].medHistory[0u] = ptrSensor
1091:Generated_Source\PSoC4/CapSense_Filter.c ****                 ptrFilterHistObj.ptrRegular->regularChannel[freqChannel].medHistory[1u] = ptrSensor
1092:Generated_Source\PSoC4/CapSense_Filter.c ****             #endif /* (CapSense_REGULAR_SENSOR_EN) */
1093:Generated_Source\PSoC4/CapSense_Filter.c ****         }
1094:Generated_Source\PSoC4/CapSense_Filter.c ****         else
1095:Generated_Source\PSoC4/CapSense_Filter.c ****         {
1096:Generated_Source\PSoC4/CapSense_Filter.c ****             #if (CapSense_PROXIMITY_SENSOR_EN && CapSense_PROX_RC_MEDIAN_FILTER_EN)
1097:Generated_Source\PSoC4/CapSense_Filter.c ****                 ptrFilterHistObj.ptrProx->proxChannel[freqChannel].medHistory[0u] = ptrSensorObj->r
1098:Generated_Source\PSoC4/CapSense_Filter.c ****                 ptrFilterHistObj.ptrProx->proxChannel[freqChannel].medHistory[1u] = ptrSensorObj->r
1099:Generated_Source\PSoC4/CapSense_Filter.c ****             #endif /* (CapSense_PROXIMITY_SENSOR_EN) */
1100:Generated_Source\PSoC4/CapSense_Filter.c ****         }
1101:Generated_Source\PSoC4/CapSense_Filter.c ****     }
1102:Generated_Source\PSoC4/CapSense_Filter.c **** }
1103:Generated_Source\PSoC4/CapSense_Filter.c **** 
1104:Generated_Source\PSoC4/CapSense_Filter.c **** 
1105:Generated_Source\PSoC4/CapSense_Filter.c **** /*******************************************************************************
1106:Generated_Source\PSoC4/CapSense_Filter.c **** * Function Name: CapSense_RunMedianInternal
1107:Generated_Source\PSoC4/CapSense_Filter.c **** ****************************************************************************//**
1108:Generated_Source\PSoC4/CapSense_Filter.c **** *
1109:Generated_Source\PSoC4/CapSense_Filter.c **** * \brief
1110:Generated_Source\PSoC4/CapSense_Filter.c **** *  Runs the Median filter.
1111:Generated_Source\PSoC4/CapSense_Filter.c **** *
1112:Generated_Source\PSoC4/CapSense_Filter.c **** * \details
1113:Generated_Source\PSoC4/CapSense_Filter.c **** *  Runs the Median filter.
1114:Generated_Source\PSoC4/CapSense_Filter.c **** *
1115:Generated_Source\PSoC4/CapSense_Filter.c **** * \param ptrFilterHistObj
1116:Generated_Source\PSoC4/CapSense_Filter.c **** *  The pointer to the filter RAM object of the sensor.
1117:Generated_Source\PSoC4/CapSense_Filter.c **** *
1118:Generated_Source\PSoC4/CapSense_Filter.c **** * \param ptrSensorObj
1119:Generated_Source\PSoC4/CapSense_Filter.c **** *  The pointer to the sensor RAM object of the sensor.
1120:Generated_Source\PSoC4/CapSense_Filter.c **** *
1121:Generated_Source\PSoC4/CapSense_Filter.c **** * \param wdType
1122:Generated_Source\PSoC4/CapSense_Filter.c **** *  Specifies the type of a widget.
1123:Generated_Source\PSoC4/CapSense_Filter.c **** *
1124:Generated_Source\PSoC4/CapSense_Filter.c **** *******************************************************************************/
1125:Generated_Source\PSoC4/CapSense_Filter.c **** void CapSense_RunMedianInternal(CapSense_PTR_FILTER_VARIANT ptrFilterHistObj,
1126:Generated_Source\PSoC4/CapSense_Filter.c ****                                         CapSense_RAM_SNS_STRUCT *ptrSensorObj, uint32 wdType)
ARM GAS  C:\Users\dell\AppData\Local\Temp\ccWEiAI7.s 			page 26


1127:Generated_Source\PSoC4/CapSense_Filter.c **** {
1128:Generated_Source\PSoC4/CapSense_Filter.c ****     uint32 freqChannel;
1129:Generated_Source\PSoC4/CapSense_Filter.c **** 
1130:Generated_Source\PSoC4/CapSense_Filter.c ****     #if ((CapSense_REGULAR_SENSOR_EN && CapSense_REGULAR_RC_MEDIAN_FILTER_EN) || \
1131:Generated_Source\PSoC4/CapSense_Filter.c ****          (CapSense_PROXIMITY_SENSOR_EN && CapSense_PROX_RC_MEDIAN_FILTER_EN))
1132:Generated_Source\PSoC4/CapSense_Filter.c ****         uint32 temp;
1133:Generated_Source\PSoC4/CapSense_Filter.c ****     #endif
1134:Generated_Source\PSoC4/CapSense_Filter.c **** 
1135:Generated_Source\PSoC4/CapSense_Filter.c ****     for(freqChannel = CapSense_NUM_SCAN_FREQS; freqChannel-- > 0u;)
1136:Generated_Source\PSoC4/CapSense_Filter.c ****     {
1137:Generated_Source\PSoC4/CapSense_Filter.c ****         if ((CapSense_WD_TYPE_ENUM)wdType != CapSense_WD_PROXIMITY_E)
1138:Generated_Source\PSoC4/CapSense_Filter.c ****         {
1139:Generated_Source\PSoC4/CapSense_Filter.c ****             #if (CapSense_REGULAR_SENSOR_EN && CapSense_REGULAR_RC_MEDIAN_FILTER_EN)
1140:Generated_Source\PSoC4/CapSense_Filter.c ****                 temp = CapSense_FtMedian((uint32)ptrSensorObj->raw[freqChannel],\
1141:Generated_Source\PSoC4/CapSense_Filter.c ****                                                  (uint32)ptrFilterHistObj.ptrRegular->regularChanne
1142:Generated_Source\PSoC4/CapSense_Filter.c ****                                                  (uint32)ptrFilterHistObj.ptrRegular->regularChanne
1143:Generated_Source\PSoC4/CapSense_Filter.c ****                 ptrFilterHistObj.ptrRegular->regularChannel[freqChannel].medHistory[1u] = \
1144:Generated_Source\PSoC4/CapSense_Filter.c ****                 ptrFilterHistObj.ptrRegular->regularChannel[freqChannel].medHistory[0u];
1145:Generated_Source\PSoC4/CapSense_Filter.c ****                 ptrFilterHistObj.ptrRegular->regularChannel[freqChannel].medHistory[0u] = ptrSensor
1146:Generated_Source\PSoC4/CapSense_Filter.c ****                 ptrSensorObj->raw[freqChannel] = LO16(temp);
1147:Generated_Source\PSoC4/CapSense_Filter.c ****             #endif /* (CapSense_REGULAR_SENSOR_EN) */
1148:Generated_Source\PSoC4/CapSense_Filter.c ****         }
1149:Generated_Source\PSoC4/CapSense_Filter.c ****         else
1150:Generated_Source\PSoC4/CapSense_Filter.c ****         {
1151:Generated_Source\PSoC4/CapSense_Filter.c ****             #if (CapSense_PROXIMITY_SENSOR_EN && CapSense_PROX_RC_MEDIAN_FILTER_EN)
1152:Generated_Source\PSoC4/CapSense_Filter.c ****                 temp = CapSense_FtMedian((uint32)ptrSensorObj->raw[freqChannel],\
1153:Generated_Source\PSoC4/CapSense_Filter.c ****                                                  (uint32)ptrFilterHistObj.ptrProx->proxChannel[freq
1154:Generated_Source\PSoC4/CapSense_Filter.c ****                                                  (uint32)ptrFilterHistObj.ptrProx->proxChannel[freq
1155:Generated_Source\PSoC4/CapSense_Filter.c ****                 ptrFilterHistObj.ptrProx->proxChannel[freqChannel].medHistory[1u] = \
1156:Generated_Source\PSoC4/CapSense_Filter.c ****                 ptrFilterHistObj.ptrProx->proxChannel[freqChannel].medHistory[0u];
1157:Generated_Source\PSoC4/CapSense_Filter.c ****                 ptrFilterHistObj.ptrProx->proxChannel[freqChannel].medHistory[0u] = ptrSensorObj->r
1158:Generated_Source\PSoC4/CapSense_Filter.c ****                 ptrSensorObj->raw[freqChannel] = LO16(temp);
1159:Generated_Source\PSoC4/CapSense_Filter.c ****             #endif /* (CapSense_PROXIMITY_SENSOR_EN) */
1160:Generated_Source\PSoC4/CapSense_Filter.c ****         }
1161:Generated_Source\PSoC4/CapSense_Filter.c ****     }
1162:Generated_Source\PSoC4/CapSense_Filter.c **** }
1163:Generated_Source\PSoC4/CapSense_Filter.c **** #endif /* (CapSense_REGULAR_RC_MEDIAN_FILTER_EN || CapSense_PROX_RC_MEDIAN_FILTER_EN) */
1164:Generated_Source\PSoC4/CapSense_Filter.c **** 
1165:Generated_Source\PSoC4/CapSense_Filter.c **** 
1166:Generated_Source\PSoC4/CapSense_Filter.c **** #if (CapSense_REGULAR_RC_AVERAGE_FILTER_EN || CapSense_PROX_RC_AVERAGE_FILTER_EN)
1167:Generated_Source\PSoC4/CapSense_Filter.c **** 
1168:Generated_Source\PSoC4/CapSense_Filter.c **** /*******************************************************************************
1169:Generated_Source\PSoC4/CapSense_Filter.c **** * Function Name: CapSense_InitializeAverage
1170:Generated_Source\PSoC4/CapSense_Filter.c **** ****************************************************************************//**
1171:Generated_Source\PSoC4/CapSense_Filter.c **** *
1172:Generated_Source\PSoC4/CapSense_Filter.c **** * \brief
1173:Generated_Source\PSoC4/CapSense_Filter.c **** *  Initializes the average filter history.
1174:Generated_Source\PSoC4/CapSense_Filter.c **** *
1175:Generated_Source\PSoC4/CapSense_Filter.c **** * \details
1176:Generated_Source\PSoC4/CapSense_Filter.c **** *  Initializes the average filter history.
1177:Generated_Source\PSoC4/CapSense_Filter.c **** *
1178:Generated_Source\PSoC4/CapSense_Filter.c **** * \param widgetId
1179:Generated_Source\PSoC4/CapSense_Filter.c **** *  Specifies the ID number of the widget.
1180:Generated_Source\PSoC4/CapSense_Filter.c **** *
1181:Generated_Source\PSoC4/CapSense_Filter.c **** * \param sensorId
1182:Generated_Source\PSoC4/CapSense_Filter.c **** *  Specifies the ID number of the sensor in the widget.
1183:Generated_Source\PSoC4/CapSense_Filter.c **** *
ARM GAS  C:\Users\dell\AppData\Local\Temp\ccWEiAI7.s 			page 27


1184:Generated_Source\PSoC4/CapSense_Filter.c **** *******************************************************************************/
1185:Generated_Source\PSoC4/CapSense_Filter.c **** void CapSense_InitializeAverage(uint32 widgetId, uint32 sensorId)
1186:Generated_Source\PSoC4/CapSense_Filter.c **** {
1187:Generated_Source\PSoC4/CapSense_Filter.c ****     CapSense_FLASH_WD_STRUCT const *ptrWidget = &CapSense_dsFlash.wdgtArray[widgetId];
1188:Generated_Source\PSoC4/CapSense_Filter.c ****     CapSense_RAM_SNS_STRUCT *ptrSensor = NULL;
1189:Generated_Source\PSoC4/CapSense_Filter.c ****     CapSense_PTR_FILTER_VARIANT ptrFilterHistObj;
1190:Generated_Source\PSoC4/CapSense_Filter.c **** 
1191:Generated_Source\PSoC4/CapSense_Filter.c ****     /* Find pointer to specified sensor object */
1192:Generated_Source\PSoC4/CapSense_Filter.c ****     ptrSensor = ptrWidget->ptr2SnsRam;
1193:Generated_Source\PSoC4/CapSense_Filter.c ****     ptrSensor = &ptrSensor[sensorId];
1194:Generated_Source\PSoC4/CapSense_Filter.c **** 
1195:Generated_Source\PSoC4/CapSense_Filter.c ****     /* Find pointer to specified filter sensor object */
1196:Generated_Source\PSoC4/CapSense_Filter.c ****     ptrFilterHistObj.ptr = ptrWidget->ptr2FltrHistory;
1197:Generated_Source\PSoC4/CapSense_Filter.c **** 
1198:Generated_Source\PSoC4/CapSense_Filter.c ****     if ((CapSense_WD_TYPE_ENUM)ptrWidget->wdgtType != CapSense_WD_PROXIMITY_E)
1199:Generated_Source\PSoC4/CapSense_Filter.c ****     {
1200:Generated_Source\PSoC4/CapSense_Filter.c ****         #if (CapSense_REGULAR_SENSOR_EN)
1201:Generated_Source\PSoC4/CapSense_Filter.c ****             ptrFilterHistObj.ptrRegular = &ptrFilterHistObj.ptrRegular[sensorId];
1202:Generated_Source\PSoC4/CapSense_Filter.c ****         #endif /* (CapSense_REGULAR_SENSOR_EN) */
1203:Generated_Source\PSoC4/CapSense_Filter.c ****     }
1204:Generated_Source\PSoC4/CapSense_Filter.c ****     else
1205:Generated_Source\PSoC4/CapSense_Filter.c ****     {
1206:Generated_Source\PSoC4/CapSense_Filter.c ****         #if (CapSense_PROXIMITY_SENSOR_EN)
1207:Generated_Source\PSoC4/CapSense_Filter.c ****             ptrFilterHistObj.ptrProx = &ptrFilterHistObj.ptrProx[sensorId];
1208:Generated_Source\PSoC4/CapSense_Filter.c ****         #endif /* (CapSense_PROXIMITY_SENSOR_EN) */
1209:Generated_Source\PSoC4/CapSense_Filter.c ****     }
1210:Generated_Source\PSoC4/CapSense_Filter.c **** 
1211:Generated_Source\PSoC4/CapSense_Filter.c ****     CapSense_InitializeAverageInternal(ptrFilterHistObj, ptrSensor, (uint32)ptrWidget->wdgtType);
1212:Generated_Source\PSoC4/CapSense_Filter.c **** }
1213:Generated_Source\PSoC4/CapSense_Filter.c **** 
1214:Generated_Source\PSoC4/CapSense_Filter.c **** 
1215:Generated_Source\PSoC4/CapSense_Filter.c **** /*******************************************************************************
1216:Generated_Source\PSoC4/CapSense_Filter.c **** * Function Name: CapSense_RunAverage
1217:Generated_Source\PSoC4/CapSense_Filter.c **** ****************************************************************************//**
1218:Generated_Source\PSoC4/CapSense_Filter.c **** *
1219:Generated_Source\PSoC4/CapSense_Filter.c **** * \brief
1220:Generated_Source\PSoC4/CapSense_Filter.c **** *  Executes the average filter algorithm on a sensor indicated by an input
1221:Generated_Source\PSoC4/CapSense_Filter.c **** *  parameter.
1222:Generated_Source\PSoC4/CapSense_Filter.c **** *
1223:Generated_Source\PSoC4/CapSense_Filter.c **** * \details
1224:Generated_Source\PSoC4/CapSense_Filter.c **** *  Executes the average filter algorithm on a sensor indicated by an input
1225:Generated_Source\PSoC4/CapSense_Filter.c **** *  parameter.
1226:Generated_Source\PSoC4/CapSense_Filter.c **** *
1227:Generated_Source\PSoC4/CapSense_Filter.c **** * \param widgetId
1228:Generated_Source\PSoC4/CapSense_Filter.c **** *  Specifies the ID number of the widget.
1229:Generated_Source\PSoC4/CapSense_Filter.c **** *
1230:Generated_Source\PSoC4/CapSense_Filter.c **** * \param sensorId
1231:Generated_Source\PSoC4/CapSense_Filter.c **** *  Specifies the ID number of the sensor in the widget.
1232:Generated_Source\PSoC4/CapSense_Filter.c **** *
1233:Generated_Source\PSoC4/CapSense_Filter.c **** *******************************************************************************/
1234:Generated_Source\PSoC4/CapSense_Filter.c **** void CapSense_RunAverage(uint32 widgetId, uint32 sensorId)
1235:Generated_Source\PSoC4/CapSense_Filter.c **** {
1236:Generated_Source\PSoC4/CapSense_Filter.c ****     CapSense_FLASH_WD_STRUCT const *ptrWidget = &CapSense_dsFlash.wdgtArray[widgetId];
1237:Generated_Source\PSoC4/CapSense_Filter.c ****     CapSense_RAM_SNS_STRUCT *ptrSensor = NULL;
1238:Generated_Source\PSoC4/CapSense_Filter.c ****     CapSense_PTR_FILTER_VARIANT ptrFilterHistObj;
1239:Generated_Source\PSoC4/CapSense_Filter.c **** 
1240:Generated_Source\PSoC4/CapSense_Filter.c ****     /* Find pointer to specified sensor object */
ARM GAS  C:\Users\dell\AppData\Local\Temp\ccWEiAI7.s 			page 28


1241:Generated_Source\PSoC4/CapSense_Filter.c ****     ptrSensor = ptrWidget->ptr2SnsRam;
1242:Generated_Source\PSoC4/CapSense_Filter.c ****     ptrSensor = &ptrSensor[sensorId];
1243:Generated_Source\PSoC4/CapSense_Filter.c **** 
1244:Generated_Source\PSoC4/CapSense_Filter.c ****     /* Find pointer to specified filter sensor object */
1245:Generated_Source\PSoC4/CapSense_Filter.c ****     ptrFilterHistObj.ptr = ptrWidget->ptr2FltrHistory;
1246:Generated_Source\PSoC4/CapSense_Filter.c **** 
1247:Generated_Source\PSoC4/CapSense_Filter.c ****     if ((CapSense_WD_TYPE_ENUM)ptrWidget->wdgtType != CapSense_WD_PROXIMITY_E)
1248:Generated_Source\PSoC4/CapSense_Filter.c ****     {
1249:Generated_Source\PSoC4/CapSense_Filter.c ****         #if (CapSense_REGULAR_SENSOR_EN)
1250:Generated_Source\PSoC4/CapSense_Filter.c ****             ptrFilterHistObj.ptrRegular = &ptrFilterHistObj.ptrRegular[sensorId];
1251:Generated_Source\PSoC4/CapSense_Filter.c ****         #endif /* (CapSense_REGULAR_SENSOR_EN) */
1252:Generated_Source\PSoC4/CapSense_Filter.c ****     }
1253:Generated_Source\PSoC4/CapSense_Filter.c ****     else
1254:Generated_Source\PSoC4/CapSense_Filter.c ****     {
1255:Generated_Source\PSoC4/CapSense_Filter.c ****         #if (CapSense_PROXIMITY_SENSOR_EN)
1256:Generated_Source\PSoC4/CapSense_Filter.c ****             ptrFilterHistObj.ptrProx = &ptrFilterHistObj.ptrProx[sensorId];
1257:Generated_Source\PSoC4/CapSense_Filter.c ****         #endif /* (CapSense_PROXIMITY_SENSOR_EN) */
1258:Generated_Source\PSoC4/CapSense_Filter.c ****     }
1259:Generated_Source\PSoC4/CapSense_Filter.c **** 
1260:Generated_Source\PSoC4/CapSense_Filter.c ****     CapSense_RunAverageInternal(ptrFilterHistObj, ptrSensor, (uint32)ptrWidget->wdgtType);
1261:Generated_Source\PSoC4/CapSense_Filter.c **** }
1262:Generated_Source\PSoC4/CapSense_Filter.c **** 
1263:Generated_Source\PSoC4/CapSense_Filter.c **** 
1264:Generated_Source\PSoC4/CapSense_Filter.c **** /*******************************************************************************
1265:Generated_Source\PSoC4/CapSense_Filter.c **** * Function Name: CapSense_InitializeAverageInternal
1266:Generated_Source\PSoC4/CapSense_Filter.c **** ****************************************************************************//**
1267:Generated_Source\PSoC4/CapSense_Filter.c **** *
1268:Generated_Source\PSoC4/CapSense_Filter.c **** * \brief
1269:Generated_Source\PSoC4/CapSense_Filter.c **** *  Initializes the average filter.
1270:Generated_Source\PSoC4/CapSense_Filter.c **** *
1271:Generated_Source\PSoC4/CapSense_Filter.c **** * \details
1272:Generated_Source\PSoC4/CapSense_Filter.c **** *  Initializes the average filter.
1273:Generated_Source\PSoC4/CapSense_Filter.c **** *
1274:Generated_Source\PSoC4/CapSense_Filter.c **** * \param ptrFilterHistObj
1275:Generated_Source\PSoC4/CapSense_Filter.c **** *  The pointer to the filter RAM object of the sensor.
1276:Generated_Source\PSoC4/CapSense_Filter.c **** *
1277:Generated_Source\PSoC4/CapSense_Filter.c **** * \param ptrSensorObj
1278:Generated_Source\PSoC4/CapSense_Filter.c **** *  The pointer to the sensor RAM object of the sensor.
1279:Generated_Source\PSoC4/CapSense_Filter.c **** *
1280:Generated_Source\PSoC4/CapSense_Filter.c **** * \param wdType
1281:Generated_Source\PSoC4/CapSense_Filter.c **** *  Specifies the type of a widget.
1282:Generated_Source\PSoC4/CapSense_Filter.c **** *
1283:Generated_Source\PSoC4/CapSense_Filter.c **** *******************************************************************************/
1284:Generated_Source\PSoC4/CapSense_Filter.c **** void CapSense_InitializeAverageInternal(CapSense_PTR_FILTER_VARIANT ptrFilterHistObj,\
1285:Generated_Source\PSoC4/CapSense_Filter.c ****                                                   CapSense_RAM_SNS_STRUCT *ptrSensorObj, uint32 wdT
1286:Generated_Source\PSoC4/CapSense_Filter.c **** {
 276              		.loc 1 1286 0
 277              		.cfi_startproc
 278              		@ args = 0, pretend = 0, frame = 0
 279              		@ frame_needed = 0, uses_anonymous_args = 0
 280              	.LVL35:
 281 0000 F0B5     		push	{r4, r5, r6, r7, lr}
 282              		.cfi_def_cfa_offset 20
 283              		.cfi_offset 4, -20
 284              		.cfi_offset 5, -16
 285              		.cfi_offset 6, -12
 286              		.cfi_offset 7, -8
ARM GAS  C:\Users\dell\AppData\Local\Temp\ccWEiAI7.s 			page 29


 287              		.cfi_offset 14, -4
 288              	.LVL36:
1287:Generated_Source\PSoC4/CapSense_Filter.c ****     uint32 freqChannel;
1288:Generated_Source\PSoC4/CapSense_Filter.c **** 
1289:Generated_Source\PSoC4/CapSense_Filter.c ****     for(freqChannel = CapSense_NUM_SCAN_FREQS; freqChannel-- > 0u;)
 289              		.loc 1 1289 0
 290 0002 0123     		movs	r3, #1
 291 0004 0EE0     		b	.L18
 292              	.LVL37:
 293              	.L20:
1290:Generated_Source\PSoC4/CapSense_Filter.c ****     {
1291:Generated_Source\PSoC4/CapSense_Filter.c ****         if ((CapSense_WD_TYPE_ENUM)wdType != CapSense_WD_PROXIMITY_E)
 294              		.loc 1 1291 0
 295 0006 FF23     		movs	r3, #255
 296 0008 1340     		ands	r3, r2
 297 000a 062B     		cmp	r3, #6
 298 000c 09D0     		beq	.L19
1292:Generated_Source\PSoC4/CapSense_Filter.c ****         {
1293:Generated_Source\PSoC4/CapSense_Filter.c ****             #if (CapSense_REGULAR_SENSOR_EN && CapSense_REGULAR_RC_AVERAGE_FILTER_EN)
1294:Generated_Source\PSoC4/CapSense_Filter.c ****                 ptrFilterHistObj.ptrRegular->regularChannel[freqChannel].avgHistory[0] = ptrSensorO
 299              		.loc 1 1294 0
 300 000e 6500     		lsls	r5, r4, #1
 301 0010 6F5A     		ldrh	r7, [r5, r1]
 302 0012 2E19     		adds	r6, r5, r4
 303 0014 7300     		lsls	r3, r6, #1
 304 0016 1F52     		strh	r7, [r3, r0]
1295:Generated_Source\PSoC4/CapSense_Filter.c ****                 #if (CapSense_REGULAR_AVERAGE_LEN == CapSense_AVERAGE_FILTER_LEN_4)
1296:Generated_Source\PSoC4/CapSense_Filter.c ****                     ptrFilterHistObj.ptrRegular->regularChannel[freqChannel].avgHistory[1u] = ptrSe
 305              		.loc 1 1296 0
 306 0018 6F5A     		ldrh	r7, [r5, r1]
 307 001a C318     		adds	r3, r0, r3
 308 001c 5F80     		strh	r7, [r3, #2]
1297:Generated_Source\PSoC4/CapSense_Filter.c ****                     ptrFilterHistObj.ptrRegular->regularChannel[freqChannel].avgHistory[2u] = ptrSe
 309              		.loc 1 1297 0
 310 001e 6D5A     		ldrh	r5, [r5, r1]
 311 0020 9D80     		strh	r5, [r3, #4]
 312              	.L19:
1286:Generated_Source\PSoC4/CapSense_Filter.c ****     uint32 freqChannel;
 313              		.loc 1 1286 0 discriminator 1
 314 0022 2300     		movs	r3, r4
 315              	.LVL38:
 316              	.L18:
1289:Generated_Source\PSoC4/CapSense_Filter.c ****     {
 317              		.loc 1 1289 0 discriminator 1
 318 0024 5C1E     		subs	r4, r3, #1
 319              	.LVL39:
 320 0026 002B     		cmp	r3, #0
 321 0028 EDD1     		bne	.L20
1298:Generated_Source\PSoC4/CapSense_Filter.c ****                 #endif /* CapSense_REGULAR_AVERAGE_LEN == CapSense_AVERAGE_FILTER_LEN_4 */
1299:Generated_Source\PSoC4/CapSense_Filter.c ****             #endif /* (CapSense_REGULAR_SENSOR_EN) */
1300:Generated_Source\PSoC4/CapSense_Filter.c ****         }
1301:Generated_Source\PSoC4/CapSense_Filter.c ****         else
1302:Generated_Source\PSoC4/CapSense_Filter.c ****         {
1303:Generated_Source\PSoC4/CapSense_Filter.c ****             #if (CapSense_PROXIMITY_SENSOR_EN && CapSense_PROX_RC_AVERAGE_FILTER_EN)
1304:Generated_Source\PSoC4/CapSense_Filter.c ****                 ptrFilterHistObj.ptrProx->proxChannel[freqChannel].avgHistory[0] = ptrSensorObj->ra
1305:Generated_Source\PSoC4/CapSense_Filter.c ****                     #if (CapSense_PROX_AVERAGE_LEN == CapSense_AVERAGE_FILTER_LEN_4)
1306:Generated_Source\PSoC4/CapSense_Filter.c ****                         ptrFilterHistObj.ptrProx->proxChannel[freqChannel].avgHistory[1u] = ptrSens
ARM GAS  C:\Users\dell\AppData\Local\Temp\ccWEiAI7.s 			page 30


1307:Generated_Source\PSoC4/CapSense_Filter.c ****                         ptrFilterHistObj.ptrProx->proxChannel[freqChannel].avgHistory[2u] = ptrSens
1308:Generated_Source\PSoC4/CapSense_Filter.c ****                     #endif /* CapSense_REGULAR_AVERAGE_LEN == CapSense_AVERAGE_FILTER_LEN_4 */
1309:Generated_Source\PSoC4/CapSense_Filter.c ****             #endif /* (CapSense_PROXIMITY_SENSOR_EN) */
1310:Generated_Source\PSoC4/CapSense_Filter.c ****         }
1311:Generated_Source\PSoC4/CapSense_Filter.c ****     }
1312:Generated_Source\PSoC4/CapSense_Filter.c **** }
 322              		.loc 1 1312 0
 323              		@ sp needed
 324              	.LVL40:
 325 002a F0BD     		pop	{r4, r5, r6, r7, pc}
 326              		.cfi_endproc
 327              	.LFE15:
 328              		.size	CapSense_InitializeAverageInternal, .-CapSense_InitializeAverageInternal
 329              		.section	.text.CapSense_InitializeWidgetFilter,"ax",%progbits
 330              		.align	2
 331              		.global	CapSense_InitializeWidgetFilter
 332              		.code	16
 333              		.thumb_func
 334              		.type	CapSense_InitializeWidgetFilter, %function
 335              	CapSense_InitializeWidgetFilter:
 336              	.LFB12:
 648:Generated_Source\PSoC4/CapSense_Filter.c ****     uint32 sensorId;
 337              		.loc 1 648 0
 338              		.cfi_startproc
 339              		@ args = 0, pretend = 0, frame = 0
 340              		@ frame_needed = 0, uses_anonymous_args = 0
 341              	.LVL41:
 342 0000 70B5     		push	{r4, r5, r6, lr}
 343              		.cfi_def_cfa_offset 16
 344              		.cfi_offset 4, -16
 345              		.cfi_offset 5, -12
 346              		.cfi_offset 6, -8
 347              		.cfi_offset 14, -4
 348 0002 0500     		movs	r5, r0
 349              	.LVL42:
 670:Generated_Source\PSoC4/CapSense_Filter.c **** 
 350              		.loc 1 670 0
 351 0004 C200     		lsls	r2, r0, #3
 352 0006 121A     		subs	r2, r2, r0
 353 0008 9300     		lsls	r3, r2, #2
 354 000a 0F4A     		ldr	r2, .L25
 355 000c D318     		adds	r3, r2, r3
 356 000e 1B8B     		ldrh	r3, [r3, #24]
 357              	.LVL43:
 672:Generated_Source\PSoC4/CapSense_Filter.c ****     {
 358              		.loc 1 672 0
 359 0010 16E0     		b	.L22
 360              	.LVL44:
 361              	.L24:
 675:Generated_Source\PSoC4/CapSense_Filter.c ****         ptrSensor = &ptrSensor[sensorId];
 362              		.loc 1 675 0
 363 0012 EA00     		lsls	r2, r5, #3
 364 0014 521B     		subs	r2, r2, r5
 365 0016 9300     		lsls	r3, r2, #2
 366 0018 0B4A     		ldr	r2, .L25
 367              	.LVL45:
 368 001a D318     		adds	r3, r2, r3
ARM GAS  C:\Users\dell\AppData\Local\Temp\ccWEiAI7.s 			page 31


 369              	.LVL46:
 676:Generated_Source\PSoC4/CapSense_Filter.c **** 
 370              		.loc 1 676 0
 371 001c A200     		lsls	r2, r4, #2
 372              	.LVL47:
 373 001e 1219     		adds	r2, r2, r4
 374 0020 5100     		lsls	r1, r2, #1
 375 0022 9A68     		ldr	r2, [r3, #8]
 376 0024 9446     		mov	ip, r2
 377 0026 6144     		add	r1, r1, ip
 378              	.LVL48:
 680:Generated_Source\PSoC4/CapSense_Filter.c ****         #endif
 379              		.loc 1 680 0
 380 0028 DE68     		ldr	r6, [r3, #12]
 381 002a 3000     		movs	r0, r6
 382              	.LVL49:
 689:Generated_Source\PSoC4/CapSense_Filter.c ****         {
 383              		.loc 1 689 0
 384 002c 9A7E     		ldrb	r2, [r3, #26]
 385 002e 062A     		cmp	r2, #6
 386 0030 03D0     		beq	.L23
 694:Generated_Source\PSoC4/CapSense_Filter.c ****             #endif
 387              		.loc 1 694 0
 388 0032 6300     		lsls	r3, r4, #1
 389 0034 1B19     		adds	r3, r3, r4
 390 0036 5800     		lsls	r0, r3, #1
 391 0038 3018     		adds	r0, r6, r0
 392              	.L23:
 715:Generated_Source\PSoC4/CapSense_Filter.c ****         #endif /* (CapSense_REGULAR_RC_AVERAGE_FILTER_EN || CapSense_PROX_RC_AVERAGE_FILTER_EN) */
 393              		.loc 1 715 0
 394 003a FFF7FEFF 		bl	CapSense_InitializeAverageInternal
 395              	.LVL50:
 672:Generated_Source\PSoC4/CapSense_Filter.c ****     {
 396              		.loc 1 672 0
 397 003e 2300     		movs	r3, r4
 398              	.LVL51:
 399              	.L22:
 672:Generated_Source\PSoC4/CapSense_Filter.c ****     {
 400              		.loc 1 672 0 is_stmt 0 discriminator 1
 401 0040 5C1E     		subs	r4, r3, #1
 402              	.LVL52:
 403 0042 002B     		cmp	r3, #0
 404 0044 E5D1     		bne	.L24
 730:Generated_Source\PSoC4/CapSense_Filter.c **** #endif /* ((CapSense_ENABLE == CapSense_RC_FILTER_EN) || \
 405              		.loc 1 730 0 is_stmt 1
 406              		@ sp needed
 407              	.LVL53:
 408              	.LVL54:
 409 0046 70BD     		pop	{r4, r5, r6, pc}
 410              	.L26:
 411              		.align	2
 412              	.L25:
 413 0048 00000000 		.word	CapSense_dsFlash
 414              		.cfi_endproc
 415              	.LFE12:
 416              		.size	CapSense_InitializeWidgetFilter, .-CapSense_InitializeWidgetFilter
 417              		.section	.text.CapSense_InitializeAllFilters,"ax",%progbits
ARM GAS  C:\Users\dell\AppData\Local\Temp\ccWEiAI7.s 			page 32


 418              		.align	2
 419              		.global	CapSense_InitializeAllFilters
 420              		.code	16
 421              		.thumb_func
 422              		.type	CapSense_InitializeAllFilters, %function
 423              	CapSense_InitializeAllFilters:
 424              	.LFB11:
 618:Generated_Source\PSoC4/CapSense_Filter.c ****     uint32 widgetId;
 425              		.loc 1 618 0
 426              		.cfi_startproc
 427              		@ args = 0, pretend = 0, frame = 0
 428              		@ frame_needed = 0, uses_anonymous_args = 0
 429 0000 10B5     		push	{r4, lr}
 430              		.cfi_def_cfa_offset 8
 431              		.cfi_offset 4, -8
 432              		.cfi_offset 14, -4
 433              	.LVL55:
 621:Generated_Source\PSoC4/CapSense_Filter.c ****     {
 434              		.loc 1 621 0
 435 0002 0423     		movs	r3, #4
 436 0004 03E0     		b	.L28
 437              	.LVL56:
 438              	.L29:
 623:Generated_Source\PSoC4/CapSense_Filter.c ****     }
 439              		.loc 1 623 0
 440 0006 2000     		movs	r0, r4
 441 0008 FFF7FEFF 		bl	CapSense_InitializeWidgetFilter
 442              	.LVL57:
 621:Generated_Source\PSoC4/CapSense_Filter.c ****     {
 443              		.loc 1 621 0
 444 000c 2300     		movs	r3, r4
 445              	.LVL58:
 446              	.L28:
 621:Generated_Source\PSoC4/CapSense_Filter.c ****     {
 447              		.loc 1 621 0 is_stmt 0 discriminator 1
 448 000e 5C1E     		subs	r4, r3, #1
 449              	.LVL59:
 450 0010 002B     		cmp	r3, #0
 451 0012 F8D1     		bne	.L29
 625:Generated_Source\PSoC4/CapSense_Filter.c **** 
 452              		.loc 1 625 0 is_stmt 1
 453              		@ sp needed
 454              	.LVL60:
 455 0014 10BD     		pop	{r4, pc}
 456              		.cfi_endproc
 457              	.LFE11:
 458              		.size	CapSense_InitializeAllFilters, .-CapSense_InitializeAllFilters
 459 0016 C046     		.section	.text.CapSense_FtInitialize,"ax",%progbits
 460              		.align	2
 461              		.global	CapSense_FtInitialize
 462              		.code	16
 463              		.thumb_func
 464              		.type	CapSense_FtInitialize, %function
 465              	CapSense_FtInitialize:
 466              	.LFB1:
  63:Generated_Source\PSoC4/CapSense_Filter.c ****     #if ((CapSense_ENABLE == CapSense_RC_FILTER_EN) || \
 467              		.loc 1 63 0
ARM GAS  C:\Users\dell\AppData\Local\Temp\ccWEiAI7.s 			page 33


 468              		.cfi_startproc
 469              		@ args = 0, pretend = 0, frame = 0
 470              		@ frame_needed = 0, uses_anonymous_args = 0
 471 0000 10B5     		push	{r4, lr}
 472              		.cfi_def_cfa_offset 8
 473              		.cfi_offset 4, -8
 474              		.cfi_offset 14, -4
  66:Generated_Source\PSoC4/CapSense_Filter.c ****     #endif /* ((CapSense_ENABLE == CapSense_RC_FILTER_EN) || \
 475              		.loc 1 66 0
 476 0002 FFF7FEFF 		bl	CapSense_InitializeAllFilters
 477              	.LVL61:
  69:Generated_Source\PSoC4/CapSense_Filter.c **** 
 478              		.loc 1 69 0
 479              		@ sp needed
 480 0006 10BD     		pop	{r4, pc}
 481              		.cfi_endproc
 482              	.LFE1:
 483              		.size	CapSense_FtInitialize, .-CapSense_FtInitialize
 484              		.section	.text.CapSense_InitializeAverage,"ax",%progbits
 485              		.align	2
 486              		.global	CapSense_InitializeAverage
 487              		.code	16
 488              		.thumb_func
 489              		.type	CapSense_InitializeAverage, %function
 490              	CapSense_InitializeAverage:
 491              	.LFB13:
1186:Generated_Source\PSoC4/CapSense_Filter.c ****     CapSense_FLASH_WD_STRUCT const *ptrWidget = &CapSense_dsFlash.wdgtArray[widgetId];
 492              		.loc 1 1186 0
 493              		.cfi_startproc
 494              		@ args = 0, pretend = 0, frame = 0
 495              		@ frame_needed = 0, uses_anonymous_args = 0
 496              	.LVL62:
 497 0000 B0B5     		push	{r4, r5, r7, lr}
 498              		.cfi_def_cfa_offset 16
 499              		.cfi_offset 4, -16
 500              		.cfi_offset 5, -12
 501              		.cfi_offset 7, -8
 502              		.cfi_offset 14, -4
 503 0002 0B00     		movs	r3, r1
 504              	.LVL63:
1192:Generated_Source\PSoC4/CapSense_Filter.c ****     ptrSensor = &ptrSensor[sensorId];
 505              		.loc 1 1192 0
 506 0004 0D4F     		ldr	r7, .L33
 507 0006 C200     		lsls	r2, r0, #3
 508 0008 111A     		subs	r1, r2, r0
 509              	.LVL64:
 510 000a 8C00     		lsls	r4, r1, #2
 511 000c 3C19     		adds	r4, r7, r4
 512              	.LVL65:
1193:Generated_Source\PSoC4/CapSense_Filter.c **** 
 513              		.loc 1 1193 0
 514 000e 9D00     		lsls	r5, r3, #2
 515 0010 ED18     		adds	r5, r5, r3
 516 0012 6900     		lsls	r1, r5, #1
 517 0014 A568     		ldr	r5, [r4, #8]
 518 0016 AC46     		mov	ip, r5
 519 0018 6144     		add	r1, r1, ip
ARM GAS  C:\Users\dell\AppData\Local\Temp\ccWEiAI7.s 			page 34


 520              	.LVL66:
1196:Generated_Source\PSoC4/CapSense_Filter.c **** 
 521              		.loc 1 1196 0
 522 001a E568     		ldr	r5, [r4, #12]
 523 001c 2C00     		movs	r4, r5
 524              	.LVL67:
1198:Generated_Source\PSoC4/CapSense_Filter.c ****     {
 525              		.loc 1 1198 0
 526 001e 121A     		subs	r2, r2, r0
 527 0020 9000     		lsls	r0, r2, #2
 528              	.LVL68:
 529 0022 3818     		adds	r0, r7, r0
 530 0024 827E     		ldrb	r2, [r0, #26]
 531 0026 062A     		cmp	r2, #6
 532 0028 03D0     		beq	.L32
1201:Generated_Source\PSoC4/CapSense_Filter.c ****         #endif /* (CapSense_REGULAR_SENSOR_EN) */
 533              		.loc 1 1201 0
 534 002a 5800     		lsls	r0, r3, #1
 535 002c C318     		adds	r3, r0, r3
 536              	.LVL69:
 537 002e 5C00     		lsls	r4, r3, #1
 538 0030 2C19     		adds	r4, r5, r4
 539              	.L32:
 540              	.LVL70:
1211:Generated_Source\PSoC4/CapSense_Filter.c **** }
 541              		.loc 1 1211 0
 542 0032 2000     		movs	r0, r4
 543 0034 FFF7FEFF 		bl	CapSense_InitializeAverageInternal
 544              	.LVL71:
1212:Generated_Source\PSoC4/CapSense_Filter.c **** 
 545              		.loc 1 1212 0
 546              		@ sp needed
 547              	.LVL72:
 548              	.LVL73:
 549 0038 B0BD     		pop	{r4, r5, r7, pc}
 550              	.L34:
 551 003a C046     		.align	2
 552              	.L33:
 553 003c 00000000 		.word	CapSense_dsFlash
 554              		.cfi_endproc
 555              	.LFE13:
 556              		.size	CapSense_InitializeAverage, .-CapSense_InitializeAverage
 557              		.section	.text.CapSense_RunAverageInternal,"ax",%progbits
 558              		.align	2
 559              		.global	CapSense_RunAverageInternal
 560              		.code	16
 561              		.thumb_func
 562              		.type	CapSense_RunAverageInternal, %function
 563              	CapSense_RunAverageInternal:
 564              	.LFB16:
1313:Generated_Source\PSoC4/CapSense_Filter.c **** 
1314:Generated_Source\PSoC4/CapSense_Filter.c **** 
1315:Generated_Source\PSoC4/CapSense_Filter.c **** /*******************************************************************************
1316:Generated_Source\PSoC4/CapSense_Filter.c **** * Function Name: CapSense_RunAverageInternal
1317:Generated_Source\PSoC4/CapSense_Filter.c **** ****************************************************************************//**
1318:Generated_Source\PSoC4/CapSense_Filter.c **** *
1319:Generated_Source\PSoC4/CapSense_Filter.c **** * \brief
ARM GAS  C:\Users\dell\AppData\Local\Temp\ccWEiAI7.s 			page 35


1320:Generated_Source\PSoC4/CapSense_Filter.c **** *  Runs the average filter.
1321:Generated_Source\PSoC4/CapSense_Filter.c **** *
1322:Generated_Source\PSoC4/CapSense_Filter.c **** * \details
1323:Generated_Source\PSoC4/CapSense_Filter.c **** *  Runs the average filter.
1324:Generated_Source\PSoC4/CapSense_Filter.c **** *
1325:Generated_Source\PSoC4/CapSense_Filter.c **** * \param ptrFilterHistObj
1326:Generated_Source\PSoC4/CapSense_Filter.c **** *  The pointer to the filter RAM object of the sensor.
1327:Generated_Source\PSoC4/CapSense_Filter.c **** *
1328:Generated_Source\PSoC4/CapSense_Filter.c **** * \param ptrSensorObj
1329:Generated_Source\PSoC4/CapSense_Filter.c **** *  The pointer to the sensor RAM object of the sensor.
1330:Generated_Source\PSoC4/CapSense_Filter.c **** *
1331:Generated_Source\PSoC4/CapSense_Filter.c **** * \param wdType
1332:Generated_Source\PSoC4/CapSense_Filter.c **** *  Specifies the type of a widget.
1333:Generated_Source\PSoC4/CapSense_Filter.c **** *
1334:Generated_Source\PSoC4/CapSense_Filter.c **** *******************************************************************************/
1335:Generated_Source\PSoC4/CapSense_Filter.c **** void CapSense_RunAverageInternal(CapSense_PTR_FILTER_VARIANT ptrFilterHistObj,\
1336:Generated_Source\PSoC4/CapSense_Filter.c ****                                            CapSense_RAM_SNS_STRUCT *ptrSensorObj, uint32 wdType)
1337:Generated_Source\PSoC4/CapSense_Filter.c **** {
 565              		.loc 1 1337 0
 566              		.cfi_startproc
 567              		@ args = 0, pretend = 0, frame = 0
 568              		@ frame_needed = 0, uses_anonymous_args = 0
 569              	.LVL74:
 570 0000 F0B5     		push	{r4, r5, r6, r7, lr}
 571              		.cfi_def_cfa_offset 20
 572              		.cfi_offset 4, -20
 573              		.cfi_offset 5, -16
 574              		.cfi_offset 6, -12
 575              		.cfi_offset 7, -8
 576              		.cfi_offset 14, -4
 577              	.LVL75:
1338:Generated_Source\PSoC4/CapSense_Filter.c ****     uint32 freqChannel;
1339:Generated_Source\PSoC4/CapSense_Filter.c ****     uint32 temp;
1340:Generated_Source\PSoC4/CapSense_Filter.c **** 
1341:Generated_Source\PSoC4/CapSense_Filter.c ****     for(freqChannel = CapSense_NUM_SCAN_FREQS; freqChannel-- > 0u;)
 578              		.loc 1 1341 0
 579 0002 0124     		movs	r4, #1
 580 0004 20E0     		b	.L36
 581              	.LVL76:
 582              	.L38:
1342:Generated_Source\PSoC4/CapSense_Filter.c ****     {
1343:Generated_Source\PSoC4/CapSense_Filter.c ****         if ((CapSense_WD_TYPE_ENUM)wdType != CapSense_WD_PROXIMITY_E)
 583              		.loc 1 1343 0
 584 0006 FF24     		movs	r4, #255
 585 0008 1440     		ands	r4, r2
 586 000a 062C     		cmp	r4, #6
 587 000c 1BD0     		beq	.L37
1344:Generated_Source\PSoC4/CapSense_Filter.c ****         {
1345:Generated_Source\PSoC4/CapSense_Filter.c ****             #if (CapSense_REGULAR_SENSOR_EN && CapSense_REGULAR_RC_AVERAGE_FILTER_EN)
1346:Generated_Source\PSoC4/CapSense_Filter.c ****                 #if (CapSense_REGULAR_AVERAGE_LEN == CapSense_AVERAGE_FILTER_LEN_2)
1347:Generated_Source\PSoC4/CapSense_Filter.c ****                     temp = ((uint32)ptrSensorObj->raw[freqChannel] +
1348:Generated_Source\PSoC4/CapSense_Filter.c ****                             (uint32)ptrFilterHistObj.ptrRegular->regularChannel[freqChannel].avgHis
1349:Generated_Source\PSoC4/CapSense_Filter.c ****                     ptrFilterHistObj.ptrRegular->regularChannel[freqChannel].avgHistory[0] = ptrSen
1350:Generated_Source\PSoC4/CapSense_Filter.c ****                     ptrSensorObj->raw[freqChannel] = LO16(temp);
1351:Generated_Source\PSoC4/CapSense_Filter.c ****                 #else
1352:Generated_Source\PSoC4/CapSense_Filter.c ****                     temp = ((uint32)ptrSensorObj->raw[freqChannel] +
 588              		.loc 1 1352 0
ARM GAS  C:\Users\dell\AppData\Local\Temp\ccWEiAI7.s 			page 36


 589 000e 5C00     		lsls	r4, r3, #1
 590 0010 665A     		ldrh	r6, [r4, r1]
1353:Generated_Source\PSoC4/CapSense_Filter.c ****                             (uint32)ptrFilterHistObj.ptrRegular->regularChannel[freqChannel].avgHis
 591              		.loc 1 1353 0
 592 0012 E718     		adds	r7, r4, r3
 593 0014 7D00     		lsls	r5, r7, #1
 594 0016 2D5A     		ldrh	r5, [r5, r0]
1352:Generated_Source\PSoC4/CapSense_Filter.c ****                             (uint32)ptrFilterHistObj.ptrRegular->regularChannel[freqChannel].avgHis
 595              		.loc 1 1352 0
 596 0018 7619     		adds	r6, r6, r5
1354:Generated_Source\PSoC4/CapSense_Filter.c ****                             (uint32)ptrFilterHistObj.ptrRegular->regularChannel[freqChannel].avgHis
 597              		.loc 1 1354 0
 598 001a E718     		adds	r7, r4, r3
 599 001c 7D00     		lsls	r5, r7, #1
 600 001e 4519     		adds	r5, r0, r5
 601 0020 6F88     		ldrh	r7, [r5, #2]
 602 0022 BC46     		mov	ip, r7
1353:Generated_Source\PSoC4/CapSense_Filter.c ****                             (uint32)ptrFilterHistObj.ptrRegular->regularChannel[freqChannel].avgHis
 603              		.loc 1 1353 0
 604 0024 6644     		add	r6, r6, ip
1355:Generated_Source\PSoC4/CapSense_Filter.c ****                             (uint32)ptrFilterHistObj.ptrRegular->regularChannel[freqChannel].avgHis
 605              		.loc 1 1355 0
 606 0026 AF88     		ldrh	r7, [r5, #4]
1354:Generated_Source\PSoC4/CapSense_Filter.c ****                             (uint32)ptrFilterHistObj.ptrRegular->regularChannel[freqChannel].avgHis
 607              		.loc 1 1354 0
 608 0028 F619     		adds	r6, r6, r7
1352:Generated_Source\PSoC4/CapSense_Filter.c ****                             (uint32)ptrFilterHistObj.ptrRegular->regularChannel[freqChannel].avgHis
 609              		.loc 1 1352 0
 610 002a B608     		lsrs	r6, r6, #2
 611              	.LVL77:
1356:Generated_Source\PSoC4/CapSense_Filter.c **** 
1357:Generated_Source\PSoC4/CapSense_Filter.c ****                     ptrFilterHistObj.ptrRegular->regularChannel[freqChannel].avgHistory[2u] =
 612              		.loc 1 1357 0
 613 002c 6746     		mov	r7, ip
 614 002e AF80     		strh	r7, [r5, #4]
1358:Generated_Source\PSoC4/CapSense_Filter.c ****                     ptrFilterHistObj.ptrRegular->regularChannel[freqChannel].avgHistory[1u];
1359:Generated_Source\PSoC4/CapSense_Filter.c ****                     ptrFilterHistObj.ptrRegular->regularChannel[freqChannel].avgHistory[1u] =
1360:Generated_Source\PSoC4/CapSense_Filter.c ****                     ptrFilterHistObj.ptrRegular->regularChannel[freqChannel].avgHistory[0];
 615              		.loc 1 1360 0
 616 0030 E718     		adds	r7, r4, r3
 617 0032 7F00     		lsls	r7, r7, #1
 618 0034 3F5A     		ldrh	r7, [r7, r0]
1359:Generated_Source\PSoC4/CapSense_Filter.c ****                     ptrFilterHistObj.ptrRegular->regularChannel[freqChannel].avgHistory[0];
 619              		.loc 1 1359 0
 620 0036 6F80     		strh	r7, [r5, #2]
1361:Generated_Source\PSoC4/CapSense_Filter.c ****                     ptrFilterHistObj.ptrRegular->regularChannel[freqChannel].avgHistory[0] = ptrSen
 621              		.loc 1 1361 0
 622 0038 655A     		ldrh	r5, [r4, r1]
 623 003a AC46     		mov	ip, r5
 624 003c E718     		adds	r7, r4, r3
 625 003e 7D00     		lsls	r5, r7, #1
 626 0040 6746     		mov	r7, ip
 627 0042 2F52     		strh	r7, [r5, r0]
1362:Generated_Source\PSoC4/CapSense_Filter.c ****                     ptrSensorObj->raw[freqChannel] = LO16(temp);
 628              		.loc 1 1362 0
 629 0044 0E53     		strh	r6, [r1, r4]
 630              	.LVL78:
ARM GAS  C:\Users\dell\AppData\Local\Temp\ccWEiAI7.s 			page 37


 631              	.L37:
1337:Generated_Source\PSoC4/CapSense_Filter.c ****     uint32 freqChannel;
 632              		.loc 1 1337 0 discriminator 1
 633 0046 1C00     		movs	r4, r3
 634              	.LVL79:
 635              	.L36:
1341:Generated_Source\PSoC4/CapSense_Filter.c ****     {
 636              		.loc 1 1341 0 discriminator 1
 637 0048 631E     		subs	r3, r4, #1
 638              	.LVL80:
 639 004a 002C     		cmp	r4, #0
 640 004c DBD1     		bne	.L38
1363:Generated_Source\PSoC4/CapSense_Filter.c ****                 #endif /* CapSense_REGULAR_AVERAGE_LEN == CapSense_AVERAGE_FILTER_LEN_4 */
1364:Generated_Source\PSoC4/CapSense_Filter.c ****             #endif /* (CapSense_REGULAR_SENSOR_EN) */
1365:Generated_Source\PSoC4/CapSense_Filter.c ****         }
1366:Generated_Source\PSoC4/CapSense_Filter.c ****         else
1367:Generated_Source\PSoC4/CapSense_Filter.c ****         {
1368:Generated_Source\PSoC4/CapSense_Filter.c ****             #if (CapSense_PROXIMITY_SENSOR_EN && CapSense_PROX_RC_AVERAGE_FILTER_EN)
1369:Generated_Source\PSoC4/CapSense_Filter.c ****                 #if (CapSense_PROX_AVERAGE_LEN == CapSense_AVERAGE_FILTER_LEN_2)
1370:Generated_Source\PSoC4/CapSense_Filter.c ****                     temp = ((uint32)ptrSensorObj->raw[freqChannel] +
1371:Generated_Source\PSoC4/CapSense_Filter.c ****                             (uint32)ptrFilterHistObj.ptrProx->proxChannel[freqChannel].avgHistory[0
1372:Generated_Source\PSoC4/CapSense_Filter.c ****                     ptrFilterHistObj.ptrProx->proxChannel[freqChannel].avgHistory[0] = ptrSensorObj
1373:Generated_Source\PSoC4/CapSense_Filter.c ****                     ptrSensorObj->raw[freqChannel] = LO16(temp);
1374:Generated_Source\PSoC4/CapSense_Filter.c ****                 #else
1375:Generated_Source\PSoC4/CapSense_Filter.c ****                     temp = ((uint32)ptrSensorObj->raw[freqChannel] +
1376:Generated_Source\PSoC4/CapSense_Filter.c ****                             (uint32)ptrFilterHistObj.ptrProx->proxChannel[freqChannel].avgHistory[0
1377:Generated_Source\PSoC4/CapSense_Filter.c ****                             (uint32)ptrFilterHistObj.ptrProx->proxChannel[freqChannel].avgHistory[1
1378:Generated_Source\PSoC4/CapSense_Filter.c ****                             (uint32)ptrFilterHistObj.ptrProx->proxChannel[freqChannel].avgHistory[2
1379:Generated_Source\PSoC4/CapSense_Filter.c **** 
1380:Generated_Source\PSoC4/CapSense_Filter.c ****                     ptrFilterHistObj.ptrProx->proxChannel[freqChannel].avgHistory[2u] =
1381:Generated_Source\PSoC4/CapSense_Filter.c ****                     ptrFilterHistObj.ptrProx->proxChannel[freqChannel].avgHistory[1u];
1382:Generated_Source\PSoC4/CapSense_Filter.c ****                     ptrFilterHistObj.ptrProx->proxChannel[freqChannel].avgHistory[1u] =
1383:Generated_Source\PSoC4/CapSense_Filter.c ****                     ptrFilterHistObj.ptrProx->proxChannel[freqChannel].avgHistory[0];
1384:Generated_Source\PSoC4/CapSense_Filter.c ****                     ptrFilterHistObj.ptrProx->proxChannel[freqChannel].avgHistory[0] = ptrSensorObj
1385:Generated_Source\PSoC4/CapSense_Filter.c ****                     ptrSensorObj->raw[freqChannel] = LO16(temp);
1386:Generated_Source\PSoC4/CapSense_Filter.c ****                 #endif /* CapSense_PROX_AVERAGE_LEN == CapSense_AVERAGE_FILTER_LEN_4 */
1387:Generated_Source\PSoC4/CapSense_Filter.c ****             #endif /* (CapSense_PROXIMITY_SENSOR_EN) */
1388:Generated_Source\PSoC4/CapSense_Filter.c ****         }
1389:Generated_Source\PSoC4/CapSense_Filter.c ****     }
1390:Generated_Source\PSoC4/CapSense_Filter.c **** }
 641              		.loc 1 1390 0
 642              		@ sp needed
 643 004e F0BD     		pop	{r4, r5, r6, r7, pc}
 644              		.cfi_endproc
 645              	.LFE16:
 646              		.size	CapSense_RunAverageInternal, .-CapSense_RunAverageInternal
 647              		.section	.text.CapSense_RunAverage,"ax",%progbits
 648              		.align	2
 649              		.global	CapSense_RunAverage
 650              		.code	16
 651              		.thumb_func
 652              		.type	CapSense_RunAverage, %function
 653              	CapSense_RunAverage:
 654              	.LFB14:
1235:Generated_Source\PSoC4/CapSense_Filter.c ****     CapSense_FLASH_WD_STRUCT const *ptrWidget = &CapSense_dsFlash.wdgtArray[widgetId];
 655              		.loc 1 1235 0
 656              		.cfi_startproc
ARM GAS  C:\Users\dell\AppData\Local\Temp\ccWEiAI7.s 			page 38


 657              		@ args = 0, pretend = 0, frame = 0
 658              		@ frame_needed = 0, uses_anonymous_args = 0
 659              	.LVL81:
 660 0000 B0B5     		push	{r4, r5, r7, lr}
 661              		.cfi_def_cfa_offset 16
 662              		.cfi_offset 4, -16
 663              		.cfi_offset 5, -12
 664              		.cfi_offset 7, -8
 665              		.cfi_offset 14, -4
 666 0002 0B00     		movs	r3, r1
 667              	.LVL82:
1241:Generated_Source\PSoC4/CapSense_Filter.c ****     ptrSensor = &ptrSensor[sensorId];
 668              		.loc 1 1241 0
 669 0004 0D4F     		ldr	r7, .L41
 670 0006 C200     		lsls	r2, r0, #3
 671 0008 111A     		subs	r1, r2, r0
 672              	.LVL83:
 673 000a 8C00     		lsls	r4, r1, #2
 674 000c 3C19     		adds	r4, r7, r4
 675              	.LVL84:
1242:Generated_Source\PSoC4/CapSense_Filter.c **** 
 676              		.loc 1 1242 0
 677 000e 9D00     		lsls	r5, r3, #2
 678 0010 ED18     		adds	r5, r5, r3
 679 0012 6900     		lsls	r1, r5, #1
 680 0014 A568     		ldr	r5, [r4, #8]
 681 0016 AC46     		mov	ip, r5
 682 0018 6144     		add	r1, r1, ip
 683              	.LVL85:
1245:Generated_Source\PSoC4/CapSense_Filter.c **** 
 684              		.loc 1 1245 0
 685 001a E568     		ldr	r5, [r4, #12]
 686 001c 2C00     		movs	r4, r5
 687              	.LVL86:
1247:Generated_Source\PSoC4/CapSense_Filter.c ****     {
 688              		.loc 1 1247 0
 689 001e 121A     		subs	r2, r2, r0
 690 0020 9000     		lsls	r0, r2, #2
 691              	.LVL87:
 692 0022 3818     		adds	r0, r7, r0
 693 0024 827E     		ldrb	r2, [r0, #26]
 694 0026 062A     		cmp	r2, #6
 695 0028 03D0     		beq	.L40
1250:Generated_Source\PSoC4/CapSense_Filter.c ****         #endif /* (CapSense_REGULAR_SENSOR_EN) */
 696              		.loc 1 1250 0
 697 002a 5800     		lsls	r0, r3, #1
 698 002c C318     		adds	r3, r0, r3
 699              	.LVL88:
 700 002e 5C00     		lsls	r4, r3, #1
 701 0030 2C19     		adds	r4, r5, r4
 702              	.L40:
 703              	.LVL89:
1260:Generated_Source\PSoC4/CapSense_Filter.c **** }
 704              		.loc 1 1260 0
 705 0032 2000     		movs	r0, r4
 706 0034 FFF7FEFF 		bl	CapSense_RunAverageInternal
 707              	.LVL90:
ARM GAS  C:\Users\dell\AppData\Local\Temp\ccWEiAI7.s 			page 39


1261:Generated_Source\PSoC4/CapSense_Filter.c **** 
 708              		.loc 1 1261 0
 709              		@ sp needed
 710              	.LVL91:
 711              	.LVL92:
 712 0038 B0BD     		pop	{r4, r5, r7, pc}
 713              	.L42:
 714 003a C046     		.align	2
 715              	.L41:
 716 003c 00000000 		.word	CapSense_dsFlash
 717              		.cfi_endproc
 718              	.LFE14:
 719              		.size	CapSense_RunAverage, .-CapSense_RunAverage
 720              		.section	.text.CapSense_FtRunEnabledFiltersInternal,"ax",%progbits
 721              		.align	2
 722              		.global	CapSense_FtRunEnabledFiltersInternal
 723              		.code	16
 724              		.thumb_func
 725              		.type	CapSense_FtRunEnabledFiltersInternal, %function
 726              	CapSense_FtRunEnabledFiltersInternal:
 727              	.LFB18:
1391:Generated_Source\PSoC4/CapSense_Filter.c **** #endif /* (CapSense_REGULAR_RC_AVERAGE_FILTER_EN || CapSense_PROX_RC_AVERAGE_FILTER_EN) */
1392:Generated_Source\PSoC4/CapSense_Filter.c **** 
1393:Generated_Source\PSoC4/CapSense_Filter.c **** #if (CapSense_ENABLE == CapSense_ALP_FILTER_EN)
1394:Generated_Source\PSoC4/CapSense_Filter.c **** /*******************************************************************************
1395:Generated_Source\PSoC4/CapSense_Filter.c **** * Function Name: CapSense_InitializeALP
1396:Generated_Source\PSoC4/CapSense_Filter.c **** ****************************************************************************//**
1397:Generated_Source\PSoC4/CapSense_Filter.c **** *
1398:Generated_Source\PSoC4/CapSense_Filter.c **** * \brief
1399:Generated_Source\PSoC4/CapSense_Filter.c **** *  Initializes the ALP filter history.
1400:Generated_Source\PSoC4/CapSense_Filter.c **** *
1401:Generated_Source\PSoC4/CapSense_Filter.c **** * \details
1402:Generated_Source\PSoC4/CapSense_Filter.c **** *  Initializes the ALP filter history.
1403:Generated_Source\PSoC4/CapSense_Filter.c **** *
1404:Generated_Source\PSoC4/CapSense_Filter.c **** * \param widgetId
1405:Generated_Source\PSoC4/CapSense_Filter.c **** *  Specifies the ID number of the widget.
1406:Generated_Source\PSoC4/CapSense_Filter.c **** *
1407:Generated_Source\PSoC4/CapSense_Filter.c **** * \param sensorId
1408:Generated_Source\PSoC4/CapSense_Filter.c **** *  Specifies the ID number of the sensor in the widget.
1409:Generated_Source\PSoC4/CapSense_Filter.c **** *
1410:Generated_Source\PSoC4/CapSense_Filter.c **** *******************************************************************************/
1411:Generated_Source\PSoC4/CapSense_Filter.c **** void CapSense_InitializeALP(uint32 widgetId, uint32 sensorId)
1412:Generated_Source\PSoC4/CapSense_Filter.c **** {
1413:Generated_Source\PSoC4/CapSense_Filter.c ****     CapSense_FLASH_WD_STRUCT const *ptrWidget = &CapSense_dsFlash.wdgtArray[widgetId];
1414:Generated_Source\PSoC4/CapSense_Filter.c ****     CapSense_RAM_SNS_STRUCT *ptrSensor = NULL;
1415:Generated_Source\PSoC4/CapSense_Filter.c ****     CapSense_PTR_FILTER_VARIANT ptrFilterHistObj;
1416:Generated_Source\PSoC4/CapSense_Filter.c **** 
1417:Generated_Source\PSoC4/CapSense_Filter.c ****     /* Find pointer to specified sensor object */
1418:Generated_Source\PSoC4/CapSense_Filter.c ****     ptrSensor = ptrWidget->ptr2SnsRam;
1419:Generated_Source\PSoC4/CapSense_Filter.c ****     ptrSensor = &ptrSensor[sensorId];
1420:Generated_Source\PSoC4/CapSense_Filter.c **** 
1421:Generated_Source\PSoC4/CapSense_Filter.c ****     /* Find pointer to specified filter sensor object */
1422:Generated_Source\PSoC4/CapSense_Filter.c ****     ptrFilterHistObj.ptr = ptrWidget->ptr2FltrHistory;
1423:Generated_Source\PSoC4/CapSense_Filter.c ****     ptrFilterHistObj.ptrAlp = &ptrFilterHistObj.ptrAlp[sensorId];
1424:Generated_Source\PSoC4/CapSense_Filter.c ****     CapSense_InitializeALPInternal(ptrFilterHistObj, ptrSensor, (uint32)ptrWidget->wdgtType);
1425:Generated_Source\PSoC4/CapSense_Filter.c **** }
1426:Generated_Source\PSoC4/CapSense_Filter.c **** 
ARM GAS  C:\Users\dell\AppData\Local\Temp\ccWEiAI7.s 			page 40


1427:Generated_Source\PSoC4/CapSense_Filter.c **** 
1428:Generated_Source\PSoC4/CapSense_Filter.c **** /*******************************************************************************
1429:Generated_Source\PSoC4/CapSense_Filter.c **** * Function Name: CapSense_RunALP
1430:Generated_Source\PSoC4/CapSense_Filter.c **** ****************************************************************************//**
1431:Generated_Source\PSoC4/CapSense_Filter.c **** *
1432:Generated_Source\PSoC4/CapSense_Filter.c **** * \brief
1433:Generated_Source\PSoC4/CapSense_Filter.c **** *  Executes the ALP filter algorithm on a sensor indicated by an input
1434:Generated_Source\PSoC4/CapSense_Filter.c **** *  parameter.
1435:Generated_Source\PSoC4/CapSense_Filter.c **** *
1436:Generated_Source\PSoC4/CapSense_Filter.c **** * \details
1437:Generated_Source\PSoC4/CapSense_Filter.c **** *  Executes the ALP filter algorithm on a sensor indicated by an input
1438:Generated_Source\PSoC4/CapSense_Filter.c **** *  parameter.
1439:Generated_Source\PSoC4/CapSense_Filter.c **** *
1440:Generated_Source\PSoC4/CapSense_Filter.c **** * \param widgetId
1441:Generated_Source\PSoC4/CapSense_Filter.c **** *  Specifies the ID number of the widget.
1442:Generated_Source\PSoC4/CapSense_Filter.c **** *
1443:Generated_Source\PSoC4/CapSense_Filter.c **** * \param sensorId
1444:Generated_Source\PSoC4/CapSense_Filter.c **** *  Specifies the ID number of the sensor in the widget.
1445:Generated_Source\PSoC4/CapSense_Filter.c **** *
1446:Generated_Source\PSoC4/CapSense_Filter.c **** *******************************************************************************/
1447:Generated_Source\PSoC4/CapSense_Filter.c **** void CapSense_RunALP(uint32 widgetId, uint32 sensorId)
1448:Generated_Source\PSoC4/CapSense_Filter.c **** {
1449:Generated_Source\PSoC4/CapSense_Filter.c ****     CapSense_FLASH_WD_STRUCT const *ptrWidget = &CapSense_dsFlash.wdgtArray[widgetId];
1450:Generated_Source\PSoC4/CapSense_Filter.c ****     CapSense_RAM_SNS_STRUCT *ptrSensor = NULL;
1451:Generated_Source\PSoC4/CapSense_Filter.c ****     CapSense_PTR_FILTER_VARIANT ptrFilterHistObj;
1452:Generated_Source\PSoC4/CapSense_Filter.c ****     ALP_FLTR_CONFIG_STRUCT alpFilterConfig;
1453:Generated_Source\PSoC4/CapSense_Filter.c ****     ALP_FLTR_CONFIG_STRUCT *ptrAlpFilterConfig = &alpFilterConfig;
1454:Generated_Source\PSoC4/CapSense_Filter.c ****     CapSense_RAM_WD_BASE_STRUCT *ptrRamWidget = ptrWidget->ptr2WdgtRam;
1455:Generated_Source\PSoC4/CapSense_Filter.c **** 
1456:Generated_Source\PSoC4/CapSense_Filter.c ****     /* Find pointer to specified sensor object */
1457:Generated_Source\PSoC4/CapSense_Filter.c ****     ptrSensor = ptrWidget->ptr2SnsRam;
1458:Generated_Source\PSoC4/CapSense_Filter.c ****     ptrSensor = &ptrSensor[sensorId];
1459:Generated_Source\PSoC4/CapSense_Filter.c **** 
1460:Generated_Source\PSoC4/CapSense_Filter.c ****     ptrAlpFilterConfig->configParam0 = ptrRamWidget->alpOnTh;
1461:Generated_Source\PSoC4/CapSense_Filter.c ****     ptrAlpFilterConfig->configParam1 = ptrRamWidget->alpOffTh;
1462:Generated_Source\PSoC4/CapSense_Filter.c ****     ptrAlpFilterConfig->configParam2 = ptrRamWidget->fingerTh;
1463:Generated_Source\PSoC4/CapSense_Filter.c ****     ptrAlpFilterConfig->configParam3 = ptrRamWidget->noiseTh;
1464:Generated_Source\PSoC4/CapSense_Filter.c ****     ptrAlpFilterConfig->configParam4 = ptrRamWidget->hysteresis;
1465:Generated_Source\PSoC4/CapSense_Filter.c **** 
1466:Generated_Source\PSoC4/CapSense_Filter.c ****     /* Find pointer to specified filter sensor object */
1467:Generated_Source\PSoC4/CapSense_Filter.c ****     ptrFilterHistObj.ptr = ptrWidget->ptr2FltrHistory;
1468:Generated_Source\PSoC4/CapSense_Filter.c ****     ptrFilterHistObj.ptrAlp = &ptrFilterHistObj.ptrAlp[sensorId];
1469:Generated_Source\PSoC4/CapSense_Filter.c **** 
1470:Generated_Source\PSoC4/CapSense_Filter.c ****     if ((CapSense_WD_TYPE_ENUM)ptrWidget->wdgtType != CapSense_WD_PROXIMITY_E)
1471:Generated_Source\PSoC4/CapSense_Filter.c ****     {
1472:Generated_Source\PSoC4/CapSense_Filter.c ****         #if (CapSense_REGULAR_SENSOR_EN)
1473:Generated_Source\PSoC4/CapSense_Filter.c ****             ptrAlpFilterConfig->configParam5 = CapSense_REGULAR_RC_ALP_FILTER_COEFF;
1474:Generated_Source\PSoC4/CapSense_Filter.c ****         #endif /* (CapSense_REGULAR_SENSOR_EN) */
1475:Generated_Source\PSoC4/CapSense_Filter.c ****     }
1476:Generated_Source\PSoC4/CapSense_Filter.c ****     else
1477:Generated_Source\PSoC4/CapSense_Filter.c ****     {
1478:Generated_Source\PSoC4/CapSense_Filter.c ****         #if (CapSense_PROXIMITY_SENSOR_EN)
1479:Generated_Source\PSoC4/CapSense_Filter.c ****             ptrAlpFilterConfig->configParam5 = CapSense_PROX_RC_ALP_FILTER_COEFF;
1480:Generated_Source\PSoC4/CapSense_Filter.c ****         #endif /* (CapSense_PROXIMITY_SENSOR_EN) */
1481:Generated_Source\PSoC4/CapSense_Filter.c ****     }
1482:Generated_Source\PSoC4/CapSense_Filter.c ****     CapSense_RunALPInternal(ptrFilterHistObj, ptrAlpFilterConfig, ptrSensor, (uint32)ptrWidget->wdg
1483:Generated_Source\PSoC4/CapSense_Filter.c **** }
ARM GAS  C:\Users\dell\AppData\Local\Temp\ccWEiAI7.s 			page 41


1484:Generated_Source\PSoC4/CapSense_Filter.c **** 
1485:Generated_Source\PSoC4/CapSense_Filter.c **** 
1486:Generated_Source\PSoC4/CapSense_Filter.c **** /*******************************************************************************
1487:Generated_Source\PSoC4/CapSense_Filter.c **** * Function Name: CapSense_InitializeALPInternal
1488:Generated_Source\PSoC4/CapSense_Filter.c **** ****************************************************************************//**
1489:Generated_Source\PSoC4/CapSense_Filter.c **** *
1490:Generated_Source\PSoC4/CapSense_Filter.c **** * \brief
1491:Generated_Source\PSoC4/CapSense_Filter.c **** *  Initializes the ALP filter.
1492:Generated_Source\PSoC4/CapSense_Filter.c **** *
1493:Generated_Source\PSoC4/CapSense_Filter.c **** * \details
1494:Generated_Source\PSoC4/CapSense_Filter.c **** *  Initializes the ALP filter.
1495:Generated_Source\PSoC4/CapSense_Filter.c **** *
1496:Generated_Source\PSoC4/CapSense_Filter.c **** * \param ptrFilterHistObj
1497:Generated_Source\PSoC4/CapSense_Filter.c **** *  The pointer to the filter RAM object of the sensor.
1498:Generated_Source\PSoC4/CapSense_Filter.c **** *
1499:Generated_Source\PSoC4/CapSense_Filter.c **** * \param ptrSensorObj
1500:Generated_Source\PSoC4/CapSense_Filter.c **** *  The pointer to the sensor RAM object of the sensor.
1501:Generated_Source\PSoC4/CapSense_Filter.c **** *
1502:Generated_Source\PSoC4/CapSense_Filter.c **** * \param wdType
1503:Generated_Source\PSoC4/CapSense_Filter.c **** *  Specifies the type of a widget.
1504:Generated_Source\PSoC4/CapSense_Filter.c **** *
1505:Generated_Source\PSoC4/CapSense_Filter.c **** *
1506:Generated_Source\PSoC4/CapSense_Filter.c **** *******************************************************************************/
1507:Generated_Source\PSoC4/CapSense_Filter.c **** void CapSense_InitializeALPInternal(CapSense_PTR_FILTER_VARIANT ptrFilterHistObj,
1508:Generated_Source\PSoC4/CapSense_Filter.c ****                                             CapSense_RAM_SNS_STRUCT *ptrSensorObj,
1509:Generated_Source\PSoC4/CapSense_Filter.c ****                                             uint32 wdType)
1510:Generated_Source\PSoC4/CapSense_Filter.c **** {
1511:Generated_Source\PSoC4/CapSense_Filter.c ****     uint32 freqChannel;
1512:Generated_Source\PSoC4/CapSense_Filter.c **** 
1513:Generated_Source\PSoC4/CapSense_Filter.c ****     for(freqChannel = CapSense_NUM_SCAN_FREQS; freqChannel-- > 0u;)
1514:Generated_Source\PSoC4/CapSense_Filter.c ****     {
1515:Generated_Source\PSoC4/CapSense_Filter.c ****         if ((CapSense_WD_TYPE_ENUM)wdType != CapSense_WD_PROXIMITY_E)
1516:Generated_Source\PSoC4/CapSense_Filter.c ****         {
1517:Generated_Source\PSoC4/CapSense_Filter.c ****             #if (CapSense_REGULAR_SENSOR_EN && CapSense_REGULAR_RC_ALP_FILTER_EN)
1518:Generated_Source\PSoC4/CapSense_Filter.c ****                 ALP_Initialize(&ptrFilterHistObj.ptrAlp->channel[freqChannel], &ptrSensorObj->raw[f
1519:Generated_Source\PSoC4/CapSense_Filter.c ****             #endif
1520:Generated_Source\PSoC4/CapSense_Filter.c ****         }
1521:Generated_Source\PSoC4/CapSense_Filter.c ****         else
1522:Generated_Source\PSoC4/CapSense_Filter.c ****         {
1523:Generated_Source\PSoC4/CapSense_Filter.c ****             #if (CapSense_PROXIMITY_SENSOR_EN && CapSense_PROX_RC_ALP_FILTER_EN)
1524:Generated_Source\PSoC4/CapSense_Filter.c ****                 ALP_Initialize(&ptrFilterHistObj.ptrAlp->channel[freqChannel], &ptrSensorObj->raw[f
1525:Generated_Source\PSoC4/CapSense_Filter.c ****             #endif
1526:Generated_Source\PSoC4/CapSense_Filter.c ****         }
1527:Generated_Source\PSoC4/CapSense_Filter.c ****     }
1528:Generated_Source\PSoC4/CapSense_Filter.c **** }
1529:Generated_Source\PSoC4/CapSense_Filter.c **** 
1530:Generated_Source\PSoC4/CapSense_Filter.c **** /*******************************************************************************
1531:Generated_Source\PSoC4/CapSense_Filter.c **** * Function Name: CapSense_ConfigRunALPInternal
1532:Generated_Source\PSoC4/CapSense_Filter.c **** ****************************************************************************//**
1533:Generated_Source\PSoC4/CapSense_Filter.c **** *
1534:Generated_Source\PSoC4/CapSense_Filter.c **** * \brief
1535:Generated_Source\PSoC4/CapSense_Filter.c **** *  Prepares ALP configuration structure and runs the filter.
1536:Generated_Source\PSoC4/CapSense_Filter.c **** *
1537:Generated_Source\PSoC4/CapSense_Filter.c **** * \details
1538:Generated_Source\PSoC4/CapSense_Filter.c **** *  Prepares ALP configuration structure and runs the filter.
1539:Generated_Source\PSoC4/CapSense_Filter.c **** *
1540:Generated_Source\PSoC4/CapSense_Filter.c **** * \param ptrFilterHistObj
ARM GAS  C:\Users\dell\AppData\Local\Temp\ccWEiAI7.s 			page 42


1541:Generated_Source\PSoC4/CapSense_Filter.c **** *  The pointer to the filter RAM object of the sensor.
1542:Generated_Source\PSoC4/CapSense_Filter.c **** *
1543:Generated_Source\PSoC4/CapSense_Filter.c **** * \param ptrRamWdgt
1544:Generated_Source\PSoC4/CapSense_Filter.c **** *  The pointer to the RAM widget object.
1545:Generated_Source\PSoC4/CapSense_Filter.c **** *
1546:Generated_Source\PSoC4/CapSense_Filter.c **** * \param ptrSensorObj
1547:Generated_Source\PSoC4/CapSense_Filter.c **** *  The pointer to the sensor RAM object of the sensor.
1548:Generated_Source\PSoC4/CapSense_Filter.c **** *
1549:Generated_Source\PSoC4/CapSense_Filter.c **** * \param wdType
1550:Generated_Source\PSoC4/CapSense_Filter.c **** *  Specifies the type of a widget.
1551:Generated_Source\PSoC4/CapSense_Filter.c **** *
1552:Generated_Source\PSoC4/CapSense_Filter.c **** *******************************************************************************/
1553:Generated_Source\PSoC4/CapSense_Filter.c **** void CapSense_ConfigRunALPInternal(CapSense_PTR_FILTER_VARIANT ptrFilterHistObj,
1554:Generated_Source\PSoC4/CapSense_Filter.c ****                                     CapSense_RAM_WD_BASE_STRUCT *ptrRamWdgt,
1555:Generated_Source\PSoC4/CapSense_Filter.c ****                                     CapSense_RAM_SNS_STRUCT *ptrSensorObj,
1556:Generated_Source\PSoC4/CapSense_Filter.c ****                                     uint32 wdType)
1557:Generated_Source\PSoC4/CapSense_Filter.c **** {
1558:Generated_Source\PSoC4/CapSense_Filter.c ****     ALP_FLTR_CONFIG_STRUCT alpFilterConfig;
1559:Generated_Source\PSoC4/CapSense_Filter.c **** 
1560:Generated_Source\PSoC4/CapSense_Filter.c ****     alpFilterConfig.configParam0 = ptrRamWdgt->alpOnTh;
1561:Generated_Source\PSoC4/CapSense_Filter.c ****     alpFilterConfig.configParam1 = ptrRamWdgt->alpOffTh;
1562:Generated_Source\PSoC4/CapSense_Filter.c ****     alpFilterConfig.configParam2 = ptrRamWdgt->fingerTh;
1563:Generated_Source\PSoC4/CapSense_Filter.c ****     alpFilterConfig.configParam3 = ptrRamWdgt->noiseTh;
1564:Generated_Source\PSoC4/CapSense_Filter.c ****     alpFilterConfig.configParam4 = ptrRamWdgt->hysteresis;
1565:Generated_Source\PSoC4/CapSense_Filter.c **** 
1566:Generated_Source\PSoC4/CapSense_Filter.c ****     CapSense_RunALPInternal(ptrFilterHistObj, &alpFilterConfig, ptrSensorObj, wdType);
1567:Generated_Source\PSoC4/CapSense_Filter.c **** }
1568:Generated_Source\PSoC4/CapSense_Filter.c **** 
1569:Generated_Source\PSoC4/CapSense_Filter.c **** /*******************************************************************************
1570:Generated_Source\PSoC4/CapSense_Filter.c **** * Function Name: CapSense_RunALPInternal
1571:Generated_Source\PSoC4/CapSense_Filter.c **** ****************************************************************************//**
1572:Generated_Source\PSoC4/CapSense_Filter.c **** *
1573:Generated_Source\PSoC4/CapSense_Filter.c **** * \brief
1574:Generated_Source\PSoC4/CapSense_Filter.c **** *  Runs the ALP filter.
1575:Generated_Source\PSoC4/CapSense_Filter.c **** *
1576:Generated_Source\PSoC4/CapSense_Filter.c **** * \details
1577:Generated_Source\PSoC4/CapSense_Filter.c **** *  Runs the ALP filter.
1578:Generated_Source\PSoC4/CapSense_Filter.c **** *
1579:Generated_Source\PSoC4/CapSense_Filter.c **** * \param ptrFilterHistObj
1580:Generated_Source\PSoC4/CapSense_Filter.c **** *  The pointer to the filter RAM object of the sensor.
1581:Generated_Source\PSoC4/CapSense_Filter.c **** *
1582:Generated_Source\PSoC4/CapSense_Filter.c **** * \param ptrAlpFilterConfig
1583:Generated_Source\PSoC4/CapSense_Filter.c **** *  The pointer to the filter configuration object of the sensor.
1584:Generated_Source\PSoC4/CapSense_Filter.c **** *
1585:Generated_Source\PSoC4/CapSense_Filter.c **** * \param ptrSensorObj
1586:Generated_Source\PSoC4/CapSense_Filter.c **** *  The pointer to the sensor RAM object of the sensor.
1587:Generated_Source\PSoC4/CapSense_Filter.c **** *
1588:Generated_Source\PSoC4/CapSense_Filter.c **** * \param wdType
1589:Generated_Source\PSoC4/CapSense_Filter.c **** *  Specifies the type of a widget.
1590:Generated_Source\PSoC4/CapSense_Filter.c **** *
1591:Generated_Source\PSoC4/CapSense_Filter.c **** *******************************************************************************/
1592:Generated_Source\PSoC4/CapSense_Filter.c **** void CapSense_RunALPInternal(CapSense_PTR_FILTER_VARIANT ptrFilterHistObj,
1593:Generated_Source\PSoC4/CapSense_Filter.c ****                                     ALP_FLTR_CONFIG_STRUCT *ptrAlpFilterConfig,
1594:Generated_Source\PSoC4/CapSense_Filter.c ****                                     CapSense_RAM_SNS_STRUCT *ptrSensorObj,
1595:Generated_Source\PSoC4/CapSense_Filter.c ****                                     uint32 wdType)
1596:Generated_Source\PSoC4/CapSense_Filter.c **** {
1597:Generated_Source\PSoC4/CapSense_Filter.c ****     uint32 freqChannel;
ARM GAS  C:\Users\dell\AppData\Local\Temp\ccWEiAI7.s 			page 43


1598:Generated_Source\PSoC4/CapSense_Filter.c **** 
1599:Generated_Source\PSoC4/CapSense_Filter.c ****     for(freqChannel = CapSense_NUM_SCAN_FREQS; freqChannel-- > 0u;)
1600:Generated_Source\PSoC4/CapSense_Filter.c ****     {
1601:Generated_Source\PSoC4/CapSense_Filter.c ****         if ((CapSense_WD_TYPE_ENUM)wdType != CapSense_WD_PROXIMITY_E)
1602:Generated_Source\PSoC4/CapSense_Filter.c ****         {
1603:Generated_Source\PSoC4/CapSense_Filter.c ****             #if (CapSense_REGULAR_SENSOR_EN && CapSense_REGULAR_RC_ALP_FILTER_EN)
1604:Generated_Source\PSoC4/CapSense_Filter.c ****                 ptrAlpFilterConfig->configParam5 = CapSense_REGULAR_RC_ALP_FILTER_COEFF;
1605:Generated_Source\PSoC4/CapSense_Filter.c ****                 ALP_Run(&ptrFilterHistObj.ptrAlp->channel[freqChannel], ptrAlpFilterConfig, &ptrSen
1606:Generated_Source\PSoC4/CapSense_Filter.c ****             #endif
1607:Generated_Source\PSoC4/CapSense_Filter.c ****         }
1608:Generated_Source\PSoC4/CapSense_Filter.c ****         else
1609:Generated_Source\PSoC4/CapSense_Filter.c ****         {
1610:Generated_Source\PSoC4/CapSense_Filter.c ****             #if (CapSense_PROXIMITY_SENSOR_EN && CapSense_PROX_RC_ALP_FILTER_EN)
1611:Generated_Source\PSoC4/CapSense_Filter.c ****                 ptrAlpFilterConfig->configParam5 = CapSense_PROX_RC_ALP_FILTER_COEFF;
1612:Generated_Source\PSoC4/CapSense_Filter.c ****                 ALP_Run(&ptrFilterHistObj.ptrAlp->channel[freqChannel], ptrAlpFilterConfig, &ptrSen
1613:Generated_Source\PSoC4/CapSense_Filter.c ****             #endif
1614:Generated_Source\PSoC4/CapSense_Filter.c ****         }
1615:Generated_Source\PSoC4/CapSense_Filter.c ****     }
1616:Generated_Source\PSoC4/CapSense_Filter.c **** }
1617:Generated_Source\PSoC4/CapSense_Filter.c **** #endif /* (CapSense_ENABLE == CapSense_ALP_FILTER_EN) */
1618:Generated_Source\PSoC4/CapSense_Filter.c **** 
1619:Generated_Source\PSoC4/CapSense_Filter.c **** #if (CapSense_ENABLE == CapSense_RC_FILTER_EN)
1620:Generated_Source\PSoC4/CapSense_Filter.c **** /*******************************************************************************
1621:Generated_Source\PSoC4/CapSense_Filter.c **** * Function Name: CapSense_FtRunEnabledFilters
1622:Generated_Source\PSoC4/CapSense_Filter.c **** ****************************************************************************//**
1623:Generated_Source\PSoC4/CapSense_Filter.c **** *
1624:Generated_Source\PSoC4/CapSense_Filter.c **** * \brief
1625:Generated_Source\PSoC4/CapSense_Filter.c **** *  Runs all enabled filters.
1626:Generated_Source\PSoC4/CapSense_Filter.c **** *
1627:Generated_Source\PSoC4/CapSense_Filter.c **** * \details
1628:Generated_Source\PSoC4/CapSense_Filter.c **** *  Runs all enabled filters.
1629:Generated_Source\PSoC4/CapSense_Filter.c **** *
1630:Generated_Source\PSoC4/CapSense_Filter.c **** * \param widgetId
1631:Generated_Source\PSoC4/CapSense_Filter.c **** *  Specifies the ID number of a widget to update the IIR filter history.
1632:Generated_Source\PSoC4/CapSense_Filter.c **** *
1633:Generated_Source\PSoC4/CapSense_Filter.c **** * \param sensorId
1634:Generated_Source\PSoC4/CapSense_Filter.c **** *  Specifies the ID number of a sensor in the widget to update the IIR
1635:Generated_Source\PSoC4/CapSense_Filter.c **** *  filter history.
1636:Generated_Source\PSoC4/CapSense_Filter.c **** *
1637:Generated_Source\PSoC4/CapSense_Filter.c **** *******************************************************************************/
1638:Generated_Source\PSoC4/CapSense_Filter.c **** void CapSense_FtRunEnabledFilters(uint32 widgetId, uint32 sensorId)
1639:Generated_Source\PSoC4/CapSense_Filter.c **** {
1640:Generated_Source\PSoC4/CapSense_Filter.c ****     CapSense_FLASH_WD_STRUCT const *ptrWidget = &CapSense_dsFlash.wdgtArray[widgetId];
1641:Generated_Source\PSoC4/CapSense_Filter.c ****     CapSense_RAM_SNS_STRUCT *ptrSensor = NULL;
1642:Generated_Source\PSoC4/CapSense_Filter.c ****     CapSense_PTR_FILTER_VARIANT ptrFilterHistObj;
1643:Generated_Source\PSoC4/CapSense_Filter.c **** 
1644:Generated_Source\PSoC4/CapSense_Filter.c ****     /* Find pointer to specified sensor object */
1645:Generated_Source\PSoC4/CapSense_Filter.c ****     ptrSensor = ptrWidget->ptr2SnsRam;
1646:Generated_Source\PSoC4/CapSense_Filter.c ****     ptrSensor = &ptrSensor[sensorId];
1647:Generated_Source\PSoC4/CapSense_Filter.c **** 
1648:Generated_Source\PSoC4/CapSense_Filter.c ****     /* Find pointer to specified filter sensor object */
1649:Generated_Source\PSoC4/CapSense_Filter.c ****     ptrFilterHistObj.ptr = ptrWidget->ptr2FltrHistory;
1650:Generated_Source\PSoC4/CapSense_Filter.c **** 
1651:Generated_Source\PSoC4/CapSense_Filter.c ****     if ((CapSense_WD_TYPE_ENUM)ptrWidget->wdgtType != CapSense_WD_PROXIMITY_E)
1652:Generated_Source\PSoC4/CapSense_Filter.c ****     {
1653:Generated_Source\PSoC4/CapSense_Filter.c ****         #if (0u != CapSense_REGULAR_RC_ALP_FILTER_EN)
1654:Generated_Source\PSoC4/CapSense_Filter.c ****             ptrFilterHistObj.ptr = &ptrFilterHistObj.ptrAlp[sensorId];
ARM GAS  C:\Users\dell\AppData\Local\Temp\ccWEiAI7.s 			page 44


1655:Generated_Source\PSoC4/CapSense_Filter.c ****         #elif (0u != CapSense_REGULAR_RC_FILTER_EN)
1656:Generated_Source\PSoC4/CapSense_Filter.c ****             ptrFilterHistObj.ptr = &ptrFilterHistObj.ptrRegular[sensorId];
1657:Generated_Source\PSoC4/CapSense_Filter.c ****         #endif
1658:Generated_Source\PSoC4/CapSense_Filter.c ****     }
1659:Generated_Source\PSoC4/CapSense_Filter.c ****     else
1660:Generated_Source\PSoC4/CapSense_Filter.c ****     {
1661:Generated_Source\PSoC4/CapSense_Filter.c ****         #if (0u != CapSense_PROX_RC_ALP_FILTER_EN)
1662:Generated_Source\PSoC4/CapSense_Filter.c ****             ptrFilterHistObj.ptr = &ptrFilterHistObj.ptrAlp[sensorId];
1663:Generated_Source\PSoC4/CapSense_Filter.c ****         #elif (0u != CapSense_PROX_RC_FILTER_EN)
1664:Generated_Source\PSoC4/CapSense_Filter.c ****             ptrFilterHistObj.ptr = &ptrFilterHistObj.ptrProx[sensorId];
1665:Generated_Source\PSoC4/CapSense_Filter.c ****         #endif
1666:Generated_Source\PSoC4/CapSense_Filter.c ****     }
1667:Generated_Source\PSoC4/CapSense_Filter.c **** 
1668:Generated_Source\PSoC4/CapSense_Filter.c ****     CapSense_FtRunEnabledFiltersInternal(ptrFilterHistObj, ptrSensor, (uint32)ptrWidget->wdgtType);
1669:Generated_Source\PSoC4/CapSense_Filter.c ****     #if (CapSense_ALP_FILTER_EN)
1670:Generated_Source\PSoC4/CapSense_Filter.c ****         CapSense_ConfigRunALPInternal(ptrFilterHistObj, ptrWidget->ptr2WdgtRam, ptrSensor, (uint32)
1671:Generated_Source\PSoC4/CapSense_Filter.c ****     #endif
1672:Generated_Source\PSoC4/CapSense_Filter.c **** }
1673:Generated_Source\PSoC4/CapSense_Filter.c **** 
1674:Generated_Source\PSoC4/CapSense_Filter.c **** 
1675:Generated_Source\PSoC4/CapSense_Filter.c **** /*******************************************************************************
1676:Generated_Source\PSoC4/CapSense_Filter.c **** * Function Name: CapSense_FtRunEnabledFiltersInternal
1677:Generated_Source\PSoC4/CapSense_Filter.c **** ****************************************************************************//**
1678:Generated_Source\PSoC4/CapSense_Filter.c **** *
1679:Generated_Source\PSoC4/CapSense_Filter.c **** * \brief
1680:Generated_Source\PSoC4/CapSense_Filter.c **** *  Runs all enabled filters.
1681:Generated_Source\PSoC4/CapSense_Filter.c **** *
1682:Generated_Source\PSoC4/CapSense_Filter.c **** * \details
1683:Generated_Source\PSoC4/CapSense_Filter.c **** *  Runs all enabled filters.
1684:Generated_Source\PSoC4/CapSense_Filter.c **** *
1685:Generated_Source\PSoC4/CapSense_Filter.c **** * \param ptrFilterHistObj
1686:Generated_Source\PSoC4/CapSense_Filter.c **** *  The pointer to the filter RAM object of the sensor.
1687:Generated_Source\PSoC4/CapSense_Filter.c **** *
1688:Generated_Source\PSoC4/CapSense_Filter.c **** * \param ptrSensorObj
1689:Generated_Source\PSoC4/CapSense_Filter.c **** *  The pointer to the sensor RAM object of the sensor.
1690:Generated_Source\PSoC4/CapSense_Filter.c **** *
1691:Generated_Source\PSoC4/CapSense_Filter.c **** * \param wdType
1692:Generated_Source\PSoC4/CapSense_Filter.c **** *  Specifies the type of a widget.
1693:Generated_Source\PSoC4/CapSense_Filter.c **** *
1694:Generated_Source\PSoC4/CapSense_Filter.c **** *******************************************************************************/
1695:Generated_Source\PSoC4/CapSense_Filter.c **** void CapSense_FtRunEnabledFiltersInternal(CapSense_PTR_FILTER_VARIANT ptrFilterHistObj,
1696:Generated_Source\PSoC4/CapSense_Filter.c ****                                                   CapSense_RAM_SNS_STRUCT *ptrSensorObj, uint32 wdT
1697:Generated_Source\PSoC4/CapSense_Filter.c **** {
 728              		.loc 1 1697 0
 729              		.cfi_startproc
 730              		@ args = 0, pretend = 0, frame = 0
 731              		@ frame_needed = 0, uses_anonymous_args = 0
 732              	.LVL93:
 733 0000 10B5     		push	{r4, lr}
 734              		.cfi_def_cfa_offset 8
 735              		.cfi_offset 4, -8
 736              		.cfi_offset 14, -4
1698:Generated_Source\PSoC4/CapSense_Filter.c ****     #if (CapSense_REGULAR_RC_MEDIAN_FILTER_EN || CapSense_PROX_RC_MEDIAN_FILTER_EN)
1699:Generated_Source\PSoC4/CapSense_Filter.c ****         CapSense_RunMedianInternal(ptrFilterHistObj, ptrSensorObj, wdType);
1700:Generated_Source\PSoC4/CapSense_Filter.c ****     #endif /* (CapSense_REGULAR_RC_MEDIAN_FILTER_EN || CapSense_PROX_RC_MEDIAN_FILTER_EN) */
1701:Generated_Source\PSoC4/CapSense_Filter.c **** 
1702:Generated_Source\PSoC4/CapSense_Filter.c ****     #if (CapSense_REGULAR_RC_IIR_FILTER_EN || CapSense_PROX_RC_IIR_FILTER_EN)
ARM GAS  C:\Users\dell\AppData\Local\Temp\ccWEiAI7.s 			page 45


1703:Generated_Source\PSoC4/CapSense_Filter.c ****         CapSense_RunIIRInternal(ptrFilterHistObj, ptrSensorObj, wdType);
1704:Generated_Source\PSoC4/CapSense_Filter.c ****     #endif /* (CapSense_REGULAR_RC_IIR_FILTER_EN || CapSense_PROX_RC_IIR_FILTER_EN) */
1705:Generated_Source\PSoC4/CapSense_Filter.c **** 
1706:Generated_Source\PSoC4/CapSense_Filter.c ****     #if (CapSense_REGULAR_RC_AVERAGE_FILTER_EN || CapSense_PROX_RC_AVERAGE_FILTER_EN)
1707:Generated_Source\PSoC4/CapSense_Filter.c ****         CapSense_RunAverageInternal(ptrFilterHistObj, ptrSensorObj, wdType);
 737              		.loc 1 1707 0
 738 0002 FFF7FEFF 		bl	CapSense_RunAverageInternal
 739              	.LVL94:
1708:Generated_Source\PSoC4/CapSense_Filter.c ****     #endif /* (CapSense_REGULAR_RC_AVERAGE_FILTER_EN || CapSense_PROX_RC_AVERAGE_FILTER_EN) */
1709:Generated_Source\PSoC4/CapSense_Filter.c **** }
 740              		.loc 1 1709 0
 741              		@ sp needed
 742 0006 10BD     		pop	{r4, pc}
 743              		.cfi_endproc
 744              	.LFE18:
 745              		.size	CapSense_FtRunEnabledFiltersInternal, .-CapSense_FtRunEnabledFiltersInternal
 746              		.section	.text.CapSense_FtRunEnabledFilters,"ax",%progbits
 747              		.align	2
 748              		.global	CapSense_FtRunEnabledFilters
 749              		.code	16
 750              		.thumb_func
 751              		.type	CapSense_FtRunEnabledFilters, %function
 752              	CapSense_FtRunEnabledFilters:
 753              	.LFB17:
1639:Generated_Source\PSoC4/CapSense_Filter.c ****     CapSense_FLASH_WD_STRUCT const *ptrWidget = &CapSense_dsFlash.wdgtArray[widgetId];
 754              		.loc 1 1639 0
 755              		.cfi_startproc
 756              		@ args = 0, pretend = 0, frame = 0
 757              		@ frame_needed = 0, uses_anonymous_args = 0
 758              	.LVL95:
 759 0000 B0B5     		push	{r4, r5, r7, lr}
 760              		.cfi_def_cfa_offset 16
 761              		.cfi_offset 4, -16
 762              		.cfi_offset 5, -12
 763              		.cfi_offset 7, -8
 764              		.cfi_offset 14, -4
 765 0002 0B00     		movs	r3, r1
 766              	.LVL96:
1645:Generated_Source\PSoC4/CapSense_Filter.c ****     ptrSensor = &ptrSensor[sensorId];
 767              		.loc 1 1645 0
 768 0004 0D4F     		ldr	r7, .L46
 769 0006 C200     		lsls	r2, r0, #3
 770 0008 111A     		subs	r1, r2, r0
 771              	.LVL97:
 772 000a 8C00     		lsls	r4, r1, #2
 773 000c 3C19     		adds	r4, r7, r4
 774              	.LVL98:
1646:Generated_Source\PSoC4/CapSense_Filter.c **** 
 775              		.loc 1 1646 0
 776 000e 9D00     		lsls	r5, r3, #2
 777 0010 ED18     		adds	r5, r5, r3
 778 0012 6900     		lsls	r1, r5, #1
 779 0014 A568     		ldr	r5, [r4, #8]
 780 0016 AC46     		mov	ip, r5
 781 0018 6144     		add	r1, r1, ip
 782              	.LVL99:
1649:Generated_Source\PSoC4/CapSense_Filter.c **** 
ARM GAS  C:\Users\dell\AppData\Local\Temp\ccWEiAI7.s 			page 46


 783              		.loc 1 1649 0
 784 001a E568     		ldr	r5, [r4, #12]
 785 001c 2C00     		movs	r4, r5
 786              	.LVL100:
1651:Generated_Source\PSoC4/CapSense_Filter.c ****     {
 787              		.loc 1 1651 0
 788 001e 121A     		subs	r2, r2, r0
 789 0020 9000     		lsls	r0, r2, #2
 790              	.LVL101:
 791 0022 3818     		adds	r0, r7, r0
 792 0024 827E     		ldrb	r2, [r0, #26]
 793 0026 062A     		cmp	r2, #6
 794 0028 03D0     		beq	.L45
1656:Generated_Source\PSoC4/CapSense_Filter.c ****         #endif
 795              		.loc 1 1656 0
 796 002a 5800     		lsls	r0, r3, #1
 797 002c C318     		adds	r3, r0, r3
 798              	.LVL102:
 799 002e 5C00     		lsls	r4, r3, #1
 800 0030 2C19     		adds	r4, r5, r4
 801              	.L45:
 802              	.LVL103:
1668:Generated_Source\PSoC4/CapSense_Filter.c ****     #if (CapSense_ALP_FILTER_EN)
 803              		.loc 1 1668 0
 804 0032 2000     		movs	r0, r4
 805 0034 FFF7FEFF 		bl	CapSense_FtRunEnabledFiltersInternal
 806              	.LVL104:
1672:Generated_Source\PSoC4/CapSense_Filter.c **** 
 807              		.loc 1 1672 0
 808              		@ sp needed
 809              	.LVL105:
 810              	.LVL106:
 811 0038 B0BD     		pop	{r4, r5, r7, pc}
 812              	.L47:
 813 003a C046     		.align	2
 814              	.L46:
 815 003c 00000000 		.word	CapSense_dsFlash
 816              		.cfi_endproc
 817              	.LFE17:
 818              		.size	CapSense_FtRunEnabledFilters, .-CapSense_FtRunEnabledFilters
 819              		.section	.text.CapSense_FtIIR1stOrder,"ax",%progbits
 820              		.align	2
 821              		.global	CapSense_FtIIR1stOrder
 822              		.code	16
 823              		.thumb_func
 824              		.type	CapSense_FtIIR1stOrder, %function
 825              	CapSense_FtIIR1stOrder:
 826              	.LFB19:
1710:Generated_Source\PSoC4/CapSense_Filter.c **** #endif /* (CapSense_ENABLE == CapSense_RC_FILTER_EN) */
1711:Generated_Source\PSoC4/CapSense_Filter.c **** 
1712:Generated_Source\PSoC4/CapSense_Filter.c **** 
1713:Generated_Source\PSoC4/CapSense_Filter.c **** #if (0u != (CapSense_CSD_AUTOTUNE & CapSense_CSD_SS_TH_EN))
1714:Generated_Source\PSoC4/CapSense_Filter.c **** /*******************************************************************************
1715:Generated_Source\PSoC4/CapSense_Filter.c **** * Function Name: CapSense_RunNoiseEnvelope
1716:Generated_Source\PSoC4/CapSense_Filter.c **** ****************************************************************************//**
1717:Generated_Source\PSoC4/CapSense_Filter.c **** *
1718:Generated_Source\PSoC4/CapSense_Filter.c **** * \brief
ARM GAS  C:\Users\dell\AppData\Local\Temp\ccWEiAI7.s 			page 47


1719:Generated_Source\PSoC4/CapSense_Filter.c **** *  Executes the noise envelope  filter algorithm on a sensor indicated by
1720:Generated_Source\PSoC4/CapSense_Filter.c **** *  an input parameter to measure the pk-to-pk noise in the sensor raw count.
1721:Generated_Source\PSoC4/CapSense_Filter.c **** *
1722:Generated_Source\PSoC4/CapSense_Filter.c **** * \details
1723:Generated_Source\PSoC4/CapSense_Filter.c **** *  Executes the noise envelope  filter algorithm on a sensor indicated by
1724:Generated_Source\PSoC4/CapSense_Filter.c **** *  an input parameter to measure the pk-to-pk noise in the sensor raw count.
1725:Generated_Source\PSoC4/CapSense_Filter.c **** *
1726:Generated_Source\PSoC4/CapSense_Filter.c **** * \param widgetId
1727:Generated_Source\PSoC4/CapSense_Filter.c **** *  Specifies the ID number of the widget.
1728:Generated_Source\PSoC4/CapSense_Filter.c **** *
1729:Generated_Source\PSoC4/CapSense_Filter.c **** * \param sensorId
1730:Generated_Source\PSoC4/CapSense_Filter.c **** *  Specifies the ID number of the sensor in the widget.
1731:Generated_Source\PSoC4/CapSense_Filter.c **** *
1732:Generated_Source\PSoC4/CapSense_Filter.c **** *******************************************************************************/
1733:Generated_Source\PSoC4/CapSense_Filter.c **** void CapSense_RunNoiseEnvelope(uint32 widgetId, uint32 sensorId)
1734:Generated_Source\PSoC4/CapSense_Filter.c **** {
1735:Generated_Source\PSoC4/CapSense_Filter.c ****     CapSense_FLASH_WD_STRUCT const *ptrWidget = &CapSense_dsFlash.wdgtArray[widgetId];
1736:Generated_Source\PSoC4/CapSense_Filter.c ****     CapSense_RAM_WD_BASE_STRUCT *ptrWidgetRam = ptrWidget->ptr2WdgtRam;
1737:Generated_Source\PSoC4/CapSense_Filter.c ****     CapSense_RAM_SNS_STRUCT *ptrSensor = NULL;
1738:Generated_Source\PSoC4/CapSense_Filter.c ****     SMARTSENSE_CSD_NOISE_ENVELOPE_STRUCT *ptrNoiseEnvelope = NULL;
1739:Generated_Source\PSoC4/CapSense_Filter.c **** 
1740:Generated_Source\PSoC4/CapSense_Filter.c ****     /* Find pointer to specified sensor object */
1741:Generated_Source\PSoC4/CapSense_Filter.c ****     ptrSensor = ptrWidget->ptr2SnsRam;
1742:Generated_Source\PSoC4/CapSense_Filter.c ****     ptrSensor = &ptrSensor[sensorId];
1743:Generated_Source\PSoC4/CapSense_Filter.c **** 
1744:Generated_Source\PSoC4/CapSense_Filter.c ****     /* Find pointer to specified filter sensor object */
1745:Generated_Source\PSoC4/CapSense_Filter.c ****     ptrNoiseEnvelope = ptrWidget->ptr2NoiseEnvlp;
1746:Generated_Source\PSoC4/CapSense_Filter.c ****     ptrNoiseEnvelope = &ptrNoiseEnvelope[sensorId];
1747:Generated_Source\PSoC4/CapSense_Filter.c **** 
1748:Generated_Source\PSoC4/CapSense_Filter.c ****     SmartSense_RunNoiseEnvelope(ptrSensor->raw[0u], ptrWidgetRam->sigPFC, ptrNoiseEnvelope);
1749:Generated_Source\PSoC4/CapSense_Filter.c **** }
1750:Generated_Source\PSoC4/CapSense_Filter.c **** 
1751:Generated_Source\PSoC4/CapSense_Filter.c **** 
1752:Generated_Source\PSoC4/CapSense_Filter.c **** /*******************************************************************************
1753:Generated_Source\PSoC4/CapSense_Filter.c **** * Function Name: CapSense_InitializeNoiseEnvelope
1754:Generated_Source\PSoC4/CapSense_Filter.c **** ****************************************************************************//**
1755:Generated_Source\PSoC4/CapSense_Filter.c **** *
1756:Generated_Source\PSoC4/CapSense_Filter.c **** * \brief
1757:Generated_Source\PSoC4/CapSense_Filter.c **** *  Initializes the noise-envelope filter
1758:Generated_Source\PSoC4/CapSense_Filter.c **** *
1759:Generated_Source\PSoC4/CapSense_Filter.c **** * \details
1760:Generated_Source\PSoC4/CapSense_Filter.c **** *  Initializes the noise-envelope filter
1761:Generated_Source\PSoC4/CapSense_Filter.c **** *
1762:Generated_Source\PSoC4/CapSense_Filter.c **** * \param widgetId
1763:Generated_Source\PSoC4/CapSense_Filter.c **** *  Specifies the ID number of the widget.
1764:Generated_Source\PSoC4/CapSense_Filter.c **** *
1765:Generated_Source\PSoC4/CapSense_Filter.c **** * \param sensorId
1766:Generated_Source\PSoC4/CapSense_Filter.c **** *  Specifies the ID number of the sensor in the widget.
1767:Generated_Source\PSoC4/CapSense_Filter.c **** *
1768:Generated_Source\PSoC4/CapSense_Filter.c **** *******************************************************************************/
1769:Generated_Source\PSoC4/CapSense_Filter.c **** void CapSense_InitializeNoiseEnvelope(uint32 widgetId, uint32 sensorId)
1770:Generated_Source\PSoC4/CapSense_Filter.c **** {
1771:Generated_Source\PSoC4/CapSense_Filter.c ****     CapSense_FLASH_WD_STRUCT const *ptrWidget = &CapSense_dsFlash.wdgtArray[widgetId];
1772:Generated_Source\PSoC4/CapSense_Filter.c ****     CapSense_RAM_WD_BASE_STRUCT *ptrWidgetRam = ptrWidget->ptr2WdgtRam;
1773:Generated_Source\PSoC4/CapSense_Filter.c ****     CapSense_RAM_SNS_STRUCT *ptrSensor = NULL;
1774:Generated_Source\PSoC4/CapSense_Filter.c ****     SMARTSENSE_CSD_NOISE_ENVELOPE_STRUCT *ptrNoiseEnvelope = NULL;
1775:Generated_Source\PSoC4/CapSense_Filter.c **** 
ARM GAS  C:\Users\dell\AppData\Local\Temp\ccWEiAI7.s 			page 48


1776:Generated_Source\PSoC4/CapSense_Filter.c ****     /* Find pointer to specified sensor object */
1777:Generated_Source\PSoC4/CapSense_Filter.c ****     ptrSensor = ptrWidget->ptr2SnsRam;
1778:Generated_Source\PSoC4/CapSense_Filter.c ****     ptrSensor = &ptrSensor[sensorId];
1779:Generated_Source\PSoC4/CapSense_Filter.c **** 
1780:Generated_Source\PSoC4/CapSense_Filter.c ****     /* Find pointer to specified filter sensor object */
1781:Generated_Source\PSoC4/CapSense_Filter.c ****     ptrNoiseEnvelope = ptrWidget->ptr2NoiseEnvlp;
1782:Generated_Source\PSoC4/CapSense_Filter.c ****     ptrNoiseEnvelope = &ptrNoiseEnvelope[sensorId];
1783:Generated_Source\PSoC4/CapSense_Filter.c **** 
1784:Generated_Source\PSoC4/CapSense_Filter.c ****     SmartSense_InitializeNoiseEnvelope(ptrSensor->raw[0u], ptrWidgetRam->sigPFC, ptrNoiseEnvelope);
1785:Generated_Source\PSoC4/CapSense_Filter.c **** }
1786:Generated_Source\PSoC4/CapSense_Filter.c **** #endif /* (0u != (CapSense_CSD_AUTOTUNE & CapSense_CSD_SS_TH_EN)) */
1787:Generated_Source\PSoC4/CapSense_Filter.c **** 
1788:Generated_Source\PSoC4/CapSense_Filter.c **** 
1789:Generated_Source\PSoC4/CapSense_Filter.c **** #if (CapSense_POS_MEDIAN_FILTER_EN || CapSense_REGULAR_RC_MEDIAN_FILTER_EN || CapSense_PROX_RC_MEDI
1790:Generated_Source\PSoC4/CapSense_Filter.c **** /*******************************************************************************
1791:Generated_Source\PSoC4/CapSense_Filter.c **** * Function Name: CapSense_FtMedian
1792:Generated_Source\PSoC4/CapSense_Filter.c **** ****************************************************************************//**
1793:Generated_Source\PSoC4/CapSense_Filter.c **** *
1794:Generated_Source\PSoC4/CapSense_Filter.c **** * \brief
1795:Generated_Source\PSoC4/CapSense_Filter.c **** *  Return the median value from the three passed arguments.
1796:Generated_Source\PSoC4/CapSense_Filter.c **** *
1797:Generated_Source\PSoC4/CapSense_Filter.c **** * \details
1798:Generated_Source\PSoC4/CapSense_Filter.c **** *  Return the median value from the three passed arguments.
1799:Generated_Source\PSoC4/CapSense_Filter.c **** *
1800:Generated_Source\PSoC4/CapSense_Filter.c **** * \param x1
1801:Generated_Source\PSoC4/CapSense_Filter.c **** *  The first value to be compared.
1802:Generated_Source\PSoC4/CapSense_Filter.c **** *
1803:Generated_Source\PSoC4/CapSense_Filter.c **** * \param x2
1804:Generated_Source\PSoC4/CapSense_Filter.c **** *  The second value to be compared.
1805:Generated_Source\PSoC4/CapSense_Filter.c **** *
1806:Generated_Source\PSoC4/CapSense_Filter.c **** * \param x3
1807:Generated_Source\PSoC4/CapSense_Filter.c **** *  The third value to be compared.
1808:Generated_Source\PSoC4/CapSense_Filter.c **** *
1809:Generated_Source\PSoC4/CapSense_Filter.c **** * \return
1810:Generated_Source\PSoC4/CapSense_Filter.c **** *  Returns the median value of input arguments.
1811:Generated_Source\PSoC4/CapSense_Filter.c **** *
1812:Generated_Source\PSoC4/CapSense_Filter.c **** *******************************************************************************/
1813:Generated_Source\PSoC4/CapSense_Filter.c **** uint32 CapSense_FtMedian(uint32 x1, uint32 x2, uint32 x3)
1814:Generated_Source\PSoC4/CapSense_Filter.c **** {
1815:Generated_Source\PSoC4/CapSense_Filter.c ****     uint32 tmp;
1816:Generated_Source\PSoC4/CapSense_Filter.c **** 
1817:Generated_Source\PSoC4/CapSense_Filter.c ****     if (x1 > x2)
1818:Generated_Source\PSoC4/CapSense_Filter.c ****     {
1819:Generated_Source\PSoC4/CapSense_Filter.c ****         tmp = x2;
1820:Generated_Source\PSoC4/CapSense_Filter.c ****         x2 = x1;
1821:Generated_Source\PSoC4/CapSense_Filter.c ****         x1 = tmp;
1822:Generated_Source\PSoC4/CapSense_Filter.c ****     }
1823:Generated_Source\PSoC4/CapSense_Filter.c **** 
1824:Generated_Source\PSoC4/CapSense_Filter.c ****     if (x2 > x3)
1825:Generated_Source\PSoC4/CapSense_Filter.c ****     {
1826:Generated_Source\PSoC4/CapSense_Filter.c ****         x2 = x3;
1827:Generated_Source\PSoC4/CapSense_Filter.c ****     }
1828:Generated_Source\PSoC4/CapSense_Filter.c **** 
1829:Generated_Source\PSoC4/CapSense_Filter.c ****     return ((x1 > x2) ? x1 : x2);
1830:Generated_Source\PSoC4/CapSense_Filter.c **** }
1831:Generated_Source\PSoC4/CapSense_Filter.c **** #endif /*CapSense_POS_MEDIAN_FILTER_EN || CapSense_REGULAR_RC_MEDIAN_FILTER_EN || CapSense_PROX_RC_
1832:Generated_Source\PSoC4/CapSense_Filter.c **** 
ARM GAS  C:\Users\dell\AppData\Local\Temp\ccWEiAI7.s 			page 49


1833:Generated_Source\PSoC4/CapSense_Filter.c **** 
1834:Generated_Source\PSoC4/CapSense_Filter.c **** /*******************************************************************************
1835:Generated_Source\PSoC4/CapSense_Filter.c **** * Function Name: CapSense_FtIIR1stOrder
1836:Generated_Source\PSoC4/CapSense_Filter.c **** ****************************************************************************//**
1837:Generated_Source\PSoC4/CapSense_Filter.c **** *
1838:Generated_Source\PSoC4/CapSense_Filter.c **** * \brief
1839:Generated_Source\PSoC4/CapSense_Filter.c **** *  Return the filtered data by the IIR 1-st order algorithm
1840:Generated_Source\PSoC4/CapSense_Filter.c **** *
1841:Generated_Source\PSoC4/CapSense_Filter.c **** * \details
1842:Generated_Source\PSoC4/CapSense_Filter.c **** *  Return the filtered data by the IIR 1-st order algorithm
1843:Generated_Source\PSoC4/CapSense_Filter.c **** *
1844:Generated_Source\PSoC4/CapSense_Filter.c **** * \param input
1845:Generated_Source\PSoC4/CapSense_Filter.c **** *  The data to be filtered.
1846:Generated_Source\PSoC4/CapSense_Filter.c **** *
1847:Generated_Source\PSoC4/CapSense_Filter.c **** * \param prevOutput
1848:Generated_Source\PSoC4/CapSense_Filter.c **** *  The previous filtered data.
1849:Generated_Source\PSoC4/CapSense_Filter.c **** *
1850:Generated_Source\PSoC4/CapSense_Filter.c **** * \param n
1851:Generated_Source\PSoC4/CapSense_Filter.c **** *  The IIR filter coefficient (n/256).
1852:Generated_Source\PSoC4/CapSense_Filter.c **** *
1853:Generated_Source\PSoC4/CapSense_Filter.c **** * \param shift
1854:Generated_Source\PSoC4/CapSense_Filter.c **** *  The parameter is used to shift input data to have free LSB
1855:Generated_Source\PSoC4/CapSense_Filter.c **** *  bits for a fraction storage of the filter output calculation.
1856:Generated_Source\PSoC4/CapSense_Filter.c **** *
1857:Generated_Source\PSoC4/CapSense_Filter.c **** * \return
1858:Generated_Source\PSoC4/CapSense_Filter.c **** *  Returns the filtered data.
1859:Generated_Source\PSoC4/CapSense_Filter.c **** *
1860:Generated_Source\PSoC4/CapSense_Filter.c **** *******************************************************************************/
1861:Generated_Source\PSoC4/CapSense_Filter.c **** uint32 CapSense_FtIIR1stOrder(uint32 input, uint32 prevOutput, uint32 n, uint32 shift)
1862:Generated_Source\PSoC4/CapSense_Filter.c **** {
 827              		.loc 1 1862 0
 828              		.cfi_startproc
 829              		@ args = 0, pretend = 0, frame = 0
 830              		@ frame_needed = 0, uses_anonymous_args = 0
 831              		@ link register save eliminated.
 832              	.LVL107:
1863:Generated_Source\PSoC4/CapSense_Filter.c ****     uint32 filteredOutput;
1864:Generated_Source\PSoC4/CapSense_Filter.c **** 
1865:Generated_Source\PSoC4/CapSense_Filter.c ****     /*
1866:Generated_Source\PSoC4/CapSense_Filter.c ****     * n - IIR filter coefficient (n/256)
1867:Generated_Source\PSoC4/CapSense_Filter.c ****     * shift - Used to shift input data to have free LSB bits
1868:Generated_Source\PSoC4/CapSense_Filter.c ****     * for fraction storage of filter output calculation
1869:Generated_Source\PSoC4/CapSense_Filter.c ****     */
1870:Generated_Source\PSoC4/CapSense_Filter.c ****     filteredOutput = ((n * (input << shift)) + ((CapSense_IIR_COEFFICIENT_K - n) * prevOutput)) >> 
 833              		.loc 1 1870 0
 834 0000 9840     		lsls	r0, r0, r3
 835              	.LVL108:
 836 0002 5043     		muls	r0, r2
 837 0004 8023     		movs	r3, #128
 838              	.LVL109:
 839 0006 5B00     		lsls	r3, r3, #1
 840 0008 9A1A     		subs	r2, r3, r2
 841              	.LVL110:
 842 000a 5143     		muls	r1, r2
 843              	.LVL111:
 844 000c 4018     		adds	r0, r0, r1
 845 000e 000A     		lsrs	r0, r0, #8
ARM GAS  C:\Users\dell\AppData\Local\Temp\ccWEiAI7.s 			page 50


 846              	.LVL112:
1871:Generated_Source\PSoC4/CapSense_Filter.c **** 
1872:Generated_Source\PSoC4/CapSense_Filter.c ****     /* Shift operation of output will be done in upper level API if needed */
1873:Generated_Source\PSoC4/CapSense_Filter.c ****     return filteredOutput;
1874:Generated_Source\PSoC4/CapSense_Filter.c **** }
 847              		.loc 1 1874 0
 848              		@ sp needed
 849 0010 7047     		bx	lr
 850              		.cfi_endproc
 851              	.LFE19:
 852              		.size	CapSense_FtIIR1stOrder, .-CapSense_FtIIR1stOrder
 853 0012 C046     		.section	.text.CapSense_FtUpdateBaseline,"ax",%progbits
 854              		.align	2
 855              		.global	CapSense_FtUpdateBaseline
 856              		.code	16
 857              		.thumb_func
 858              		.type	CapSense_FtUpdateBaseline, %function
 859              	CapSense_FtUpdateBaseline:
 860              	.LFB5:
 259:Generated_Source\PSoC4/CapSense_Filter.c ****     uint32 sign;
 861              		.loc 1 259 0
 862              		.cfi_startproc
 863              		@ args = 0, pretend = 0, frame = 8
 864              		@ frame_needed = 0, uses_anonymous_args = 0
 865              	.LVL113:
 866 0000 F0B5     		push	{r4, r5, r6, r7, lr}
 867              		.cfi_def_cfa_offset 20
 868              		.cfi_offset 4, -20
 869              		.cfi_offset 5, -16
 870              		.cfi_offset 6, -12
 871              		.cfi_offset 7, -8
 872              		.cfi_offset 14, -4
 873 0002 4746     		mov	r7, r8
 874 0004 80B4     		push	{r7}
 875              		.cfi_def_cfa_offset 24
 876              		.cfi_offset 8, -24
 877 0006 82B0     		sub	sp, sp, #8
 878              		.cfi_def_cfa_offset 32
 879 0008 0700     		movs	r7, r0
 880 000a 0E00     		movs	r6, r1
 881 000c 0192     		str	r2, [sp, #4]
 882              	.LVL114:
 271:Generated_Source\PSoC4/CapSense_Filter.c ****     {
 883              		.loc 1 271 0
 884 000e 0123     		movs	r3, #1
 885 0010 3EE0     		b	.L50
 886              	.LVL115:
 887              	.L57:
 283:Generated_Source\PSoC4/CapSense_Filter.c ****         {
 888              		.loc 1 283 0
 889 0012 6300     		lsls	r3, r4, #1
 890 0014 985B     		ldrh	r0, [r3, r6]
 891 0016 F318     		adds	r3, r6, r3
 892 0018 5988     		ldrh	r1, [r3, #2]
 893 001a 8842     		cmp	r0, r1
 894 001c 05D3     		bcc	.L51
 285:Generated_Source\PSoC4/CapSense_Filter.c ****             sign = 1u;
ARM GAS  C:\Users\dell\AppData\Local\Temp\ccWEiAI7.s 			page 51


 895              		.loc 1 285 0
 896 001e 431A     		subs	r3, r0, r1
 897              	.LVL116:
 287:Generated_Source\PSoC4/CapSense_Filter.c ****         }
 898              		.loc 1 287 0
 899 0020 3219     		adds	r2, r6, r4
 900 0022 0025     		movs	r5, #0
 901 0024 1572     		strb	r5, [r2, #8]
 286:Generated_Source\PSoC4/CapSense_Filter.c ****             ptrSensor->negBslnRstCnt[freqChannel] = 0u;
 902              		.loc 1 286 0
 903 0026 0122     		movs	r2, #1
 904 0028 01E0     		b	.L52
 905              	.LVL117:
 906              	.L51:
 291:Generated_Source\PSoC4/CapSense_Filter.c ****             sign = 0u;
 907              		.loc 1 291 0
 908 002a 0B1A     		subs	r3, r1, r0
 909              	.LVL118:
 292:Generated_Source\PSoC4/CapSense_Filter.c ****         }
 910              		.loc 1 292 0
 911 002c 0022     		movs	r2, #0
 912              	.LVL119:
 913              	.L52:
 296:Generated_Source\PSoC4/CapSense_Filter.c ****         {
 914              		.loc 1 296 0
 915 002e 002A     		cmp	r2, #0
 916 0030 11D1     		bne	.L53
 296:Generated_Source\PSoC4/CapSense_Filter.c ****         {
 917              		.loc 1 296 0 is_stmt 0 discriminator 1
 918 0032 7D79     		ldrb	r5, [r7, #5]
 919 0034 AB42     		cmp	r3, r5
 920 0036 0ED9     		bls	.L53
 298:Generated_Source\PSoC4/CapSense_Filter.c ****             {
 921              		.loc 1 298 0 is_stmt 1
 922 0038 3319     		adds	r3, r6, r4
 923              	.LVL120:
 924 003a 1B7A     		ldrb	r3, [r3, #8]
 925 003c 3A7A     		ldrb	r2, [r7, #8]
 926              	.LVL121:
 927 003e 9342     		cmp	r3, r2
 928 0040 05D3     		bcc	.L54
 300:Generated_Source\PSoC4/CapSense_Filter.c ****             }
 929              		.loc 1 300 0
 930 0042 2200     		movs	r2, r4
 931 0044 0199     		ldr	r1, [sp, #4]
 932 0046 3000     		movs	r0, r6
 933 0048 FFF7FEFF 		bl	CapSense_FtInitializeBaselineChannel
 934              	.LVL122:
 935 004c 1FE0     		b	.L55
 936              	.L54:
 304:Generated_Source\PSoC4/CapSense_Filter.c ****             }
 937              		.loc 1 304 0
 938 004e 3219     		adds	r2, r6, r4
 939 0050 0133     		adds	r3, r3, #1
 940 0052 1372     		strb	r3, [r2, #8]
 941 0054 1BE0     		b	.L55
 942              	.LVL123:
ARM GAS  C:\Users\dell\AppData\Local\Temp\ccWEiAI7.s 			page 52


 943              	.L53:
 311:Generated_Source\PSoC4/CapSense_Filter.c ****                     ((difference < (uint32) ptrWidgetRam->nNoiseTh) && (sign == 0u)))
 944              		.loc 1 311 0
 945 0056 3D79     		ldrb	r5, [r7, #4]
 946 0058 AB42     		cmp	r3, r5
 947 005a 04D9     		bls	.L56
 312:Generated_Source\PSoC4/CapSense_Filter.c ****                 {
 948              		.loc 1 312 0 discriminator 1
 949 005c 7D79     		ldrb	r5, [r7, #5]
 311:Generated_Source\PSoC4/CapSense_Filter.c ****                     ((difference < (uint32) ptrWidgetRam->nNoiseTh) && (sign == 0u)))
 950              		.loc 1 311 0 discriminator 1
 951 005e AB42     		cmp	r3, r5
 952 0060 15D2     		bcs	.L55
 312:Generated_Source\PSoC4/CapSense_Filter.c ****                 {
 953              		.loc 1 312 0
 954 0062 002A     		cmp	r2, #0
 955 0064 13D1     		bne	.L55
 956              	.L56:
 318:Generated_Source\PSoC4/CapSense_Filter.c ****                 {
 957              		.loc 1 318 0
 958 0066 FF23     		movs	r3, #255
 959              	.LVL124:
 960 0068 019A     		ldr	r2, [sp, #4]
 961              	.LVL125:
 962 006a 1340     		ands	r3, r2
 963 006c 062B     		cmp	r3, #6
 964 006e 0ED0     		beq	.L55
 322:Generated_Source\PSoC4/CapSense_Filter.c ****                             history |= ptrSensor->bslnExt[freqChannel];
 965              		.loc 1 322 0
 966 0070 0902     		lsls	r1, r1, #8
 967              	.LVL126:
 323:Generated_Source\PSoC4/CapSense_Filter.c ****                         #else
 968              		.loc 1 323 0
 969 0072 3319     		adds	r3, r6, r4
 970 0074 9846     		mov	r8, r3
 971 0076 1B79     		ldrb	r3, [r3, #4]
 972 0078 1943     		orrs	r1, r3
 973              	.LVL127:
 334:Generated_Source\PSoC4/CapSense_Filter.c ****                                         (uint32)ptrSensor->raw[freqChannel],
 974              		.loc 1 334 0
 975 007a 0823     		movs	r3, #8
 976 007c 0122     		movs	r2, #1
 977 007e FFF7FEFF 		bl	CapSense_FtIIR1stOrder
 978              	.LVL128:
 340:Generated_Source\PSoC4/CapSense_Filter.c ****                             ptrSensor->bslnExt[freqChannel] = LO8(history);
 979              		.loc 1 340 0
 980 0082 020A     		lsrs	r2, r0, #8
 981 0084 6300     		lsls	r3, r4, #1
 982 0086 F318     		adds	r3, r6, r3
 983 0088 5A80     		strh	r2, [r3, #2]
 341:Generated_Source\PSoC4/CapSense_Filter.c ****                         #else
 984              		.loc 1 341 0
 985 008a 4346     		mov	r3, r8
 986 008c 1871     		strb	r0, [r3, #4]
 987              	.LVL129:
 988              	.L55:
 989 008e 2300     		movs	r3, r4
ARM GAS  C:\Users\dell\AppData\Local\Temp\ccWEiAI7.s 			page 53


 990              	.LVL130:
 991              	.L50:
 271:Generated_Source\PSoC4/CapSense_Filter.c ****     {
 992              		.loc 1 271 0 discriminator 1
 993 0090 5C1E     		subs	r4, r3, #1
 994              	.LVL131:
 995 0092 002B     		cmp	r3, #0
 996 0094 BDD1     		bne	.L57
 398:Generated_Source\PSoC4/CapSense_Filter.c **** 
 997              		.loc 1 398 0
 998 0096 0020     		movs	r0, #0
 999 0098 02B0     		add	sp, sp, #8
 1000              		@ sp needed
 1001              	.LVL132:
 1002              	.LVL133:
 1003              	.LVL134:
 1004 009a 04BC     		pop	{r2}
 1005 009c 9046     		mov	r8, r2
 1006 009e F0BD     		pop	{r4, r5, r6, r7, pc}
 1007              		.cfi_endproc
 1008              	.LFE5:
 1009              		.size	CapSense_FtUpdateBaseline, .-CapSense_FtUpdateBaseline
 1010              		.section	.text.CapSense_UpdateSensorBaseline,"ax",%progbits
 1011              		.align	2
 1012              		.global	CapSense_UpdateSensorBaseline
 1013              		.code	16
 1014              		.thumb_func
 1015              		.type	CapSense_UpdateSensorBaseline, %function
 1016              	CapSense_UpdateSensorBaseline:
 1017              	.LFB4:
 201:Generated_Source\PSoC4/CapSense_Filter.c ****     uint32 result = CYRET_SUCCESS;
 1018              		.loc 1 201 0
 1019              		.cfi_startproc
 1020              		@ args = 0, pretend = 0, frame = 0
 1021              		@ frame_needed = 0, uses_anonymous_args = 0
 1022              	.LVL135:
 1023 0000 70B5     		push	{r4, r5, r6, lr}
 1024              		.cfi_def_cfa_offset 16
 1025              		.cfi_offset 4, -16
 1026              		.cfi_offset 5, -12
 1027              		.cfi_offset 6, -8
 1028              		.cfi_offset 14, -4
 1029              	.LVL136:
 206:Generated_Source\PSoC4/CapSense_Filter.c **** 
 1030              		.loc 1 206 0
 1031 0002 094D     		ldr	r5, .L59
 1032 0004 C300     		lsls	r3, r0, #3
 1033 0006 1C1A     		subs	r4, r3, r0
 1034 0008 A200     		lsls	r2, r4, #2
 1035 000a AA18     		adds	r2, r5, r2
 1036 000c 5468     		ldr	r4, [r2, #4]
 1037              	.LVL137:
 209:Generated_Source\PSoC4/CapSense_Filter.c ****     ptrSensor = &ptrSensor[sensorId];
 1038              		.loc 1 209 0
 1039 000e 9668     		ldr	r6, [r2, #8]
 1040              	.LVL138:
 210:Generated_Source\PSoC4/CapSense_Filter.c ****     result = CapSense_FtUpdateBaseline(ptrWidgetRam, ptrSensor, (uint32)ptrWidget->wdgtType);
ARM GAS  C:\Users\dell\AppData\Local\Temp\ccWEiAI7.s 			page 54


 1041              		.loc 1 210 0
 1042 0010 8A00     		lsls	r2, r1, #2
 1043 0012 5218     		adds	r2, r2, r1
 1044 0014 5100     		lsls	r1, r2, #1
 1045              	.LVL139:
 1046 0016 7118     		adds	r1, r6, r1
 1047              	.LVL140:
 211:Generated_Source\PSoC4/CapSense_Filter.c **** 
 1048              		.loc 1 211 0
 1049 0018 1B1A     		subs	r3, r3, r0
 1050 001a 9A00     		lsls	r2, r3, #2
 1051 001c AA18     		adds	r2, r5, r2
 1052 001e 927E     		ldrb	r2, [r2, #26]
 1053 0020 2000     		movs	r0, r4
 1054              	.LVL141:
 1055 0022 FFF7FEFF 		bl	CapSense_FtUpdateBaseline
 1056              	.LVL142:
 222:Generated_Source\PSoC4/CapSense_Filter.c **** 
 1057              		.loc 1 222 0
 1058              		@ sp needed
 1059              	.LVL143:
 1060              	.LVL144:
 1061              	.LVL145:
 1062 0026 70BD     		pop	{r4, r5, r6, pc}
 1063              	.L60:
 1064              		.align	2
 1065              	.L59:
 1066 0028 00000000 		.word	CapSense_dsFlash
 1067              		.cfi_endproc
 1068              	.LFE4:
 1069              		.size	CapSense_UpdateSensorBaseline, .-CapSense_UpdateSensorBaseline
 1070              		.section	.text.CapSense_UpdateWidgetBaseline,"ax",%progbits
 1071              		.align	2
 1072              		.global	CapSense_UpdateWidgetBaseline
 1073              		.code	16
 1074              		.thumb_func
 1075              		.type	CapSense_UpdateWidgetBaseline, %function
 1076              	CapSense_UpdateWidgetBaseline:
 1077              	.LFB3:
 144:Generated_Source\PSoC4/CapSense_Filter.c ****     uint32 sensorId;
 1078              		.loc 1 144 0
 1079              		.cfi_startproc
 1080              		@ args = 0, pretend = 0, frame = 0
 1081              		@ frame_needed = 0, uses_anonymous_args = 0
 1082              	.LVL146:
 1083 0000 70B5     		push	{r4, r5, r6, lr}
 1084              		.cfi_def_cfa_offset 16
 1085              		.cfi_offset 4, -16
 1086              		.cfi_offset 5, -12
 1087              		.cfi_offset 6, -8
 1088              		.cfi_offset 14, -4
 1089 0002 0600     		movs	r6, r0
 1090              	.LVL147:
 152:Generated_Source\PSoC4/CapSense_Filter.c **** 
 1091              		.loc 1 152 0
 1092 0004 C200     		lsls	r2, r0, #3
 1093 0006 121A     		subs	r2, r2, r0
ARM GAS  C:\Users\dell\AppData\Local\Temp\ccWEiAI7.s 			page 55


 1094 0008 9300     		lsls	r3, r2, #2
 1095 000a 084A     		ldr	r2, .L64
 1096 000c D318     		adds	r3, r2, r3
 1097 000e 1B8B     		ldrh	r3, [r3, #24]
 1098              	.LVL148:
 149:Generated_Source\PSoC4/CapSense_Filter.c **** 
 1099              		.loc 1 149 0
 1100 0010 0025     		movs	r5, #0
 154:Generated_Source\PSoC4/CapSense_Filter.c ****     {
 1101              		.loc 1 154 0
 1102 0012 05E0     		b	.L62
 1103              	.LVL149:
 1104              	.L63:
 156:Generated_Source\PSoC4/CapSense_Filter.c ****     }
 1105              		.loc 1 156 0
 1106 0014 2100     		movs	r1, r4
 1107 0016 3000     		movs	r0, r6
 1108 0018 FFF7FEFF 		bl	CapSense_UpdateSensorBaseline
 1109              	.LVL150:
 1110 001c 0543     		orrs	r5, r0
 1111              	.LVL151:
 154:Generated_Source\PSoC4/CapSense_Filter.c ****     {
 1112              		.loc 1 154 0
 1113 001e 2300     		movs	r3, r4
 1114              	.LVL152:
 1115              	.L62:
 154:Generated_Source\PSoC4/CapSense_Filter.c ****     {
 1116              		.loc 1 154 0 is_stmt 0 discriminator 1
 1117 0020 5C1E     		subs	r4, r3, #1
 1118              	.LVL153:
 1119 0022 002B     		cmp	r3, #0
 1120 0024 F6D1     		bne	.L63
 160:Generated_Source\PSoC4/CapSense_Filter.c **** 
 1121              		.loc 1 160 0 is_stmt 1
 1122 0026 2800     		movs	r0, r5
 1123              		@ sp needed
 1124              	.LVL154:
 1125              	.LVL155:
 1126              	.LVL156:
 1127 0028 70BD     		pop	{r4, r5, r6, pc}
 1128              	.L65:
 1129 002a C046     		.align	2
 1130              	.L64:
 1131 002c 00000000 		.word	CapSense_dsFlash
 1132              		.cfi_endproc
 1133              	.LFE3:
 1134              		.size	CapSense_UpdateWidgetBaseline, .-CapSense_UpdateWidgetBaseline
 1135              		.section	.text.CapSense_UpdateAllBaselines,"ax",%progbits
 1136              		.align	2
 1137              		.global	CapSense_UpdateAllBaselines
 1138              		.code	16
 1139              		.thumb_func
 1140              		.type	CapSense_UpdateAllBaselines, %function
 1141              	CapSense_UpdateAllBaselines:
 1142              	.LFB2:
  98:Generated_Source\PSoC4/CapSense_Filter.c ****     uint32 widgetId;
 1143              		.loc 1 98 0
ARM GAS  C:\Users\dell\AppData\Local\Temp\ccWEiAI7.s 			page 56


 1144              		.cfi_startproc
 1145              		@ args = 0, pretend = 0, frame = 0
 1146              		@ frame_needed = 0, uses_anonymous_args = 0
 1147 0000 70B5     		push	{r4, r5, r6, lr}
 1148              		.cfi_def_cfa_offset 16
 1149              		.cfi_offset 4, -16
 1150              		.cfi_offset 5, -12
 1151              		.cfi_offset 6, -8
 1152              		.cfi_offset 14, -4
 1153              	.LVL157:
 100:Generated_Source\PSoC4/CapSense_Filter.c **** 
 1154              		.loc 1 100 0
 1155 0002 0025     		movs	r5, #0
 102:Generated_Source\PSoC4/CapSense_Filter.c ****     {
 1156              		.loc 1 102 0
 1157 0004 0423     		movs	r3, #4
 1158 0006 04E0     		b	.L67
 1159              	.LVL158:
 1160              	.L68:
 104:Generated_Source\PSoC4/CapSense_Filter.c ****     }
 1161              		.loc 1 104 0
 1162 0008 2000     		movs	r0, r4
 1163 000a FFF7FEFF 		bl	CapSense_UpdateWidgetBaseline
 1164              	.LVL159:
 1165 000e 0543     		orrs	r5, r0
 1166              	.LVL160:
 102:Generated_Source\PSoC4/CapSense_Filter.c ****     {
 1167              		.loc 1 102 0
 1168 0010 2300     		movs	r3, r4
 1169              	.LVL161:
 1170              	.L67:
 102:Generated_Source\PSoC4/CapSense_Filter.c ****     {
 1171              		.loc 1 102 0 is_stmt 0 discriminator 1
 1172 0012 5C1E     		subs	r4, r3, #1
 1173              	.LVL162:
 1174 0014 002B     		cmp	r3, #0
 1175 0016 F7D1     		bne	.L68
 108:Generated_Source\PSoC4/CapSense_Filter.c **** 
 1176              		.loc 1 108 0 is_stmt 1
 1177 0018 2800     		movs	r0, r5
 1178              		@ sp needed
 1179              	.LVL163:
 1180              	.LVL164:
 1181 001a 70BD     		pop	{r4, r5, r6, pc}
 1182              		.cfi_endproc
 1183              	.LFE2:
 1184              		.size	CapSense_UpdateAllBaselines, .-CapSense_UpdateAllBaselines
 1185              		.text
 1186              	.Letext0:
 1187              		.file 2 "Generated_Source\\PSoC4\\cytypes.h"
 1188              		.file 3 "Generated_Source\\PSoC4\\CapSense_Configuration.h"
 1189              		.file 4 "Generated_Source\\PSoC4\\CapSense_Structure.h"
 1190              		.section	.debug_info,"",%progbits
 1191              	.Ldebug_info0:
 1192 0000 730B0000 		.4byte	0xb73
 1193 0004 0400     		.2byte	0x4
 1194 0006 00000000 		.4byte	.Ldebug_abbrev0
ARM GAS  C:\Users\dell\AppData\Local\Temp\ccWEiAI7.s 			page 57


 1195 000a 04       		.byte	0x4
 1196 000b 01       		.uleb128 0x1
 1197 000c 1A010000 		.4byte	.LASF103
 1198 0010 0C       		.byte	0xc
 1199 0011 64070000 		.4byte	.LASF104
 1200 0015 60050000 		.4byte	.LASF105
 1201 0019 00000000 		.4byte	.Ldebug_ranges0+0
 1202 001d 00000000 		.4byte	0
 1203 0021 00000000 		.4byte	.Ldebug_line0
 1204 0025 02       		.uleb128 0x2
 1205 0026 01       		.byte	0x1
 1206 0027 06       		.byte	0x6
 1207 0028 8F030000 		.4byte	.LASF0
 1208 002c 02       		.uleb128 0x2
 1209 002d 01       		.byte	0x1
 1210 002e 08       		.byte	0x8
 1211 002f 77030000 		.4byte	.LASF1
 1212 0033 02       		.uleb128 0x2
 1213 0034 02       		.byte	0x2
 1214 0035 05       		.byte	0x5
 1215 0036 B3000000 		.4byte	.LASF2
 1216 003a 02       		.uleb128 0x2
 1217 003b 02       		.byte	0x2
 1218 003c 07       		.byte	0x7
 1219 003d C3040000 		.4byte	.LASF3
 1220 0041 02       		.uleb128 0x2
 1221 0042 04       		.byte	0x4
 1222 0043 05       		.byte	0x5
 1223 0044 EB020000 		.4byte	.LASF4
 1224 0048 02       		.uleb128 0x2
 1225 0049 04       		.byte	0x4
 1226 004a 07       		.byte	0x7
 1227 004b BF050000 		.4byte	.LASF5
 1228 004f 02       		.uleb128 0x2
 1229 0050 08       		.byte	0x8
 1230 0051 05       		.byte	0x5
 1231 0052 D1020000 		.4byte	.LASF6
 1232 0056 02       		.uleb128 0x2
 1233 0057 08       		.byte	0x8
 1234 0058 07       		.byte	0x7
 1235 0059 9B030000 		.4byte	.LASF7
 1236 005d 03       		.uleb128 0x3
 1237 005e 04       		.byte	0x4
 1238 005f 05       		.byte	0x5
 1239 0060 696E7400 		.ascii	"int\000"
 1240 0064 02       		.uleb128 0x2
 1241 0065 04       		.byte	0x4
 1242 0066 07       		.byte	0x7
 1243 0067 CE030000 		.4byte	.LASF8
 1244 006b 04       		.uleb128 0x4
 1245 006c 5D020000 		.4byte	.LASF9
 1246 0070 02       		.byte	0x2
 1247 0071 F701     		.2byte	0x1f7
 1248 0073 2C000000 		.4byte	0x2c
 1249 0077 04       		.uleb128 0x4
 1250 0078 28020000 		.4byte	.LASF10
 1251 007c 02       		.byte	0x2
ARM GAS  C:\Users\dell\AppData\Local\Temp\ccWEiAI7.s 			page 58


 1252 007d F801     		.2byte	0x1f8
 1253 007f 3A000000 		.4byte	0x3a
 1254 0083 04       		.uleb128 0x4
 1255 0084 B8050000 		.4byte	.LASF11
 1256 0088 02       		.byte	0x2
 1257 0089 F901     		.2byte	0x1f9
 1258 008b 48000000 		.4byte	0x48
 1259 008f 02       		.uleb128 0x2
 1260 0090 04       		.byte	0x4
 1261 0091 04       		.byte	0x4
 1262 0092 CB020000 		.4byte	.LASF12
 1263 0096 02       		.uleb128 0x2
 1264 0097 08       		.byte	0x8
 1265 0098 04       		.byte	0x4
 1266 0099 D6050000 		.4byte	.LASF13
 1267 009d 02       		.uleb128 0x2
 1268 009e 01       		.byte	0x1
 1269 009f 08       		.byte	0x8
 1270 00a0 E6020000 		.4byte	.LASF14
 1271 00a4 04       		.uleb128 0x4
 1272 00a5 91040000 		.4byte	.LASF15
 1273 00a9 02       		.byte	0x2
 1274 00aa 9902     		.2byte	0x299
 1275 00ac 48000000 		.4byte	0x48
 1276 00b0 02       		.uleb128 0x2
 1277 00b1 08       		.byte	0x8
 1278 00b2 04       		.byte	0x4
 1279 00b3 6B030000 		.4byte	.LASF16
 1280 00b7 02       		.uleb128 0x2
 1281 00b8 04       		.byte	0x4
 1282 00b9 07       		.byte	0x7
 1283 00ba 03030000 		.4byte	.LASF17
 1284 00be 05       		.uleb128 0x5
 1285 00bf 04       		.byte	0x4
 1286 00c0 04       		.uleb128 0x4
 1287 00c1 A0050000 		.4byte	.LASF18
 1288 00c5 03       		.byte	0x3
 1289 00c6 0E01     		.2byte	0x10e
 1290 00c8 77000000 		.4byte	0x77
 1291 00cc 04       		.uleb128 0x4
 1292 00cd 1D040000 		.4byte	.LASF19
 1293 00d1 03       		.byte	0x3
 1294 00d2 1201     		.2byte	0x112
 1295 00d4 6B000000 		.4byte	0x6b
 1296 00d8 06       		.uleb128 0x6
 1297 00d9 01       		.byte	0x1
 1298 00da 2C000000 		.4byte	0x2c
 1299 00de 04       		.byte	0x4
 1300 00df 61       		.byte	0x61
 1301 00e0 09010000 		.4byte	0x109
 1302 00e4 07       		.uleb128 0x7
 1303 00e5 0B020000 		.4byte	.LASF20
 1304 00e9 01       		.byte	0x1
 1305 00ea 07       		.uleb128 0x7
 1306 00eb 2D050000 		.4byte	.LASF21
 1307 00ef 02       		.byte	0x2
 1308 00f0 07       		.uleb128 0x7
ARM GAS  C:\Users\dell\AppData\Local\Temp\ccWEiAI7.s 			page 59


 1309 00f1 77060000 		.4byte	.LASF22
 1310 00f5 03       		.byte	0x3
 1311 00f6 07       		.uleb128 0x7
 1312 00f7 13060000 		.4byte	.LASF23
 1313 00fb 04       		.byte	0x4
 1314 00fc 07       		.uleb128 0x7
 1315 00fd DF000000 		.4byte	.LASF24
 1316 0101 05       		.byte	0x5
 1317 0102 07       		.uleb128 0x7
 1318 0103 B3020000 		.4byte	.LASF25
 1319 0107 06       		.byte	0x6
 1320 0108 00       		.byte	0
 1321 0109 08       		.uleb128 0x8
 1322 010a F2050000 		.4byte	.LASF26
 1323 010e 04       		.byte	0x4
 1324 010f 68       		.byte	0x68
 1325 0110 D8000000 		.4byte	0xd8
 1326 0114 09       		.uleb128 0x9
 1327 0115 0E       		.byte	0xe
 1328 0116 04       		.byte	0x4
 1329 0117 8D       		.byte	0x8d
 1330 0118 95010000 		.4byte	0x195
 1331 011c 0A       		.uleb128 0xa
 1332 011d B8040000 		.4byte	.LASF27
 1333 0121 04       		.byte	0x4
 1334 0122 92       		.byte	0x92
 1335 0123 77000000 		.4byte	0x77
 1336 0127 00       		.byte	0
 1337 0128 0A       		.uleb128 0xa
 1338 0129 0C030000 		.4byte	.LASF28
 1339 012d 04       		.byte	0x4
 1340 012e 97       		.byte	0x97
 1341 012f C0000000 		.4byte	0xc0
 1342 0133 02       		.byte	0x2
 1343 0134 0A       		.uleb128 0xa
 1344 0135 20020000 		.4byte	.LASF29
 1345 0139 04       		.byte	0x4
 1346 013a 9C       		.byte	0x9c
 1347 013b 6B000000 		.4byte	0x6b
 1348 013f 04       		.byte	0x4
 1349 0140 0A       		.uleb128 0xa
 1350 0141 49050000 		.4byte	.LASF30
 1351 0145 04       		.byte	0x4
 1352 0146 A1       		.byte	0xa1
 1353 0147 6B000000 		.4byte	0x6b
 1354 014b 05       		.byte	0x5
 1355 014c 0A       		.uleb128 0xa
 1356 014d 42030000 		.4byte	.LASF31
 1357 0151 04       		.byte	0x4
 1358 0152 A7       		.byte	0xa7
 1359 0153 6B000000 		.4byte	0x6b
 1360 0157 06       		.byte	0x6
 1361 0158 0A       		.uleb128 0xa
 1362 0159 2F030000 		.4byte	.LASF32
 1363 015d 04       		.byte	0x4
 1364 015e AD       		.byte	0xad
 1365 015f 6B000000 		.4byte	0x6b
ARM GAS  C:\Users\dell\AppData\Local\Temp\ccWEiAI7.s 			page 60


 1366 0163 07       		.byte	0x7
 1367 0164 0A       		.uleb128 0xa
 1368 0165 59000000 		.4byte	.LASF33
 1369 0169 04       		.byte	0x4
 1370 016a B4       		.byte	0xb4
 1371 016b CC000000 		.4byte	0xcc
 1372 016f 08       		.byte	0x8
 1373 0170 0A       		.uleb128 0xa
 1374 0171 95000000 		.4byte	.LASF34
 1375 0175 04       		.byte	0x4
 1376 0176 BB       		.byte	0xbb
 1377 0177 95010000 		.4byte	0x195
 1378 017b 09       		.byte	0x9
 1379 017c 0A       		.uleb128 0xa
 1380 017d 70020000 		.4byte	.LASF35
 1381 0181 04       		.byte	0x4
 1382 0182 C3       		.byte	0xc3
 1383 0183 77000000 		.4byte	0x77
 1384 0187 0A       		.byte	0xa
 1385 0188 0A       		.uleb128 0xa
 1386 0189 D8010000 		.4byte	.LASF36
 1387 018d 04       		.byte	0x4
 1388 018e C8       		.byte	0xc8
 1389 018f 6B000000 		.4byte	0x6b
 1390 0193 0C       		.byte	0xc
 1391 0194 00       		.byte	0
 1392 0195 0B       		.uleb128 0xb
 1393 0196 6B000000 		.4byte	0x6b
 1394 019a A5010000 		.4byte	0x1a5
 1395 019e 0C       		.uleb128 0xc
 1396 019f B7000000 		.4byte	0xb7
 1397 01a3 00       		.byte	0
 1398 01a4 00       		.byte	0
 1399 01a5 08       		.uleb128 0x8
 1400 01a6 18070000 		.4byte	.LASF37
 1401 01aa 04       		.byte	0x4
 1402 01ab C9       		.byte	0xc9
 1403 01ac 14010000 		.4byte	0x114
 1404 01b0 0D       		.uleb128 0xd
 1405 01b1 0A       		.byte	0xa
 1406 01b2 04       		.byte	0x4
 1407 01b3 2B01     		.2byte	0x12b
 1408 01b5 08020000 		.4byte	0x208
 1409 01b9 0E       		.uleb128 0xe
 1410 01ba 72617700 		.ascii	"raw\000"
 1411 01be 04       		.byte	0x4
 1412 01bf 3001     		.2byte	0x130
 1413 01c1 08020000 		.4byte	0x208
 1414 01c5 00       		.byte	0
 1415 01c6 0F       		.uleb128 0xf
 1416 01c7 1D000000 		.4byte	.LASF38
 1417 01cb 04       		.byte	0x4
 1418 01cc 3501     		.2byte	0x135
 1419 01ce 08020000 		.4byte	0x208
 1420 01d2 02       		.byte	0x2
 1421 01d3 0F       		.uleb128 0xf
 1422 01d4 DD050000 		.4byte	.LASF39
ARM GAS  C:\Users\dell\AppData\Local\Temp\ccWEiAI7.s 			page 61


 1423 01d8 04       		.byte	0x4
 1424 01d9 3B01     		.2byte	0x13b
 1425 01db 95010000 		.4byte	0x195
 1426 01df 04       		.byte	0x4
 1427 01e0 0F       		.uleb128 0xf
 1428 01e1 64000000 		.4byte	.LASF40
 1429 01e5 04       		.byte	0x4
 1430 01e6 4001     		.2byte	0x140
 1431 01e8 C0000000 		.4byte	0xc0
 1432 01ec 06       		.byte	0x6
 1433 01ed 0F       		.uleb128 0xf
 1434 01ee 15030000 		.4byte	.LASF41
 1435 01f2 04       		.byte	0x4
 1436 01f3 4501     		.2byte	0x145
 1437 01f5 18020000 		.4byte	0x218
 1438 01f9 08       		.byte	0x8
 1439 01fa 0F       		.uleb128 0xf
 1440 01fb AC010000 		.4byte	.LASF42
 1441 01ff 04       		.byte	0x4
 1442 0200 4A01     		.2byte	0x14a
 1443 0202 95010000 		.4byte	0x195
 1444 0206 09       		.byte	0x9
 1445 0207 00       		.byte	0
 1446 0208 0B       		.uleb128 0xb
 1447 0209 77000000 		.4byte	0x77
 1448 020d 18020000 		.4byte	0x218
 1449 0211 0C       		.uleb128 0xc
 1450 0212 B7000000 		.4byte	0xb7
 1451 0216 00       		.byte	0
 1452 0217 00       		.byte	0
 1453 0218 0B       		.uleb128 0xb
 1454 0219 CC000000 		.4byte	0xcc
 1455 021d 28020000 		.4byte	0x228
 1456 0221 0C       		.uleb128 0xc
 1457 0222 B7000000 		.4byte	0xb7
 1458 0226 00       		.byte	0
 1459 0227 00       		.byte	0
 1460 0228 04       		.uleb128 0x4
 1461 0229 05040000 		.4byte	.LASF43
 1462 022d 04       		.byte	0x4
 1463 022e 4B01     		.2byte	0x14b
 1464 0230 B0010000 		.4byte	0x1b0
 1465 0234 0D       		.uleb128 0xd
 1466 0235 1C       		.byte	0x1c
 1467 0236 04       		.byte	0x4
 1468 0237 6002     		.2byte	0x260
 1469 0239 B3020000 		.4byte	0x2b3
 1470 023d 0F       		.uleb128 0xf
 1471 023e 34070000 		.4byte	.LASF44
 1472 0242 04       		.byte	0x4
 1473 0243 6902     		.2byte	0x269
 1474 0245 B3020000 		.4byte	0x2b3
 1475 0249 00       		.byte	0
 1476 024a 0F       		.uleb128 0xf
 1477 024b 23030000 		.4byte	.LASF45
 1478 024f 04       		.byte	0x4
 1479 0250 7002     		.2byte	0x270
ARM GAS  C:\Users\dell\AppData\Local\Temp\ccWEiAI7.s 			page 62


 1480 0252 BE000000 		.4byte	0xbe
 1481 0256 04       		.byte	0x4
 1482 0257 0F       		.uleb128 0xf
 1483 0258 2F060000 		.4byte	.LASF46
 1484 025c 04       		.byte	0x4
 1485 025d 7602     		.2byte	0x276
 1486 025f BA020000 		.4byte	0x2ba
 1487 0263 08       		.byte	0x8
 1488 0264 0F       		.uleb128 0xf
 1489 0265 5C060000 		.4byte	.LASF47
 1490 0269 04       		.byte	0x4
 1491 026a 7C02     		.2byte	0x27c
 1492 026c BE000000 		.4byte	0xbe
 1493 0270 0C       		.byte	0xc
 1494 0271 0F       		.uleb128 0xf
 1495 0272 4D020000 		.4byte	.LASF48
 1496 0276 04       		.byte	0x4
 1497 0277 8302     		.2byte	0x283
 1498 0279 C0020000 		.4byte	0x2c0
 1499 027d 10       		.byte	0x10
 1500 027e 0F       		.uleb128 0xf
 1501 027f C1030000 		.4byte	.LASF49
 1502 0283 04       		.byte	0x4
 1503 0284 8802     		.2byte	0x288
 1504 0286 83000000 		.4byte	0x83
 1505 028a 14       		.byte	0x14
 1506 028b 0F       		.uleb128 0xf
 1507 028c 69000000 		.4byte	.LASF50
 1508 0290 04       		.byte	0x4
 1509 0291 8F02     		.2byte	0x28f
 1510 0293 77000000 		.4byte	0x77
 1511 0297 18       		.byte	0x18
 1512 0298 0F       		.uleb128 0xf
 1513 0299 FA020000 		.4byte	.LASF51
 1514 029d 04       		.byte	0x4
 1515 029e 9602     		.2byte	0x296
 1516 02a0 6B000000 		.4byte	0x6b
 1517 02a4 1A       		.byte	0x1a
 1518 02a5 0F       		.uleb128 0xf
 1519 02a6 3A030000 		.4byte	.LASF52
 1520 02aa 04       		.byte	0x4
 1521 02ab A002     		.2byte	0x2a0
 1522 02ad 6B000000 		.4byte	0x6b
 1523 02b1 1B       		.byte	0x1b
 1524 02b2 00       		.byte	0
 1525 02b3 10       		.uleb128 0x10
 1526 02b4 04       		.byte	0x4
 1527 02b5 B9020000 		.4byte	0x2b9
 1528 02b9 11       		.uleb128 0x11
 1529 02ba 10       		.uleb128 0x10
 1530 02bb 04       		.byte	0x4
 1531 02bc 28020000 		.4byte	0x228
 1532 02c0 10       		.uleb128 0x10
 1533 02c1 04       		.byte	0x4
 1534 02c2 6B000000 		.4byte	0x6b
 1535 02c6 04       		.uleb128 0x4
 1536 02c7 F6000000 		.4byte	.LASF53
ARM GAS  C:\Users\dell\AppData\Local\Temp\ccWEiAI7.s 			page 63


 1537 02cb 04       		.byte	0x4
 1538 02cc A102     		.2byte	0x2a1
 1539 02ce 34020000 		.4byte	0x234
 1540 02d2 0D       		.uleb128 0xd
 1541 02d3 70       		.byte	0x70
 1542 02d4 04       		.byte	0x4
 1543 02d5 A702     		.2byte	0x2a7
 1544 02d7 E9020000 		.4byte	0x2e9
 1545 02db 0F       		.uleb128 0xf
 1546 02dc 0E070000 		.4byte	.LASF54
 1547 02e0 04       		.byte	0x4
 1548 02e1 AC02     		.2byte	0x2ac
 1549 02e3 E9020000 		.4byte	0x2e9
 1550 02e7 00       		.byte	0
 1551 02e8 00       		.byte	0
 1552 02e9 0B       		.uleb128 0xb
 1553 02ea C6020000 		.4byte	0x2c6
 1554 02ee F9020000 		.4byte	0x2f9
 1555 02f2 0C       		.uleb128 0xc
 1556 02f3 B7000000 		.4byte	0xb7
 1557 02f7 03       		.byte	0x3
 1558 02f8 00       		.byte	0
 1559 02f9 04       		.uleb128 0x4
 1560 02fa 00000000 		.4byte	.LASF55
 1561 02fe 04       		.byte	0x4
 1562 02ff AD02     		.2byte	0x2ad
 1563 0301 D2020000 		.4byte	0x2d2
 1564 0305 0D       		.uleb128 0xd
 1565 0306 06       		.byte	0x6
 1566 0307 04       		.byte	0x4
 1567 0308 E202     		.2byte	0x2e2
 1568 030a 1C030000 		.4byte	0x31c
 1569 030e 0F       		.uleb128 0xf
 1570 030f 6C060000 		.4byte	.LASF56
 1571 0313 04       		.byte	0x4
 1572 0314 E702     		.2byte	0x2e7
 1573 0316 1C030000 		.4byte	0x31c
 1574 031a 00       		.byte	0
 1575 031b 00       		.byte	0
 1576 031c 0B       		.uleb128 0xb
 1577 031d 77000000 		.4byte	0x77
 1578 0321 2C030000 		.4byte	0x32c
 1579 0325 0C       		.uleb128 0xc
 1580 0326 B7000000 		.4byte	0xb7
 1581 032a 02       		.byte	0x2
 1582 032b 00       		.byte	0
 1583 032c 04       		.uleb128 0x4
 1584 032d 93060000 		.4byte	.LASF57
 1585 0331 04       		.byte	0x4
 1586 0332 E802     		.2byte	0x2e8
 1587 0334 05030000 		.4byte	0x305
 1588 0338 0D       		.uleb128 0xd
 1589 0339 06       		.byte	0x6
 1590 033a 04       		.byte	0x4
 1591 033b ED02     		.2byte	0x2ed
 1592 033d 4F030000 		.4byte	0x34f
 1593 0341 0F       		.uleb128 0xf
ARM GAS  C:\Users\dell\AppData\Local\Temp\ccWEiAI7.s 			page 64


 1594 0342 B2030000 		.4byte	.LASF58
 1595 0346 04       		.byte	0x4
 1596 0347 F202     		.2byte	0x2f2
 1597 0349 4F030000 		.4byte	0x34f
 1598 034d 00       		.byte	0
 1599 034e 00       		.byte	0
 1600 034f 0B       		.uleb128 0xb
 1601 0350 2C030000 		.4byte	0x32c
 1602 0354 5F030000 		.4byte	0x35f
 1603 0358 0C       		.uleb128 0xc
 1604 0359 B7000000 		.4byte	0xb7
 1605 035d 00       		.byte	0
 1606 035e 00       		.byte	0
 1607 035f 04       		.uleb128 0x4
 1608 0360 54040000 		.4byte	.LASF59
 1609 0364 04       		.byte	0x4
 1610 0365 F302     		.2byte	0x2f3
 1611 0367 38030000 		.4byte	0x338
 1612 036b 12       		.uleb128 0x12
 1613 036c 04       		.byte	0x4
 1614 036d 04       		.byte	0x4
 1615 036e F802     		.2byte	0x2f8
 1616 0370 8D030000 		.4byte	0x38d
 1617 0374 13       		.uleb128 0x13
 1618 0375 70747200 		.ascii	"ptr\000"
 1619 0379 04       		.byte	0x4
 1620 037a FD02     		.2byte	0x2fd
 1621 037c BE000000 		.4byte	0xbe
 1622 0380 14       		.uleb128 0x14
 1623 0381 D6040000 		.4byte	.LASF60
 1624 0385 04       		.byte	0x4
 1625 0386 0203     		.2byte	0x302
 1626 0388 8D030000 		.4byte	0x38d
 1627 038c 00       		.byte	0
 1628 038d 10       		.uleb128 0x10
 1629 038e 04       		.byte	0x4
 1630 038f 5F030000 		.4byte	0x35f
 1631 0393 04       		.uleb128 0x4
 1632 0394 E1040000 		.4byte	.LASF61
 1633 0398 04       		.byte	0x4
 1634 0399 0303     		.2byte	0x303
 1635 039b 6B030000 		.4byte	0x36b
 1636 039f 15       		.uleb128 0x15
 1637 03a0 77020000 		.4byte	.LASF65
 1638 03a4 01       		.byte	0x1
 1639 03a5 3602     		.2byte	0x236
 1640 03a7 00000000 		.4byte	.LFB10
 1641 03ab 1E000000 		.4byte	.LFE10-.LFB10
 1642 03af 01       		.uleb128 0x1
 1643 03b0 9C       		.byte	0x9c
 1644 03b1 E4030000 		.4byte	0x3e4
 1645 03b5 16       		.uleb128 0x16
 1646 03b6 71040000 		.4byte	.LASF62
 1647 03ba 01       		.byte	0x1
 1648 03bb 3602     		.2byte	0x236
 1649 03bd BA020000 		.4byte	0x2ba
 1650 03c1 01       		.uleb128 0x1
ARM GAS  C:\Users\dell\AppData\Local\Temp\ccWEiAI7.s 			page 65


 1651 03c2 50       		.byte	0x50
 1652 03c3 17       		.uleb128 0x17
 1653 03c4 DF020000 		.4byte	.LASF63
 1654 03c8 01       		.byte	0x1
 1655 03c9 3602     		.2byte	0x236
 1656 03cb 83000000 		.4byte	0x83
 1657 03cf 00000000 		.4byte	.LLST0
 1658 03d3 17       		.uleb128 0x17
 1659 03d4 FD040000 		.4byte	.LASF64
 1660 03d8 01       		.byte	0x1
 1661 03d9 3602     		.2byte	0x236
 1662 03db 83000000 		.4byte	0x83
 1663 03df 21000000 		.4byte	.LLST1
 1664 03e3 00       		.byte	0
 1665 03e4 15       		.uleb128 0x15
 1666 03e5 9A040000 		.4byte	.LASF66
 1667 03e9 01       		.byte	0x1
 1668 03ea 1402     		.2byte	0x214
 1669 03ec 00000000 		.4byte	.LFB9
 1670 03f0 1E000000 		.4byte	.LFE9-.LFB9
 1671 03f4 01       		.uleb128 0x1
 1672 03f5 9C       		.byte	0x9c
 1673 03f6 47040000 		.4byte	0x447
 1674 03fa 17       		.uleb128 0x17
 1675 03fb 71040000 		.4byte	.LASF62
 1676 03ff 01       		.byte	0x1
 1677 0400 1402     		.2byte	0x214
 1678 0402 BA020000 		.4byte	0x2ba
 1679 0406 42000000 		.4byte	.LLST2
 1680 040a 17       		.uleb128 0x17
 1681 040b DF020000 		.4byte	.LASF63
 1682 040f 01       		.byte	0x1
 1683 0410 1402     		.2byte	0x214
 1684 0412 83000000 		.4byte	0x83
 1685 0416 6E000000 		.4byte	.LLST3
 1686 041a 18       		.uleb128 0x18
 1687 041b DB030000 		.4byte	.LASF70
 1688 041f 01       		.byte	0x1
 1689 0420 1602     		.2byte	0x216
 1690 0422 83000000 		.4byte	0x83
 1691 0426 9A000000 		.4byte	.LLST4
 1692 042a 19       		.uleb128 0x19
 1693 042b 14000000 		.4byte	.LVL6
 1694 042f 9F030000 		.4byte	0x39f
 1695 0433 1A       		.uleb128 0x1a
 1696 0434 01       		.uleb128 0x1
 1697 0435 50       		.byte	0x50
 1698 0436 02       		.uleb128 0x2
 1699 0437 76       		.byte	0x76
 1700 0438 00       		.sleb128 0
 1701 0439 1A       		.uleb128 0x1a
 1702 043a 01       		.uleb128 0x1
 1703 043b 51       		.byte	0x51
 1704 043c 02       		.uleb128 0x2
 1705 043d 75       		.byte	0x75
 1706 043e 00       		.sleb128 0
 1707 043f 1A       		.uleb128 0x1a
ARM GAS  C:\Users\dell\AppData\Local\Temp\ccWEiAI7.s 			page 66


 1708 0440 01       		.uleb128 0x1
 1709 0441 52       		.byte	0x52
 1710 0442 02       		.uleb128 0x2
 1711 0443 74       		.byte	0x74
 1712 0444 00       		.sleb128 0
 1713 0445 00       		.byte	0
 1714 0446 00       		.byte	0
 1715 0447 15       		.uleb128 0x15
 1716 0448 8D070000 		.4byte	.LASF67
 1717 044c 01       		.byte	0x1
 1718 044d F301     		.2byte	0x1f3
 1719 044f 00000000 		.4byte	.LFB8
 1720 0453 2C000000 		.4byte	.LFE8-.LFB8
 1721 0457 01       		.uleb128 0x1
 1722 0458 9C       		.byte	0x9c
 1723 0459 CF040000 		.4byte	0x4cf
 1724 045d 17       		.uleb128 0x17
 1725 045e E5010000 		.4byte	.LASF68
 1726 0462 01       		.byte	0x1
 1727 0463 F301     		.2byte	0x1f3
 1728 0465 83000000 		.4byte	0x83
 1729 0469 DC000000 		.4byte	.LLST5
 1730 046d 17       		.uleb128 0x17
 1731 046e 22000000 		.4byte	.LASF69
 1732 0472 01       		.byte	0x1
 1733 0473 F301     		.2byte	0x1f3
 1734 0475 83000000 		.4byte	0x83
 1735 0479 FD000000 		.4byte	.LLST6
 1736 047d 18       		.uleb128 0x18
 1737 047e 71040000 		.4byte	.LASF62
 1738 0482 01       		.byte	0x1
 1739 0483 F501     		.2byte	0x1f5
 1740 0485 BA020000 		.4byte	0x2ba
 1741 0489 1E010000 		.4byte	.LLST7
 1742 048d 1B       		.uleb128 0x1b
 1743 048e 85030000 		.4byte	.LASF73
 1744 0492 01       		.byte	0x1
 1745 0493 F601     		.2byte	0x1f6
 1746 0495 CF040000 		.4byte	0x4cf
 1747 0499 19       		.uleb128 0x19
 1748 049a 24000000 		.4byte	.LVL18
 1749 049e E4030000 		.4byte	0x3e4
 1750 04a2 1A       		.uleb128 0x1a
 1751 04a3 01       		.uleb128 0x1
 1752 04a4 50       		.byte	0x50
 1753 04a5 0E       		.uleb128 0xe
 1754 04a6 F3       		.byte	0xf3
 1755 04a7 01       		.uleb128 0x1
 1756 04a8 51       		.byte	0x51
 1757 04a9 32       		.byte	0x32
 1758 04aa 24       		.byte	0x24
 1759 04ab F3       		.byte	0xf3
 1760 04ac 01       		.uleb128 0x1
 1761 04ad 51       		.byte	0x51
 1762 04ae 22       		.byte	0x22
 1763 04af 31       		.byte	0x31
 1764 04b0 24       		.byte	0x24
ARM GAS  C:\Users\dell\AppData\Local\Temp\ccWEiAI7.s 			page 67


 1765 04b1 75       		.byte	0x75
 1766 04b2 00       		.sleb128 0
 1767 04b3 22       		.byte	0x22
 1768 04b4 1A       		.uleb128 0x1a
 1769 04b5 01       		.uleb128 0x1
 1770 04b6 51       		.byte	0x51
 1771 04b7 15       		.uleb128 0x15
 1772 04b8 F3       		.byte	0xf3
 1773 04b9 01       		.uleb128 0x1
 1774 04ba 50       		.byte	0x50
 1775 04bb 33       		.byte	0x33
 1776 04bc 24       		.byte	0x24
 1777 04bd F3       		.byte	0xf3
 1778 04be 01       		.uleb128 0x1
 1779 04bf 50       		.byte	0x50
 1780 04c0 1C       		.byte	0x1c
 1781 04c1 32       		.byte	0x32
 1782 04c2 24       		.byte	0x24
 1783 04c3 74       		.byte	0x74
 1784 04c4 00       		.sleb128 0
 1785 04c5 22       		.byte	0x22
 1786 04c6 23       		.byte	0x23
 1787 04c7 1A       		.uleb128 0x1a
 1788 04c8 94       		.byte	0x94
 1789 04c9 01       		.byte	0x1
 1790 04ca 08       		.byte	0x8
 1791 04cb FF       		.byte	0xff
 1792 04cc 1A       		.byte	0x1a
 1793 04cd 00       		.byte	0
 1794 04ce 00       		.byte	0
 1795 04cf 10       		.uleb128 0x10
 1796 04d0 04       		.byte	0x4
 1797 04d1 D5040000 		.4byte	0x4d5
 1798 04d5 1C       		.uleb128 0x1c
 1799 04d6 C6020000 		.4byte	0x2c6
 1800 04da 15       		.uleb128 0x15
 1801 04db 3A060000 		.4byte	.LASF71
 1802 04df 01       		.byte	0x1
 1803 04e0 C701     		.2byte	0x1c7
 1804 04e2 00000000 		.4byte	.LFB7
 1805 04e6 28000000 		.4byte	.LFE7-.LFB7
 1806 04ea 01       		.uleb128 0x1
 1807 04eb 9C       		.byte	0x9c
 1808 04ec 43050000 		.4byte	0x543
 1809 04f0 17       		.uleb128 0x17
 1810 04f1 E5010000 		.4byte	.LASF68
 1811 04f5 01       		.byte	0x1
 1812 04f6 C701     		.2byte	0x1c7
 1813 04f8 83000000 		.4byte	0x83
 1814 04fc 61010000 		.4byte	.LLST8
 1815 0500 18       		.uleb128 0x18
 1816 0501 22000000 		.4byte	.LASF69
 1817 0505 01       		.byte	0x1
 1818 0506 C901     		.2byte	0x1c9
 1819 0508 83000000 		.4byte	0x83
 1820 050c 8D010000 		.4byte	.LLST9
 1821 0510 18       		.uleb128 0x18
ARM GAS  C:\Users\dell\AppData\Local\Temp\ccWEiAI7.s 			page 68


 1822 0511 1F050000 		.4byte	.LASF72
 1823 0515 01       		.byte	0x1
 1824 0516 CA01     		.2byte	0x1ca
 1825 0518 83000000 		.4byte	0x83
 1826 051c CE010000 		.4byte	.LLST10
 1827 0520 1B       		.uleb128 0x1b
 1828 0521 85030000 		.4byte	.LASF73
 1829 0525 01       		.byte	0x1
 1830 0526 CC01     		.2byte	0x1cc
 1831 0528 CF040000 		.4byte	0x4cf
 1832 052c 19       		.uleb128 0x19
 1833 052d 1A000000 		.4byte	.LVL24
 1834 0531 47040000 		.4byte	0x447
 1835 0535 1A       		.uleb128 0x1a
 1836 0536 01       		.uleb128 0x1
 1837 0537 50       		.byte	0x50
 1838 0538 02       		.uleb128 0x2
 1839 0539 75       		.byte	0x75
 1840 053a 00       		.sleb128 0
 1841 053b 1A       		.uleb128 0x1a
 1842 053c 01       		.uleb128 0x1
 1843 053d 51       		.byte	0x51
 1844 053e 02       		.uleb128 0x2
 1845 053f 74       		.byte	0x74
 1846 0540 00       		.sleb128 0
 1847 0541 00       		.byte	0
 1848 0542 00       		.byte	0
 1849 0543 15       		.uleb128 0x15
 1850 0544 75000000 		.4byte	.LASF74
 1851 0548 01       		.byte	0x1
 1852 0549 A301     		.2byte	0x1a3
 1853 054b 00000000 		.4byte	.LFB6
 1854 054f 16000000 		.4byte	.LFE6-.LFB6
 1855 0553 01       		.uleb128 0x1
 1856 0554 9C       		.byte	0x9c
 1857 0555 7A050000 		.4byte	0x57a
 1858 0559 18       		.uleb128 0x18
 1859 055a E5010000 		.4byte	.LASF68
 1860 055e 01       		.byte	0x1
 1861 055f A501     		.2byte	0x1a5
 1862 0561 83000000 		.4byte	0x83
 1863 0565 E1010000 		.4byte	.LLST11
 1864 0569 19       		.uleb128 0x19
 1865 056a 0C000000 		.4byte	.LVL31
 1866 056e DA040000 		.4byte	0x4da
 1867 0572 1A       		.uleb128 0x1a
 1868 0573 01       		.uleb128 0x1
 1869 0574 50       		.byte	0x50
 1870 0575 02       		.uleb128 0x2
 1871 0576 74       		.byte	0x74
 1872 0577 00       		.sleb128 0
 1873 0578 00       		.byte	0
 1874 0579 00       		.byte	0
 1875 057a 15       		.uleb128 0x15
 1876 057b 2B000000 		.4byte	.LASF75
 1877 057f 01       		.byte	0x1
 1878 0580 0405     		.2byte	0x504
ARM GAS  C:\Users\dell\AppData\Local\Temp\ccWEiAI7.s 			page 69


 1879 0582 00000000 		.4byte	.LFB15
 1880 0586 2C000000 		.4byte	.LFE15-.LFB15
 1881 058a 01       		.uleb128 0x1
 1882 058b 9C       		.byte	0x9c
 1883 058c CB050000 		.4byte	0x5cb
 1884 0590 16       		.uleb128 0x16
 1885 0591 9D000000 		.4byte	.LASF76
 1886 0595 01       		.byte	0x1
 1887 0596 0405     		.2byte	0x504
 1888 0598 93030000 		.4byte	0x393
 1889 059c 01       		.uleb128 0x1
 1890 059d 50       		.byte	0x50
 1891 059e 16       		.uleb128 0x16
 1892 059f E5050000 		.4byte	.LASF77
 1893 05a3 01       		.byte	0x1
 1894 05a4 0505     		.2byte	0x505
 1895 05a6 BA020000 		.4byte	0x2ba
 1896 05aa 01       		.uleb128 0x1
 1897 05ab 51       		.byte	0x51
 1898 05ac 16       		.uleb128 0x16
 1899 05ad DF020000 		.4byte	.LASF63
 1900 05b1 01       		.byte	0x1
 1901 05b2 0505     		.2byte	0x505
 1902 05b4 83000000 		.4byte	0x83
 1903 05b8 01       		.uleb128 0x1
 1904 05b9 52       		.byte	0x52
 1905 05ba 18       		.uleb128 0x18
 1906 05bb DB030000 		.4byte	.LASF70
 1907 05bf 01       		.byte	0x1
 1908 05c0 0705     		.2byte	0x507
 1909 05c2 83000000 		.4byte	0x83
 1910 05c6 23020000 		.4byte	.LLST12
 1911 05ca 00       		.byte	0
 1912 05cb 15       		.uleb128 0x15
 1913 05cc B8060000 		.4byte	.LASF78
 1914 05d0 01       		.byte	0x1
 1915 05d1 8702     		.2byte	0x287
 1916 05d3 00000000 		.4byte	.LFB12
 1917 05d7 4C000000 		.4byte	.LFE12-.LFB12
 1918 05db 01       		.uleb128 0x1
 1919 05dc 9C       		.byte	0x9c
 1920 05dd 43060000 		.4byte	0x643
 1921 05e1 17       		.uleb128 0x17
 1922 05e2 E5010000 		.4byte	.LASF68
 1923 05e6 01       		.byte	0x1
 1924 05e7 8702     		.2byte	0x287
 1925 05e9 83000000 		.4byte	0x83
 1926 05ed 65020000 		.4byte	.LLST13
 1927 05f1 18       		.uleb128 0x18
 1928 05f2 22000000 		.4byte	.LASF69
 1929 05f6 01       		.byte	0x1
 1930 05f7 8902     		.2byte	0x289
 1931 05f9 83000000 		.4byte	0x83
 1932 05fd 91020000 		.4byte	.LLST14
 1933 0601 18       		.uleb128 0x18
 1934 0602 1F050000 		.4byte	.LASF72
 1935 0606 01       		.byte	0x1
ARM GAS  C:\Users\dell\AppData\Local\Temp\ccWEiAI7.s 			page 70


 1936 0607 8A02     		.2byte	0x28a
 1937 0609 83000000 		.4byte	0x83
 1938 060d D2020000 		.4byte	.LLST15
 1939 0611 1B       		.uleb128 0x1b
 1940 0612 85030000 		.4byte	.LASF73
 1941 0616 01       		.byte	0x1
 1942 0617 8C02     		.2byte	0x28c
 1943 0619 CF040000 		.4byte	0x4cf
 1944 061d 18       		.uleb128 0x18
 1945 061e 71040000 		.4byte	.LASF62
 1946 0622 01       		.byte	0x1
 1947 0623 8D02     		.2byte	0x28d
 1948 0625 BA020000 		.4byte	0x2ba
 1949 0629 04030000 		.4byte	.LLST16
 1950 062d 1B       		.uleb128 0x1b
 1951 062e 9D000000 		.4byte	.LASF76
 1952 0632 01       		.byte	0x1
 1953 0633 8F02     		.2byte	0x28f
 1954 0635 93030000 		.4byte	0x393
 1955 0639 1D       		.uleb128 0x1d
 1956 063a 3E000000 		.4byte	.LVL50
 1957 063e 7A050000 		.4byte	0x57a
 1958 0642 00       		.byte	0
 1959 0643 15       		.uleb128 0x15
 1960 0644 4D030000 		.4byte	.LASF79
 1961 0648 01       		.byte	0x1
 1962 0649 6902     		.2byte	0x269
 1963 064b 00000000 		.4byte	.LFB11
 1964 064f 16000000 		.4byte	.LFE11-.LFB11
 1965 0653 01       		.uleb128 0x1
 1966 0654 9C       		.byte	0x9c
 1967 0655 7A060000 		.4byte	0x67a
 1968 0659 18       		.uleb128 0x18
 1969 065a E5010000 		.4byte	.LASF68
 1970 065e 01       		.byte	0x1
 1971 065f 6B02     		.2byte	0x26b
 1972 0661 83000000 		.4byte	0x83
 1973 0665 2F030000 		.4byte	.LLST17
 1974 0669 19       		.uleb128 0x19
 1975 066a 0C000000 		.4byte	.LVL57
 1976 066e CB050000 		.4byte	0x5cb
 1977 0672 1A       		.uleb128 0x1a
 1978 0673 01       		.uleb128 0x1
 1979 0674 50       		.byte	0x50
 1980 0675 02       		.uleb128 0x2
 1981 0676 74       		.byte	0x74
 1982 0677 00       		.sleb128 0
 1983 0678 00       		.byte	0
 1984 0679 00       		.byte	0
 1985 067a 1E       		.uleb128 0x1e
 1986 067b 7B040000 		.4byte	.LASF80
 1987 067f 01       		.byte	0x1
 1988 0680 3E       		.byte	0x3e
 1989 0681 00000000 		.4byte	.LFB1
 1990 0685 08000000 		.4byte	.LFE1-.LFB1
 1991 0689 01       		.uleb128 0x1
 1992 068a 9C       		.byte	0x9c
ARM GAS  C:\Users\dell\AppData\Local\Temp\ccWEiAI7.s 			page 71


 1993 068b 99060000 		.4byte	0x699
 1994 068f 1D       		.uleb128 0x1d
 1995 0690 06000000 		.4byte	.LVL61
 1996 0694 43060000 		.4byte	0x643
 1997 0698 00       		.byte	0
 1998 0699 15       		.uleb128 0x15
 1999 069a B5010000 		.4byte	.LASF81
 2000 069e 01       		.byte	0x1
 2001 069f A104     		.2byte	0x4a1
 2002 06a1 00000000 		.4byte	.LFB13
 2003 06a5 40000000 		.4byte	.LFE13-.LFB13
 2004 06a9 01       		.uleb128 0x1
 2005 06aa 9C       		.byte	0x9c
 2006 06ab 0C070000 		.4byte	0x70c
 2007 06af 17       		.uleb128 0x17
 2008 06b0 E5010000 		.4byte	.LASF68
 2009 06b4 01       		.byte	0x1
 2010 06b5 A104     		.2byte	0x4a1
 2011 06b7 83000000 		.4byte	0x83
 2012 06bb 71030000 		.4byte	.LLST18
 2013 06bf 17       		.uleb128 0x17
 2014 06c0 22000000 		.4byte	.LASF69
 2015 06c4 01       		.byte	0x1
 2016 06c5 A104     		.2byte	0x4a1
 2017 06c7 83000000 		.4byte	0x83
 2018 06cb 92030000 		.4byte	.LLST19
 2019 06cf 1B       		.uleb128 0x1b
 2020 06d0 85030000 		.4byte	.LASF73
 2021 06d4 01       		.byte	0x1
 2022 06d5 A304     		.2byte	0x4a3
 2023 06d7 CF040000 		.4byte	0x4cf
 2024 06db 18       		.uleb128 0x18
 2025 06dc 71040000 		.4byte	.LASF62
 2026 06e0 01       		.byte	0x1
 2027 06e1 A404     		.2byte	0x4a4
 2028 06e3 BA020000 		.4byte	0x2ba
 2029 06e7 BE030000 		.4byte	.LLST20
 2030 06eb 18       		.uleb128 0x18
 2031 06ec 9D000000 		.4byte	.LASF76
 2032 06f0 01       		.byte	0x1
 2033 06f1 A504     		.2byte	0x4a5
 2034 06f3 93030000 		.4byte	0x393
 2035 06f7 11040000 		.4byte	.LLST21
 2036 06fb 19       		.uleb128 0x19
 2037 06fc 38000000 		.4byte	.LVL71
 2038 0700 7A050000 		.4byte	0x57a
 2039 0704 1A       		.uleb128 0x1a
 2040 0705 01       		.uleb128 0x1
 2041 0706 50       		.byte	0x50
 2042 0707 02       		.uleb128 0x2
 2043 0708 74       		.byte	0x74
 2044 0709 00       		.sleb128 0
 2045 070a 00       		.byte	0
 2046 070b 00       		.byte	0
 2047 070c 15       		.uleb128 0x15
 2048 070d 38040000 		.4byte	.LASF82
 2049 0711 01       		.byte	0x1
ARM GAS  C:\Users\dell\AppData\Local\Temp\ccWEiAI7.s 			page 72


 2050 0712 3705     		.2byte	0x537
 2051 0714 00000000 		.4byte	.LFB16
 2052 0718 50000000 		.4byte	.LFE16-.LFB16
 2053 071c 01       		.uleb128 0x1
 2054 071d 9C       		.byte	0x9c
 2055 071e 6D070000 		.4byte	0x76d
 2056 0722 16       		.uleb128 0x16
 2057 0723 9D000000 		.4byte	.LASF76
 2058 0727 01       		.byte	0x1
 2059 0728 3705     		.2byte	0x537
 2060 072a 93030000 		.4byte	0x393
 2061 072e 01       		.uleb128 0x1
 2062 072f 50       		.byte	0x50
 2063 0730 16       		.uleb128 0x16
 2064 0731 E5050000 		.4byte	.LASF77
 2065 0735 01       		.byte	0x1
 2066 0736 3805     		.2byte	0x538
 2067 0738 BA020000 		.4byte	0x2ba
 2068 073c 01       		.uleb128 0x1
 2069 073d 51       		.byte	0x51
 2070 073e 16       		.uleb128 0x16
 2071 073f DF020000 		.4byte	.LASF63
 2072 0743 01       		.byte	0x1
 2073 0744 3805     		.2byte	0x538
 2074 0746 83000000 		.4byte	0x83
 2075 074a 01       		.uleb128 0x1
 2076 074b 52       		.byte	0x52
 2077 074c 18       		.uleb128 0x18
 2078 074d DB030000 		.4byte	.LASF70
 2079 0751 01       		.byte	0x1
 2080 0752 3A05     		.2byte	0x53a
 2081 0754 83000000 		.4byte	0x83
 2082 0758 24040000 		.4byte	.LLST22
 2083 075c 18       		.uleb128 0x18
 2084 075d AE000000 		.4byte	.LASF83
 2085 0761 01       		.byte	0x1
 2086 0762 3B05     		.2byte	0x53b
 2087 0764 83000000 		.4byte	0x83
 2088 0768 59040000 		.4byte	.LLST23
 2089 076c 00       		.byte	0
 2090 076d 15       		.uleb128 0x15
 2091 076e 41070000 		.4byte	.LASF84
 2092 0772 01       		.byte	0x1
 2093 0773 D204     		.2byte	0x4d2
 2094 0775 00000000 		.4byte	.LFB14
 2095 0779 40000000 		.4byte	.LFE14-.LFB14
 2096 077d 01       		.uleb128 0x1
 2097 077e 9C       		.byte	0x9c
 2098 077f E0070000 		.4byte	0x7e0
 2099 0783 17       		.uleb128 0x17
 2100 0784 E5010000 		.4byte	.LASF68
 2101 0788 01       		.byte	0x1
 2102 0789 D204     		.2byte	0x4d2
 2103 078b 83000000 		.4byte	0x83
 2104 078f 6C040000 		.4byte	.LLST24
 2105 0793 17       		.uleb128 0x17
 2106 0794 22000000 		.4byte	.LASF69
ARM GAS  C:\Users\dell\AppData\Local\Temp\ccWEiAI7.s 			page 73


 2107 0798 01       		.byte	0x1
 2108 0799 D204     		.2byte	0x4d2
 2109 079b 83000000 		.4byte	0x83
 2110 079f 8D040000 		.4byte	.LLST25
 2111 07a3 1B       		.uleb128 0x1b
 2112 07a4 85030000 		.4byte	.LASF73
 2113 07a8 01       		.byte	0x1
 2114 07a9 D404     		.2byte	0x4d4
 2115 07ab CF040000 		.4byte	0x4cf
 2116 07af 18       		.uleb128 0x18
 2117 07b0 71040000 		.4byte	.LASF62
 2118 07b4 01       		.byte	0x1
 2119 07b5 D504     		.2byte	0x4d5
 2120 07b7 BA020000 		.4byte	0x2ba
 2121 07bb B9040000 		.4byte	.LLST26
 2122 07bf 18       		.uleb128 0x18
 2123 07c0 9D000000 		.4byte	.LASF76
 2124 07c4 01       		.byte	0x1
 2125 07c5 D604     		.2byte	0x4d6
 2126 07c7 93030000 		.4byte	0x393
 2127 07cb 0C050000 		.4byte	.LLST27
 2128 07cf 19       		.uleb128 0x19
 2129 07d0 38000000 		.4byte	.LVL90
 2130 07d4 0C070000 		.4byte	0x70c
 2131 07d8 1A       		.uleb128 0x1a
 2132 07d9 01       		.uleb128 0x1
 2133 07da 50       		.byte	0x50
 2134 07db 02       		.uleb128 0x2
 2135 07dc 74       		.byte	0x74
 2136 07dd 00       		.sleb128 0
 2137 07de 00       		.byte	0
 2138 07df 00       		.byte	0
 2139 07e0 15       		.uleb128 0x15
 2140 07e1 E9060000 		.4byte	.LASF85
 2141 07e5 01       		.byte	0x1
 2142 07e6 9F06     		.2byte	0x69f
 2143 07e8 00000000 		.4byte	.LFB18
 2144 07ec 08000000 		.4byte	.LFE18-.LFB18
 2145 07f0 01       		.uleb128 0x1
 2146 07f1 9C       		.byte	0x9c
 2147 07f2 3F080000 		.4byte	0x83f
 2148 07f6 17       		.uleb128 0x17
 2149 07f7 9D000000 		.4byte	.LASF76
 2150 07fb 01       		.byte	0x1
 2151 07fc 9F06     		.2byte	0x69f
 2152 07fe 93030000 		.4byte	0x393
 2153 0802 1F050000 		.4byte	.LLST28
 2154 0806 17       		.uleb128 0x17
 2155 0807 E5050000 		.4byte	.LASF77
 2156 080b 01       		.byte	0x1
 2157 080c A006     		.2byte	0x6a0
 2158 080e BA020000 		.4byte	0x2ba
 2159 0812 32050000 		.4byte	.LLST29
 2160 0816 17       		.uleb128 0x17
 2161 0817 DF020000 		.4byte	.LASF63
 2162 081b 01       		.byte	0x1
 2163 081c A006     		.2byte	0x6a0
ARM GAS  C:\Users\dell\AppData\Local\Temp\ccWEiAI7.s 			page 74


 2164 081e 83000000 		.4byte	0x83
 2165 0822 53050000 		.4byte	.LLST30
 2166 0826 19       		.uleb128 0x19
 2167 0827 06000000 		.4byte	.LVL94
 2168 082b 0C070000 		.4byte	0x70c
 2169 082f 1A       		.uleb128 0x1a
 2170 0830 01       		.uleb128 0x1
 2171 0831 51       		.byte	0x51
 2172 0832 03       		.uleb128 0x3
 2173 0833 F3       		.byte	0xf3
 2174 0834 01       		.uleb128 0x1
 2175 0835 51       		.byte	0x51
 2176 0836 1A       		.uleb128 0x1a
 2177 0837 01       		.uleb128 0x1
 2178 0838 52       		.byte	0x52
 2179 0839 03       		.uleb128 0x3
 2180 083a F3       		.byte	0xf3
 2181 083b 01       		.uleb128 0x1
 2182 083c 52       		.byte	0x52
 2183 083d 00       		.byte	0
 2184 083e 00       		.byte	0
 2185 083f 15       		.uleb128 0x15
 2186 0840 EE010000 		.4byte	.LASF86
 2187 0844 01       		.byte	0x1
 2188 0845 6606     		.2byte	0x666
 2189 0847 00000000 		.4byte	.LFB17
 2190 084b 40000000 		.4byte	.LFE17-.LFB17
 2191 084f 01       		.uleb128 0x1
 2192 0850 9C       		.byte	0x9c
 2193 0851 B2080000 		.4byte	0x8b2
 2194 0855 17       		.uleb128 0x17
 2195 0856 E5010000 		.4byte	.LASF68
 2196 085a 01       		.byte	0x1
 2197 085b 6606     		.2byte	0x666
 2198 085d 83000000 		.4byte	0x83
 2199 0861 74050000 		.4byte	.LLST31
 2200 0865 17       		.uleb128 0x17
 2201 0866 22000000 		.4byte	.LASF69
 2202 086a 01       		.byte	0x1
 2203 086b 6606     		.2byte	0x666
 2204 086d 83000000 		.4byte	0x83
 2205 0871 95050000 		.4byte	.LLST32
 2206 0875 1B       		.uleb128 0x1b
 2207 0876 85030000 		.4byte	.LASF73
 2208 087a 01       		.byte	0x1
 2209 087b 6806     		.2byte	0x668
 2210 087d CF040000 		.4byte	0x4cf
 2211 0881 18       		.uleb128 0x18
 2212 0882 71040000 		.4byte	.LASF62
 2213 0886 01       		.byte	0x1
 2214 0887 6906     		.2byte	0x669
 2215 0889 BA020000 		.4byte	0x2ba
 2216 088d C1050000 		.4byte	.LLST33
 2217 0891 18       		.uleb128 0x18
 2218 0892 9D000000 		.4byte	.LASF76
 2219 0896 01       		.byte	0x1
 2220 0897 6A06     		.2byte	0x66a
ARM GAS  C:\Users\dell\AppData\Local\Temp\ccWEiAI7.s 			page 75


 2221 0899 93030000 		.4byte	0x393
 2222 089d 14060000 		.4byte	.LLST34
 2223 08a1 19       		.uleb128 0x19
 2224 08a2 38000000 		.4byte	.LVL104
 2225 08a6 E0070000 		.4byte	0x7e0
 2226 08aa 1A       		.uleb128 0x1a
 2227 08ab 01       		.uleb128 0x1
 2228 08ac 50       		.byte	0x50
 2229 08ad 02       		.uleb128 0x2
 2230 08ae 74       		.byte	0x74
 2231 08af 00       		.sleb128 0
 2232 08b0 00       		.byte	0
 2233 08b1 00       		.byte	0
 2234 08b2 1F       		.uleb128 0x1f
 2235 08b3 9C020000 		.4byte	.LASF91
 2236 08b7 01       		.byte	0x1
 2237 08b8 4507     		.2byte	0x745
 2238 08ba 83000000 		.4byte	0x83
 2239 08be 00000000 		.4byte	.LFB19
 2240 08c2 12000000 		.4byte	.LFE19-.LFB19
 2241 08c6 01       		.uleb128 0x1
 2242 08c7 9C       		.byte	0x9c
 2243 08c8 19090000 		.4byte	0x919
 2244 08cc 17       		.uleb128 0x17
 2245 08cd BD000000 		.4byte	.LASF87
 2246 08d1 01       		.byte	0x1
 2247 08d2 4507     		.2byte	0x745
 2248 08d4 83000000 		.4byte	0x83
 2249 08d8 27060000 		.4byte	.LLST35
 2250 08dc 17       		.uleb128 0x17
 2251 08dd 08060000 		.4byte	.LASF88
 2252 08e1 01       		.byte	0x1
 2253 08e2 4507     		.2byte	0x745
 2254 08e4 83000000 		.4byte	0x83
 2255 08e8 48060000 		.4byte	.LLST36
 2256 08ec 20       		.uleb128 0x20
 2257 08ed 6E00     		.ascii	"n\000"
 2258 08ef 01       		.byte	0x1
 2259 08f0 4507     		.2byte	0x745
 2260 08f2 83000000 		.4byte	0x83
 2261 08f6 69060000 		.4byte	.LLST37
 2262 08fa 17       		.uleb128 0x17
 2263 08fb F4020000 		.4byte	.LASF89
 2264 08ff 01       		.byte	0x1
 2265 0900 4507     		.2byte	0x745
 2266 0902 83000000 		.4byte	0x83
 2267 0906 8A060000 		.4byte	.LLST38
 2268 090a 21       		.uleb128 0x21
 2269 090b 55070000 		.4byte	.LASF90
 2270 090f 01       		.byte	0x1
 2271 0910 4707     		.2byte	0x747
 2272 0912 83000000 		.4byte	0x83
 2273 0916 01       		.uleb128 0x1
 2274 0917 50       		.byte	0x50
 2275 0918 00       		.byte	0
 2276 0919 22       		.uleb128 0x22
 2277 091a 05050000 		.4byte	.LASF92
ARM GAS  C:\Users\dell\AppData\Local\Temp\ccWEiAI7.s 			page 76


 2278 091e 01       		.byte	0x1
 2279 091f FF       		.byte	0xff
 2280 0920 83000000 		.4byte	0x83
 2281 0924 00000000 		.4byte	.LFB5
 2282 0928 A0000000 		.4byte	.LFE5-.LFB5
 2283 092c 01       		.uleb128 0x1
 2284 092d 9C       		.byte	0x9c
 2285 092e F5090000 		.4byte	0x9f5
 2286 0932 17       		.uleb128 0x17
 2287 0933 63020000 		.4byte	.LASF93
 2288 0937 01       		.byte	0x1
 2289 0938 0001     		.2byte	0x100
 2290 093a F5090000 		.4byte	0x9f5
 2291 093e AB060000 		.4byte	.LLST39
 2292 0942 17       		.uleb128 0x17
 2293 0943 71040000 		.4byte	.LASF62
 2294 0947 01       		.byte	0x1
 2295 0948 0101     		.2byte	0x101
 2296 094a BA020000 		.4byte	0x2ba
 2297 094e D7060000 		.4byte	.LLST40
 2298 0952 17       		.uleb128 0x17
 2299 0953 DF020000 		.4byte	.LASF63
 2300 0957 01       		.byte	0x1
 2301 0958 0201     		.2byte	0x102
 2302 095a 83000000 		.4byte	0x83
 2303 095e 03070000 		.4byte	.LLST41
 2304 0962 18       		.uleb128 0x18
 2305 0963 D1050000 		.4byte	.LASF94
 2306 0967 01       		.byte	0x1
 2307 0968 0401     		.2byte	0x104
 2308 096a 83000000 		.4byte	0x83
 2309 096e 22070000 		.4byte	.LLST42
 2310 0972 18       		.uleb128 0x18
 2311 0973 0F010000 		.4byte	.LASF95
 2312 0977 01       		.byte	0x1
 2313 0978 0501     		.2byte	0x105
 2314 097a 83000000 		.4byte	0x83
 2315 097e 58070000 		.4byte	.LLST43
 2316 0982 18       		.uleb128 0x18
 2317 0983 DB030000 		.4byte	.LASF70
 2318 0987 01       		.byte	0x1
 2319 0988 0601     		.2byte	0x106
 2320 098a 83000000 		.4byte	0x83
 2321 098e 81070000 		.4byte	.LLST44
 2322 0992 18       		.uleb128 0x18
 2323 0993 52050000 		.4byte	.LASF96
 2324 0997 01       		.byte	0x1
 2325 0998 0701     		.2byte	0x107
 2326 099a 83000000 		.4byte	0x83
 2327 099e C3070000 		.4byte	.LLST45
 2328 09a2 23       		.uleb128 0x23
 2329 09a3 16000000 		.4byte	.LASF97
 2330 09a7 01       		.byte	0x1
 2331 09a8 0801     		.2byte	0x108
 2332 09aa 83000000 		.4byte	0x83
 2333 09ae 00       		.byte	0
 2334 09af 18       		.uleb128 0x18
ARM GAS  C:\Users\dell\AppData\Local\Temp\ccWEiAI7.s 			page 77


 2335 09b0 D0010000 		.4byte	.LASF98
 2336 09b4 01       		.byte	0x1
 2337 09b5 0B01     		.2byte	0x10b
 2338 09b7 83000000 		.4byte	0x83
 2339 09bb D7070000 		.4byte	.LLST46
 2340 09bf 24       		.uleb128 0x24
 2341 09c0 4C000000 		.4byte	.LVL122
 2342 09c4 9F030000 		.4byte	0x39f
 2343 09c8 E0090000 		.4byte	0x9e0
 2344 09cc 1A       		.uleb128 0x1a
 2345 09cd 01       		.uleb128 0x1
 2346 09ce 50       		.byte	0x50
 2347 09cf 02       		.uleb128 0x2
 2348 09d0 76       		.byte	0x76
 2349 09d1 00       		.sleb128 0
 2350 09d2 1A       		.uleb128 0x1a
 2351 09d3 01       		.uleb128 0x1
 2352 09d4 51       		.byte	0x51
 2353 09d5 03       		.uleb128 0x3
 2354 09d6 91       		.byte	0x91
 2355 09d7 64       		.sleb128 -28
 2356 09d8 06       		.byte	0x6
 2357 09d9 1A       		.uleb128 0x1a
 2358 09da 01       		.uleb128 0x1
 2359 09db 52       		.byte	0x52
 2360 09dc 02       		.uleb128 0x2
 2361 09dd 74       		.byte	0x74
 2362 09de 00       		.sleb128 0
 2363 09df 00       		.byte	0
 2364 09e0 19       		.uleb128 0x19
 2365 09e1 82000000 		.4byte	.LVL128
 2366 09e5 B2080000 		.4byte	0x8b2
 2367 09e9 1A       		.uleb128 0x1a
 2368 09ea 01       		.uleb128 0x1
 2369 09eb 52       		.byte	0x52
 2370 09ec 01       		.uleb128 0x1
 2371 09ed 31       		.byte	0x31
 2372 09ee 1A       		.uleb128 0x1a
 2373 09ef 01       		.uleb128 0x1
 2374 09f0 53       		.byte	0x53
 2375 09f1 01       		.uleb128 0x1
 2376 09f2 38       		.byte	0x38
 2377 09f3 00       		.byte	0
 2378 09f4 00       		.byte	0
 2379 09f5 10       		.uleb128 0x10
 2380 09f6 04       		.byte	0x4
 2381 09f7 A5010000 		.4byte	0x1a5
 2382 09fb 22       		.uleb128 0x22
 2383 09fc 2F020000 		.4byte	.LASF99
 2384 0a00 01       		.byte	0x1
 2385 0a01 C8       		.byte	0xc8
 2386 0a02 A4000000 		.4byte	0xa4
 2387 0a06 00000000 		.4byte	.LFB4
 2388 0a0a 2C000000 		.4byte	.LFE4-.LFB4
 2389 0a0e 01       		.uleb128 0x1
 2390 0a0f 9C       		.byte	0x9c
 2391 0a10 A60A0000 		.4byte	0xaa6
ARM GAS  C:\Users\dell\AppData\Local\Temp\ccWEiAI7.s 			page 78


 2392 0a14 25       		.uleb128 0x25
 2393 0a15 E5010000 		.4byte	.LASF68
 2394 0a19 01       		.byte	0x1
 2395 0a1a C8       		.byte	0xc8
 2396 0a1b 83000000 		.4byte	0x83
 2397 0a1f F5070000 		.4byte	.LLST47
 2398 0a23 25       		.uleb128 0x25
 2399 0a24 22000000 		.4byte	.LASF69
 2400 0a28 01       		.byte	0x1
 2401 0a29 C8       		.byte	0xc8
 2402 0a2a 83000000 		.4byte	0x83
 2403 0a2e 16080000 		.4byte	.LLST48
 2404 0a32 26       		.uleb128 0x26
 2405 0a33 16000000 		.4byte	.LASF97
 2406 0a37 01       		.byte	0x1
 2407 0a38 CA       		.byte	0xca
 2408 0a39 83000000 		.4byte	0x83
 2409 0a3d 37080000 		.4byte	.LLST49
 2410 0a41 26       		.uleb128 0x26
 2411 0a42 71040000 		.4byte	.LASF62
 2412 0a46 01       		.byte	0x1
 2413 0a47 CC       		.byte	0xcc
 2414 0a48 BA020000 		.4byte	0x2ba
 2415 0a4c 56080000 		.4byte	.LLST50
 2416 0a50 27       		.uleb128 0x27
 2417 0a51 85030000 		.4byte	.LASF73
 2418 0a55 01       		.byte	0x1
 2419 0a56 CD       		.byte	0xcd
 2420 0a57 CF040000 		.4byte	0x4cf
 2421 0a5b 26       		.uleb128 0x26
 2422 0a5c 63020000 		.4byte	.LASF93
 2423 0a60 01       		.byte	0x1
 2424 0a61 CE       		.byte	0xce
 2425 0a62 F5090000 		.4byte	0x9f5
 2426 0a66 99080000 		.4byte	.LLST51
 2427 0a6a 19       		.uleb128 0x19
 2428 0a6b 26000000 		.4byte	.LVL142
 2429 0a6f 19090000 		.4byte	0x919
 2430 0a73 1A       		.uleb128 0x1a
 2431 0a74 01       		.uleb128 0x1
 2432 0a75 50       		.byte	0x50
 2433 0a76 02       		.uleb128 0x2
 2434 0a77 74       		.byte	0x74
 2435 0a78 00       		.sleb128 0
 2436 0a79 1A       		.uleb128 0x1a
 2437 0a7a 01       		.uleb128 0x1
 2438 0a7b 51       		.byte	0x51
 2439 0a7c 0E       		.uleb128 0xe
 2440 0a7d F3       		.byte	0xf3
 2441 0a7e 01       		.uleb128 0x1
 2442 0a7f 51       		.byte	0x51
 2443 0a80 32       		.byte	0x32
 2444 0a81 24       		.byte	0x24
 2445 0a82 F3       		.byte	0xf3
 2446 0a83 01       		.uleb128 0x1
 2447 0a84 51       		.byte	0x51
 2448 0a85 22       		.byte	0x22
ARM GAS  C:\Users\dell\AppData\Local\Temp\ccWEiAI7.s 			page 79


 2449 0a86 31       		.byte	0x31
 2450 0a87 24       		.byte	0x24
 2451 0a88 76       		.byte	0x76
 2452 0a89 00       		.sleb128 0
 2453 0a8a 22       		.byte	0x22
 2454 0a8b 1A       		.uleb128 0x1a
 2455 0a8c 01       		.uleb128 0x1
 2456 0a8d 52       		.byte	0x52
 2457 0a8e 15       		.uleb128 0x15
 2458 0a8f F3       		.byte	0xf3
 2459 0a90 01       		.uleb128 0x1
 2460 0a91 50       		.byte	0x50
 2461 0a92 33       		.byte	0x33
 2462 0a93 24       		.byte	0x24
 2463 0a94 F3       		.byte	0xf3
 2464 0a95 01       		.uleb128 0x1
 2465 0a96 50       		.byte	0x50
 2466 0a97 1C       		.byte	0x1c
 2467 0a98 32       		.byte	0x32
 2468 0a99 24       		.byte	0x24
 2469 0a9a 75       		.byte	0x75
 2470 0a9b 00       		.sleb128 0
 2471 0a9c 22       		.byte	0x22
 2472 0a9d 23       		.byte	0x23
 2473 0a9e 1A       		.uleb128 0x1a
 2474 0a9f 94       		.byte	0x94
 2475 0aa0 01       		.byte	0x1
 2476 0aa1 08       		.byte	0x8
 2477 0aa2 FF       		.byte	0xff
 2478 0aa3 1A       		.byte	0x1a
 2479 0aa4 00       		.byte	0
 2480 0aa5 00       		.byte	0
 2481 0aa6 22       		.uleb128 0x22
 2482 0aa7 E7030000 		.4byte	.LASF100
 2483 0aab 01       		.byte	0x1
 2484 0aac 8F       		.byte	0x8f
 2485 0aad A4000000 		.4byte	0xa4
 2486 0ab1 00000000 		.4byte	.LFB3
 2487 0ab5 30000000 		.4byte	.LFE3-.LFB3
 2488 0ab9 01       		.uleb128 0x1
 2489 0aba 9C       		.byte	0x9c
 2490 0abb 1D0B0000 		.4byte	0xb1d
 2491 0abf 25       		.uleb128 0x25
 2492 0ac0 E5010000 		.4byte	.LASF68
 2493 0ac4 01       		.byte	0x1
 2494 0ac5 8F       		.byte	0x8f
 2495 0ac6 83000000 		.4byte	0x83
 2496 0aca C6080000 		.4byte	.LLST52
 2497 0ace 26       		.uleb128 0x26
 2498 0acf 22000000 		.4byte	.LASF69
 2499 0ad3 01       		.byte	0x1
 2500 0ad4 91       		.byte	0x91
 2501 0ad5 83000000 		.4byte	0x83
 2502 0ad9 F2080000 		.4byte	.LLST53
 2503 0add 26       		.uleb128 0x26
 2504 0ade 1F050000 		.4byte	.LASF72
 2505 0ae2 01       		.byte	0x1
ARM GAS  C:\Users\dell\AppData\Local\Temp\ccWEiAI7.s 			page 80


 2506 0ae3 92       		.byte	0x92
 2507 0ae4 83000000 		.4byte	0x83
 2508 0ae8 33090000 		.4byte	.LLST54
 2509 0aec 27       		.uleb128 0x27
 2510 0aed 85030000 		.4byte	.LASF73
 2511 0af1 01       		.byte	0x1
 2512 0af2 94       		.byte	0x94
 2513 0af3 CF040000 		.4byte	0x4cf
 2514 0af7 26       		.uleb128 0x26
 2515 0af8 4E000000 		.4byte	.LASF101
 2516 0afc 01       		.byte	0x1
 2517 0afd 95       		.byte	0x95
 2518 0afe A4000000 		.4byte	0xa4
 2519 0b02 46090000 		.4byte	.LLST55
 2520 0b06 19       		.uleb128 0x19
 2521 0b07 1C000000 		.4byte	.LVL150
 2522 0b0b FB090000 		.4byte	0x9fb
 2523 0b0f 1A       		.uleb128 0x1a
 2524 0b10 01       		.uleb128 0x1
 2525 0b11 50       		.byte	0x50
 2526 0b12 02       		.uleb128 0x2
 2527 0b13 76       		.byte	0x76
 2528 0b14 00       		.sleb128 0
 2529 0b15 1A       		.uleb128 0x1a
 2530 0b16 01       		.uleb128 0x1
 2531 0b17 51       		.byte	0x51
 2532 0b18 02       		.uleb128 0x2
 2533 0b19 74       		.byte	0x74
 2534 0b1a 00       		.sleb128 0
 2535 0b1b 00       		.byte	0
 2536 0b1c 00       		.byte	0
 2537 0b1d 22       		.uleb128 0x22
 2538 0b1e C3000000 		.4byte	.LASF102
 2539 0b22 01       		.byte	0x1
 2540 0b23 61       		.byte	0x61
 2541 0b24 A4000000 		.4byte	0xa4
 2542 0b28 00000000 		.4byte	.LFB2
 2543 0b2c 1C000000 		.4byte	.LFE2-.LFB2
 2544 0b30 01       		.uleb128 0x1
 2545 0b31 9C       		.byte	0x9c
 2546 0b32 650B0000 		.4byte	0xb65
 2547 0b36 26       		.uleb128 0x26
 2548 0b37 E5010000 		.4byte	.LASF68
 2549 0b3b 01       		.byte	0x1
 2550 0b3c 63       		.byte	0x63
 2551 0b3d 83000000 		.4byte	0x83
 2552 0b41 70090000 		.4byte	.LLST56
 2553 0b45 26       		.uleb128 0x26
 2554 0b46 4E000000 		.4byte	.LASF101
 2555 0b4a 01       		.byte	0x1
 2556 0b4b 64       		.byte	0x64
 2557 0b4c A4000000 		.4byte	0xa4
 2558 0b50 B2090000 		.4byte	.LLST57
 2559 0b54 19       		.uleb128 0x19
 2560 0b55 0E000000 		.4byte	.LVL159
 2561 0b59 A60A0000 		.4byte	0xaa6
 2562 0b5d 1A       		.uleb128 0x1a
ARM GAS  C:\Users\dell\AppData\Local\Temp\ccWEiAI7.s 			page 81


 2563 0b5e 01       		.uleb128 0x1
 2564 0b5f 50       		.byte	0x50
 2565 0b60 02       		.uleb128 0x2
 2566 0b61 74       		.byte	0x74
 2567 0b62 00       		.sleb128 0
 2568 0b63 00       		.byte	0
 2569 0b64 00       		.byte	0
 2570 0b65 28       		.uleb128 0x28
 2571 0b66 D8060000 		.4byte	.LASF106
 2572 0b6a 04       		.byte	0x4
 2573 0b6b 4504     		.2byte	0x445
 2574 0b6d 710B0000 		.4byte	0xb71
 2575 0b71 1C       		.uleb128 0x1c
 2576 0b72 F9020000 		.4byte	0x2f9
 2577 0b76 00       		.byte	0
 2578              		.section	.debug_abbrev,"",%progbits
 2579              	.Ldebug_abbrev0:
 2580 0000 01       		.uleb128 0x1
 2581 0001 11       		.uleb128 0x11
 2582 0002 01       		.byte	0x1
 2583 0003 25       		.uleb128 0x25
 2584 0004 0E       		.uleb128 0xe
 2585 0005 13       		.uleb128 0x13
 2586 0006 0B       		.uleb128 0xb
 2587 0007 03       		.uleb128 0x3
 2588 0008 0E       		.uleb128 0xe
 2589 0009 1B       		.uleb128 0x1b
 2590 000a 0E       		.uleb128 0xe
 2591 000b 55       		.uleb128 0x55
 2592 000c 17       		.uleb128 0x17
 2593 000d 11       		.uleb128 0x11
 2594 000e 01       		.uleb128 0x1
 2595 000f 10       		.uleb128 0x10
 2596 0010 17       		.uleb128 0x17
 2597 0011 00       		.byte	0
 2598 0012 00       		.byte	0
 2599 0013 02       		.uleb128 0x2
 2600 0014 24       		.uleb128 0x24
 2601 0015 00       		.byte	0
 2602 0016 0B       		.uleb128 0xb
 2603 0017 0B       		.uleb128 0xb
 2604 0018 3E       		.uleb128 0x3e
 2605 0019 0B       		.uleb128 0xb
 2606 001a 03       		.uleb128 0x3
 2607 001b 0E       		.uleb128 0xe
 2608 001c 00       		.byte	0
 2609 001d 00       		.byte	0
 2610 001e 03       		.uleb128 0x3
 2611 001f 24       		.uleb128 0x24
 2612 0020 00       		.byte	0
 2613 0021 0B       		.uleb128 0xb
 2614 0022 0B       		.uleb128 0xb
 2615 0023 3E       		.uleb128 0x3e
 2616 0024 0B       		.uleb128 0xb
 2617 0025 03       		.uleb128 0x3
 2618 0026 08       		.uleb128 0x8
 2619 0027 00       		.byte	0
ARM GAS  C:\Users\dell\AppData\Local\Temp\ccWEiAI7.s 			page 82


 2620 0028 00       		.byte	0
 2621 0029 04       		.uleb128 0x4
 2622 002a 16       		.uleb128 0x16
 2623 002b 00       		.byte	0
 2624 002c 03       		.uleb128 0x3
 2625 002d 0E       		.uleb128 0xe
 2626 002e 3A       		.uleb128 0x3a
 2627 002f 0B       		.uleb128 0xb
 2628 0030 3B       		.uleb128 0x3b
 2629 0031 05       		.uleb128 0x5
 2630 0032 49       		.uleb128 0x49
 2631 0033 13       		.uleb128 0x13
 2632 0034 00       		.byte	0
 2633 0035 00       		.byte	0
 2634 0036 05       		.uleb128 0x5
 2635 0037 0F       		.uleb128 0xf
 2636 0038 00       		.byte	0
 2637 0039 0B       		.uleb128 0xb
 2638 003a 0B       		.uleb128 0xb
 2639 003b 00       		.byte	0
 2640 003c 00       		.byte	0
 2641 003d 06       		.uleb128 0x6
 2642 003e 04       		.uleb128 0x4
 2643 003f 01       		.byte	0x1
 2644 0040 0B       		.uleb128 0xb
 2645 0041 0B       		.uleb128 0xb
 2646 0042 49       		.uleb128 0x49
 2647 0043 13       		.uleb128 0x13
 2648 0044 3A       		.uleb128 0x3a
 2649 0045 0B       		.uleb128 0xb
 2650 0046 3B       		.uleb128 0x3b
 2651 0047 0B       		.uleb128 0xb
 2652 0048 01       		.uleb128 0x1
 2653 0049 13       		.uleb128 0x13
 2654 004a 00       		.byte	0
 2655 004b 00       		.byte	0
 2656 004c 07       		.uleb128 0x7
 2657 004d 28       		.uleb128 0x28
 2658 004e 00       		.byte	0
 2659 004f 03       		.uleb128 0x3
 2660 0050 0E       		.uleb128 0xe
 2661 0051 1C       		.uleb128 0x1c
 2662 0052 0B       		.uleb128 0xb
 2663 0053 00       		.byte	0
 2664 0054 00       		.byte	0
 2665 0055 08       		.uleb128 0x8
 2666 0056 16       		.uleb128 0x16
 2667 0057 00       		.byte	0
 2668 0058 03       		.uleb128 0x3
 2669 0059 0E       		.uleb128 0xe
 2670 005a 3A       		.uleb128 0x3a
 2671 005b 0B       		.uleb128 0xb
 2672 005c 3B       		.uleb128 0x3b
 2673 005d 0B       		.uleb128 0xb
 2674 005e 49       		.uleb128 0x49
 2675 005f 13       		.uleb128 0x13
 2676 0060 00       		.byte	0
ARM GAS  C:\Users\dell\AppData\Local\Temp\ccWEiAI7.s 			page 83


 2677 0061 00       		.byte	0
 2678 0062 09       		.uleb128 0x9
 2679 0063 13       		.uleb128 0x13
 2680 0064 01       		.byte	0x1
 2681 0065 0B       		.uleb128 0xb
 2682 0066 0B       		.uleb128 0xb
 2683 0067 3A       		.uleb128 0x3a
 2684 0068 0B       		.uleb128 0xb
 2685 0069 3B       		.uleb128 0x3b
 2686 006a 0B       		.uleb128 0xb
 2687 006b 01       		.uleb128 0x1
 2688 006c 13       		.uleb128 0x13
 2689 006d 00       		.byte	0
 2690 006e 00       		.byte	0
 2691 006f 0A       		.uleb128 0xa
 2692 0070 0D       		.uleb128 0xd
 2693 0071 00       		.byte	0
 2694 0072 03       		.uleb128 0x3
 2695 0073 0E       		.uleb128 0xe
 2696 0074 3A       		.uleb128 0x3a
 2697 0075 0B       		.uleb128 0xb
 2698 0076 3B       		.uleb128 0x3b
 2699 0077 0B       		.uleb128 0xb
 2700 0078 49       		.uleb128 0x49
 2701 0079 13       		.uleb128 0x13
 2702 007a 38       		.uleb128 0x38
 2703 007b 0B       		.uleb128 0xb
 2704 007c 00       		.byte	0
 2705 007d 00       		.byte	0
 2706 007e 0B       		.uleb128 0xb
 2707 007f 01       		.uleb128 0x1
 2708 0080 01       		.byte	0x1
 2709 0081 49       		.uleb128 0x49
 2710 0082 13       		.uleb128 0x13
 2711 0083 01       		.uleb128 0x1
 2712 0084 13       		.uleb128 0x13
 2713 0085 00       		.byte	0
 2714 0086 00       		.byte	0
 2715 0087 0C       		.uleb128 0xc
 2716 0088 21       		.uleb128 0x21
 2717 0089 00       		.byte	0
 2718 008a 49       		.uleb128 0x49
 2719 008b 13       		.uleb128 0x13
 2720 008c 2F       		.uleb128 0x2f
 2721 008d 0B       		.uleb128 0xb
 2722 008e 00       		.byte	0
 2723 008f 00       		.byte	0
 2724 0090 0D       		.uleb128 0xd
 2725 0091 13       		.uleb128 0x13
 2726 0092 01       		.byte	0x1
 2727 0093 0B       		.uleb128 0xb
 2728 0094 0B       		.uleb128 0xb
 2729 0095 3A       		.uleb128 0x3a
 2730 0096 0B       		.uleb128 0xb
 2731 0097 3B       		.uleb128 0x3b
 2732 0098 05       		.uleb128 0x5
 2733 0099 01       		.uleb128 0x1
ARM GAS  C:\Users\dell\AppData\Local\Temp\ccWEiAI7.s 			page 84


 2734 009a 13       		.uleb128 0x13
 2735 009b 00       		.byte	0
 2736 009c 00       		.byte	0
 2737 009d 0E       		.uleb128 0xe
 2738 009e 0D       		.uleb128 0xd
 2739 009f 00       		.byte	0
 2740 00a0 03       		.uleb128 0x3
 2741 00a1 08       		.uleb128 0x8
 2742 00a2 3A       		.uleb128 0x3a
 2743 00a3 0B       		.uleb128 0xb
 2744 00a4 3B       		.uleb128 0x3b
 2745 00a5 05       		.uleb128 0x5
 2746 00a6 49       		.uleb128 0x49
 2747 00a7 13       		.uleb128 0x13
 2748 00a8 38       		.uleb128 0x38
 2749 00a9 0B       		.uleb128 0xb
 2750 00aa 00       		.byte	0
 2751 00ab 00       		.byte	0
 2752 00ac 0F       		.uleb128 0xf
 2753 00ad 0D       		.uleb128 0xd
 2754 00ae 00       		.byte	0
 2755 00af 03       		.uleb128 0x3
 2756 00b0 0E       		.uleb128 0xe
 2757 00b1 3A       		.uleb128 0x3a
 2758 00b2 0B       		.uleb128 0xb
 2759 00b3 3B       		.uleb128 0x3b
 2760 00b4 05       		.uleb128 0x5
 2761 00b5 49       		.uleb128 0x49
 2762 00b6 13       		.uleb128 0x13
 2763 00b7 38       		.uleb128 0x38
 2764 00b8 0B       		.uleb128 0xb
 2765 00b9 00       		.byte	0
 2766 00ba 00       		.byte	0
 2767 00bb 10       		.uleb128 0x10
 2768 00bc 0F       		.uleb128 0xf
 2769 00bd 00       		.byte	0
 2770 00be 0B       		.uleb128 0xb
 2771 00bf 0B       		.uleb128 0xb
 2772 00c0 49       		.uleb128 0x49
 2773 00c1 13       		.uleb128 0x13
 2774 00c2 00       		.byte	0
 2775 00c3 00       		.byte	0
 2776 00c4 11       		.uleb128 0x11
 2777 00c5 26       		.uleb128 0x26
 2778 00c6 00       		.byte	0
 2779 00c7 00       		.byte	0
 2780 00c8 00       		.byte	0
 2781 00c9 12       		.uleb128 0x12
 2782 00ca 17       		.uleb128 0x17
 2783 00cb 01       		.byte	0x1
 2784 00cc 0B       		.uleb128 0xb
 2785 00cd 0B       		.uleb128 0xb
 2786 00ce 3A       		.uleb128 0x3a
 2787 00cf 0B       		.uleb128 0xb
 2788 00d0 3B       		.uleb128 0x3b
 2789 00d1 05       		.uleb128 0x5
 2790 00d2 01       		.uleb128 0x1
ARM GAS  C:\Users\dell\AppData\Local\Temp\ccWEiAI7.s 			page 85


 2791 00d3 13       		.uleb128 0x13
 2792 00d4 00       		.byte	0
 2793 00d5 00       		.byte	0
 2794 00d6 13       		.uleb128 0x13
 2795 00d7 0D       		.uleb128 0xd
 2796 00d8 00       		.byte	0
 2797 00d9 03       		.uleb128 0x3
 2798 00da 08       		.uleb128 0x8
 2799 00db 3A       		.uleb128 0x3a
 2800 00dc 0B       		.uleb128 0xb
 2801 00dd 3B       		.uleb128 0x3b
 2802 00de 05       		.uleb128 0x5
 2803 00df 49       		.uleb128 0x49
 2804 00e0 13       		.uleb128 0x13
 2805 00e1 00       		.byte	0
 2806 00e2 00       		.byte	0
 2807 00e3 14       		.uleb128 0x14
 2808 00e4 0D       		.uleb128 0xd
 2809 00e5 00       		.byte	0
 2810 00e6 03       		.uleb128 0x3
 2811 00e7 0E       		.uleb128 0xe
 2812 00e8 3A       		.uleb128 0x3a
 2813 00e9 0B       		.uleb128 0xb
 2814 00ea 3B       		.uleb128 0x3b
 2815 00eb 05       		.uleb128 0x5
 2816 00ec 49       		.uleb128 0x49
 2817 00ed 13       		.uleb128 0x13
 2818 00ee 00       		.byte	0
 2819 00ef 00       		.byte	0
 2820 00f0 15       		.uleb128 0x15
 2821 00f1 2E       		.uleb128 0x2e
 2822 00f2 01       		.byte	0x1
 2823 00f3 3F       		.uleb128 0x3f
 2824 00f4 19       		.uleb128 0x19
 2825 00f5 03       		.uleb128 0x3
 2826 00f6 0E       		.uleb128 0xe
 2827 00f7 3A       		.uleb128 0x3a
 2828 00f8 0B       		.uleb128 0xb
 2829 00f9 3B       		.uleb128 0x3b
 2830 00fa 05       		.uleb128 0x5
 2831 00fb 27       		.uleb128 0x27
 2832 00fc 19       		.uleb128 0x19
 2833 00fd 11       		.uleb128 0x11
 2834 00fe 01       		.uleb128 0x1
 2835 00ff 12       		.uleb128 0x12
 2836 0100 06       		.uleb128 0x6
 2837 0101 40       		.uleb128 0x40
 2838 0102 18       		.uleb128 0x18
 2839 0103 9742     		.uleb128 0x2117
 2840 0105 19       		.uleb128 0x19
 2841 0106 01       		.uleb128 0x1
 2842 0107 13       		.uleb128 0x13
 2843 0108 00       		.byte	0
 2844 0109 00       		.byte	0
 2845 010a 16       		.uleb128 0x16
 2846 010b 05       		.uleb128 0x5
 2847 010c 00       		.byte	0
ARM GAS  C:\Users\dell\AppData\Local\Temp\ccWEiAI7.s 			page 86


 2848 010d 03       		.uleb128 0x3
 2849 010e 0E       		.uleb128 0xe
 2850 010f 3A       		.uleb128 0x3a
 2851 0110 0B       		.uleb128 0xb
 2852 0111 3B       		.uleb128 0x3b
 2853 0112 05       		.uleb128 0x5
 2854 0113 49       		.uleb128 0x49
 2855 0114 13       		.uleb128 0x13
 2856 0115 02       		.uleb128 0x2
 2857 0116 18       		.uleb128 0x18
 2858 0117 00       		.byte	0
 2859 0118 00       		.byte	0
 2860 0119 17       		.uleb128 0x17
 2861 011a 05       		.uleb128 0x5
 2862 011b 00       		.byte	0
 2863 011c 03       		.uleb128 0x3
 2864 011d 0E       		.uleb128 0xe
 2865 011e 3A       		.uleb128 0x3a
 2866 011f 0B       		.uleb128 0xb
 2867 0120 3B       		.uleb128 0x3b
 2868 0121 05       		.uleb128 0x5
 2869 0122 49       		.uleb128 0x49
 2870 0123 13       		.uleb128 0x13
 2871 0124 02       		.uleb128 0x2
 2872 0125 17       		.uleb128 0x17
 2873 0126 00       		.byte	0
 2874 0127 00       		.byte	0
 2875 0128 18       		.uleb128 0x18
 2876 0129 34       		.uleb128 0x34
 2877 012a 00       		.byte	0
 2878 012b 03       		.uleb128 0x3
 2879 012c 0E       		.uleb128 0xe
 2880 012d 3A       		.uleb128 0x3a
 2881 012e 0B       		.uleb128 0xb
 2882 012f 3B       		.uleb128 0x3b
 2883 0130 05       		.uleb128 0x5
 2884 0131 49       		.uleb128 0x49
 2885 0132 13       		.uleb128 0x13
 2886 0133 02       		.uleb128 0x2
 2887 0134 17       		.uleb128 0x17
 2888 0135 00       		.byte	0
 2889 0136 00       		.byte	0
 2890 0137 19       		.uleb128 0x19
 2891 0138 898201   		.uleb128 0x4109
 2892 013b 01       		.byte	0x1
 2893 013c 11       		.uleb128 0x11
 2894 013d 01       		.uleb128 0x1
 2895 013e 31       		.uleb128 0x31
 2896 013f 13       		.uleb128 0x13
 2897 0140 00       		.byte	0
 2898 0141 00       		.byte	0
 2899 0142 1A       		.uleb128 0x1a
 2900 0143 8A8201   		.uleb128 0x410a
 2901 0146 00       		.byte	0
 2902 0147 02       		.uleb128 0x2
 2903 0148 18       		.uleb128 0x18
 2904 0149 9142     		.uleb128 0x2111
ARM GAS  C:\Users\dell\AppData\Local\Temp\ccWEiAI7.s 			page 87


 2905 014b 18       		.uleb128 0x18
 2906 014c 00       		.byte	0
 2907 014d 00       		.byte	0
 2908 014e 1B       		.uleb128 0x1b
 2909 014f 34       		.uleb128 0x34
 2910 0150 00       		.byte	0
 2911 0151 03       		.uleb128 0x3
 2912 0152 0E       		.uleb128 0xe
 2913 0153 3A       		.uleb128 0x3a
 2914 0154 0B       		.uleb128 0xb
 2915 0155 3B       		.uleb128 0x3b
 2916 0156 05       		.uleb128 0x5
 2917 0157 49       		.uleb128 0x49
 2918 0158 13       		.uleb128 0x13
 2919 0159 00       		.byte	0
 2920 015a 00       		.byte	0
 2921 015b 1C       		.uleb128 0x1c
 2922 015c 26       		.uleb128 0x26
 2923 015d 00       		.byte	0
 2924 015e 49       		.uleb128 0x49
 2925 015f 13       		.uleb128 0x13
 2926 0160 00       		.byte	0
 2927 0161 00       		.byte	0
 2928 0162 1D       		.uleb128 0x1d
 2929 0163 898201   		.uleb128 0x4109
 2930 0166 00       		.byte	0
 2931 0167 11       		.uleb128 0x11
 2932 0168 01       		.uleb128 0x1
 2933 0169 31       		.uleb128 0x31
 2934 016a 13       		.uleb128 0x13
 2935 016b 00       		.byte	0
 2936 016c 00       		.byte	0
 2937 016d 1E       		.uleb128 0x1e
 2938 016e 2E       		.uleb128 0x2e
 2939 016f 01       		.byte	0x1
 2940 0170 3F       		.uleb128 0x3f
 2941 0171 19       		.uleb128 0x19
 2942 0172 03       		.uleb128 0x3
 2943 0173 0E       		.uleb128 0xe
 2944 0174 3A       		.uleb128 0x3a
 2945 0175 0B       		.uleb128 0xb
 2946 0176 3B       		.uleb128 0x3b
 2947 0177 0B       		.uleb128 0xb
 2948 0178 27       		.uleb128 0x27
 2949 0179 19       		.uleb128 0x19
 2950 017a 11       		.uleb128 0x11
 2951 017b 01       		.uleb128 0x1
 2952 017c 12       		.uleb128 0x12
 2953 017d 06       		.uleb128 0x6
 2954 017e 40       		.uleb128 0x40
 2955 017f 18       		.uleb128 0x18
 2956 0180 9742     		.uleb128 0x2117
 2957 0182 19       		.uleb128 0x19
 2958 0183 01       		.uleb128 0x1
 2959 0184 13       		.uleb128 0x13
 2960 0185 00       		.byte	0
 2961 0186 00       		.byte	0
ARM GAS  C:\Users\dell\AppData\Local\Temp\ccWEiAI7.s 			page 88


 2962 0187 1F       		.uleb128 0x1f
 2963 0188 2E       		.uleb128 0x2e
 2964 0189 01       		.byte	0x1
 2965 018a 3F       		.uleb128 0x3f
 2966 018b 19       		.uleb128 0x19
 2967 018c 03       		.uleb128 0x3
 2968 018d 0E       		.uleb128 0xe
 2969 018e 3A       		.uleb128 0x3a
 2970 018f 0B       		.uleb128 0xb
 2971 0190 3B       		.uleb128 0x3b
 2972 0191 05       		.uleb128 0x5
 2973 0192 27       		.uleb128 0x27
 2974 0193 19       		.uleb128 0x19
 2975 0194 49       		.uleb128 0x49
 2976 0195 13       		.uleb128 0x13
 2977 0196 11       		.uleb128 0x11
 2978 0197 01       		.uleb128 0x1
 2979 0198 12       		.uleb128 0x12
 2980 0199 06       		.uleb128 0x6
 2981 019a 40       		.uleb128 0x40
 2982 019b 18       		.uleb128 0x18
 2983 019c 9742     		.uleb128 0x2117
 2984 019e 19       		.uleb128 0x19
 2985 019f 01       		.uleb128 0x1
 2986 01a0 13       		.uleb128 0x13
 2987 01a1 00       		.byte	0
 2988 01a2 00       		.byte	0
 2989 01a3 20       		.uleb128 0x20
 2990 01a4 05       		.uleb128 0x5
 2991 01a5 00       		.byte	0
 2992 01a6 03       		.uleb128 0x3
 2993 01a7 08       		.uleb128 0x8
 2994 01a8 3A       		.uleb128 0x3a
 2995 01a9 0B       		.uleb128 0xb
 2996 01aa 3B       		.uleb128 0x3b
 2997 01ab 05       		.uleb128 0x5
 2998 01ac 49       		.uleb128 0x49
 2999 01ad 13       		.uleb128 0x13
 3000 01ae 02       		.uleb128 0x2
 3001 01af 17       		.uleb128 0x17
 3002 01b0 00       		.byte	0
 3003 01b1 00       		.byte	0
 3004 01b2 21       		.uleb128 0x21
 3005 01b3 34       		.uleb128 0x34
 3006 01b4 00       		.byte	0
 3007 01b5 03       		.uleb128 0x3
 3008 01b6 0E       		.uleb128 0xe
 3009 01b7 3A       		.uleb128 0x3a
 3010 01b8 0B       		.uleb128 0xb
 3011 01b9 3B       		.uleb128 0x3b
 3012 01ba 05       		.uleb128 0x5
 3013 01bb 49       		.uleb128 0x49
 3014 01bc 13       		.uleb128 0x13
 3015 01bd 02       		.uleb128 0x2
 3016 01be 18       		.uleb128 0x18
 3017 01bf 00       		.byte	0
 3018 01c0 00       		.byte	0
ARM GAS  C:\Users\dell\AppData\Local\Temp\ccWEiAI7.s 			page 89


 3019 01c1 22       		.uleb128 0x22
 3020 01c2 2E       		.uleb128 0x2e
 3021 01c3 01       		.byte	0x1
 3022 01c4 3F       		.uleb128 0x3f
 3023 01c5 19       		.uleb128 0x19
 3024 01c6 03       		.uleb128 0x3
 3025 01c7 0E       		.uleb128 0xe
 3026 01c8 3A       		.uleb128 0x3a
 3027 01c9 0B       		.uleb128 0xb
 3028 01ca 3B       		.uleb128 0x3b
 3029 01cb 0B       		.uleb128 0xb
 3030 01cc 27       		.uleb128 0x27
 3031 01cd 19       		.uleb128 0x19
 3032 01ce 49       		.uleb128 0x49
 3033 01cf 13       		.uleb128 0x13
 3034 01d0 11       		.uleb128 0x11
 3035 01d1 01       		.uleb128 0x1
 3036 01d2 12       		.uleb128 0x12
 3037 01d3 06       		.uleb128 0x6
 3038 01d4 40       		.uleb128 0x40
 3039 01d5 18       		.uleb128 0x18
 3040 01d6 9742     		.uleb128 0x2117
 3041 01d8 19       		.uleb128 0x19
 3042 01d9 01       		.uleb128 0x1
 3043 01da 13       		.uleb128 0x13
 3044 01db 00       		.byte	0
 3045 01dc 00       		.byte	0
 3046 01dd 23       		.uleb128 0x23
 3047 01de 34       		.uleb128 0x34
 3048 01df 00       		.byte	0
 3049 01e0 03       		.uleb128 0x3
 3050 01e1 0E       		.uleb128 0xe
 3051 01e2 3A       		.uleb128 0x3a
 3052 01e3 0B       		.uleb128 0xb
 3053 01e4 3B       		.uleb128 0x3b
 3054 01e5 05       		.uleb128 0x5
 3055 01e6 49       		.uleb128 0x49
 3056 01e7 13       		.uleb128 0x13
 3057 01e8 1C       		.uleb128 0x1c
 3058 01e9 0B       		.uleb128 0xb
 3059 01ea 00       		.byte	0
 3060 01eb 00       		.byte	0
 3061 01ec 24       		.uleb128 0x24
 3062 01ed 898201   		.uleb128 0x4109
 3063 01f0 01       		.byte	0x1
 3064 01f1 11       		.uleb128 0x11
 3065 01f2 01       		.uleb128 0x1
 3066 01f3 31       		.uleb128 0x31
 3067 01f4 13       		.uleb128 0x13
 3068 01f5 01       		.uleb128 0x1
 3069 01f6 13       		.uleb128 0x13
 3070 01f7 00       		.byte	0
 3071 01f8 00       		.byte	0
 3072 01f9 25       		.uleb128 0x25
 3073 01fa 05       		.uleb128 0x5
 3074 01fb 00       		.byte	0
 3075 01fc 03       		.uleb128 0x3
ARM GAS  C:\Users\dell\AppData\Local\Temp\ccWEiAI7.s 			page 90


 3076 01fd 0E       		.uleb128 0xe
 3077 01fe 3A       		.uleb128 0x3a
 3078 01ff 0B       		.uleb128 0xb
 3079 0200 3B       		.uleb128 0x3b
 3080 0201 0B       		.uleb128 0xb
 3081 0202 49       		.uleb128 0x49
 3082 0203 13       		.uleb128 0x13
 3083 0204 02       		.uleb128 0x2
 3084 0205 17       		.uleb128 0x17
 3085 0206 00       		.byte	0
 3086 0207 00       		.byte	0
 3087 0208 26       		.uleb128 0x26
 3088 0209 34       		.uleb128 0x34
 3089 020a 00       		.byte	0
 3090 020b 03       		.uleb128 0x3
 3091 020c 0E       		.uleb128 0xe
 3092 020d 3A       		.uleb128 0x3a
 3093 020e 0B       		.uleb128 0xb
 3094 020f 3B       		.uleb128 0x3b
 3095 0210 0B       		.uleb128 0xb
 3096 0211 49       		.uleb128 0x49
 3097 0212 13       		.uleb128 0x13
 3098 0213 02       		.uleb128 0x2
 3099 0214 17       		.uleb128 0x17
 3100 0215 00       		.byte	0
 3101 0216 00       		.byte	0
 3102 0217 27       		.uleb128 0x27
 3103 0218 34       		.uleb128 0x34
 3104 0219 00       		.byte	0
 3105 021a 03       		.uleb128 0x3
 3106 021b 0E       		.uleb128 0xe
 3107 021c 3A       		.uleb128 0x3a
 3108 021d 0B       		.uleb128 0xb
 3109 021e 3B       		.uleb128 0x3b
 3110 021f 0B       		.uleb128 0xb
 3111 0220 49       		.uleb128 0x49
 3112 0221 13       		.uleb128 0x13
 3113 0222 00       		.byte	0
 3114 0223 00       		.byte	0
 3115 0224 28       		.uleb128 0x28
 3116 0225 34       		.uleb128 0x34
 3117 0226 00       		.byte	0
 3118 0227 03       		.uleb128 0x3
 3119 0228 0E       		.uleb128 0xe
 3120 0229 3A       		.uleb128 0x3a
 3121 022a 0B       		.uleb128 0xb
 3122 022b 3B       		.uleb128 0x3b
 3123 022c 05       		.uleb128 0x5
 3124 022d 49       		.uleb128 0x49
 3125 022e 13       		.uleb128 0x13
 3126 022f 3F       		.uleb128 0x3f
 3127 0230 19       		.uleb128 0x19
 3128 0231 3C       		.uleb128 0x3c
 3129 0232 19       		.uleb128 0x19
 3130 0233 00       		.byte	0
 3131 0234 00       		.byte	0
 3132 0235 00       		.byte	0
ARM GAS  C:\Users\dell\AppData\Local\Temp\ccWEiAI7.s 			page 91


 3133              		.section	.debug_loc,"",%progbits
 3134              	.Ldebug_loc0:
 3135              	.LLST0:
 3136 0000 00000000 		.4byte	.LVL0
 3137 0004 04000000 		.4byte	.LVL1
 3138 0008 0100     		.2byte	0x1
 3139 000a 51       		.byte	0x51
 3140 000b 04000000 		.4byte	.LVL1
 3141 000f 1E000000 		.4byte	.LFE10
 3142 0013 0400     		.2byte	0x4
 3143 0015 F3       		.byte	0xf3
 3144 0016 01       		.uleb128 0x1
 3145 0017 51       		.byte	0x51
 3146 0018 9F       		.byte	0x9f
 3147 0019 00000000 		.4byte	0
 3148 001d 00000000 		.4byte	0
 3149              	.LLST1:
 3150 0021 00000000 		.4byte	.LVL0
 3151 0025 18000000 		.4byte	.LVL2
 3152 0029 0100     		.2byte	0x1
 3153 002b 52       		.byte	0x52
 3154 002c 18000000 		.4byte	.LVL2
 3155 0030 1E000000 		.4byte	.LFE10
 3156 0034 0400     		.2byte	0x4
 3157 0036 F3       		.byte	0xf3
 3158 0037 01       		.uleb128 0x1
 3159 0038 52       		.byte	0x52
 3160 0039 9F       		.byte	0x9f
 3161 003a 00000000 		.4byte	0
 3162 003e 00000000 		.4byte	0
 3163              	.LLST2:
 3164 0042 00000000 		.4byte	.LVL3
 3165 0046 0A000000 		.4byte	.LVL5
 3166 004a 0100     		.2byte	0x1
 3167 004c 50       		.byte	0x50
 3168 004d 0A000000 		.4byte	.LVL5
 3169 0051 1C000000 		.4byte	.LVL11
 3170 0055 0100     		.2byte	0x1
 3171 0057 56       		.byte	0x56
 3172 0058 1C000000 		.4byte	.LVL11
 3173 005c 1E000000 		.4byte	.LFE9
 3174 0060 0400     		.2byte	0x4
 3175 0062 F3       		.byte	0xf3
 3176 0063 01       		.uleb128 0x1
 3177 0064 50       		.byte	0x50
 3178 0065 9F       		.byte	0x9f
 3179 0066 00000000 		.4byte	0
 3180 006a 00000000 		.4byte	0
 3181              	.LLST3:
 3182 006e 00000000 		.4byte	.LVL3
 3183 0072 0A000000 		.4byte	.LVL5
 3184 0076 0100     		.2byte	0x1
 3185 0078 51       		.byte	0x51
 3186 0079 0A000000 		.4byte	.LVL5
 3187 007d 1C000000 		.4byte	.LVL10
 3188 0081 0100     		.2byte	0x1
 3189 0083 55       		.byte	0x55
ARM GAS  C:\Users\dell\AppData\Local\Temp\ccWEiAI7.s 			page 92


 3190 0084 1C000000 		.4byte	.LVL10
 3191 0088 1E000000 		.4byte	.LFE9
 3192 008c 0400     		.2byte	0x4
 3193 008e F3       		.byte	0xf3
 3194 008f 01       		.uleb128 0x1
 3195 0090 51       		.byte	0x51
 3196 0091 9F       		.byte	0x9f
 3197 0092 00000000 		.4byte	0
 3198 0096 00000000 		.4byte	0
 3199              	.LLST4:
 3200 009a 06000000 		.4byte	.LVL4
 3201 009e 0A000000 		.4byte	.LVL5
 3202 00a2 0200     		.2byte	0x2
 3203 00a4 31       		.byte	0x31
 3204 00a5 9F       		.byte	0x9f
 3205 00a6 0A000000 		.4byte	.LVL5
 3206 00aa 16000000 		.4byte	.LVL7
 3207 00ae 0100     		.2byte	0x1
 3208 00b0 54       		.byte	0x54
 3209 00b1 16000000 		.4byte	.LVL7
 3210 00b5 18000000 		.4byte	.LVL8
 3211 00b9 0100     		.2byte	0x1
 3212 00bb 53       		.byte	0x53
 3213 00bc 18000000 		.4byte	.LVL8
 3214 00c0 1C000000 		.4byte	.LVL9
 3215 00c4 0100     		.2byte	0x1
 3216 00c6 54       		.byte	0x54
 3217 00c7 1C000000 		.4byte	.LVL9
 3218 00cb 1E000000 		.4byte	.LFE9
 3219 00cf 0300     		.2byte	0x3
 3220 00d1 73       		.byte	0x73
 3221 00d2 7F       		.sleb128 -1
 3222 00d3 9F       		.byte	0x9f
 3223 00d4 00000000 		.4byte	0
 3224 00d8 00000000 		.4byte	0
 3225              	.LLST5:
 3226 00dc 00000000 		.4byte	.LVL12
 3227 00e0 20000000 		.4byte	.LVL17
 3228 00e4 0100     		.2byte	0x1
 3229 00e6 50       		.byte	0x50
 3230 00e7 20000000 		.4byte	.LVL17
 3231 00eb 2C000000 		.4byte	.LFE8
 3232 00ef 0400     		.2byte	0x4
 3233 00f1 F3       		.byte	0xf3
 3234 00f2 01       		.uleb128 0x1
 3235 00f3 50       		.byte	0x50
 3236 00f4 9F       		.byte	0x9f
 3237 00f5 00000000 		.4byte	0
 3238 00f9 00000000 		.4byte	0
 3239              	.LLST6:
 3240 00fd 00000000 		.4byte	.LVL12
 3241 0101 12000000 		.4byte	.LVL15
 3242 0105 0100     		.2byte	0x1
 3243 0107 51       		.byte	0x51
 3244 0108 12000000 		.4byte	.LVL15
 3245 010c 2C000000 		.4byte	.LFE8
 3246 0110 0400     		.2byte	0x4
ARM GAS  C:\Users\dell\AppData\Local\Temp\ccWEiAI7.s 			page 93


 3247 0112 F3       		.byte	0xf3
 3248 0113 01       		.uleb128 0x1
 3249 0114 51       		.byte	0x51
 3250 0115 9F       		.byte	0x9f
 3251 0116 00000000 		.4byte	0
 3252 011a 00000000 		.4byte	0
 3253              	.LLST7:
 3254 011e 02000000 		.4byte	.LVL13
 3255 0122 0E000000 		.4byte	.LVL14
 3256 0126 0200     		.2byte	0x2
 3257 0128 30       		.byte	0x30
 3258 0129 9F       		.byte	0x9f
 3259 012a 0E000000 		.4byte	.LVL14
 3260 012e 16000000 		.4byte	.LVL16
 3261 0132 0100     		.2byte	0x1
 3262 0134 55       		.byte	0x55
 3263 0135 16000000 		.4byte	.LVL16
 3264 0139 23000000 		.4byte	.LVL18-1
 3265 013d 0100     		.2byte	0x1
 3266 013f 52       		.byte	0x52
 3267 0140 23000000 		.4byte	.LVL18-1
 3268 0144 24000000 		.4byte	.LVL19
 3269 0148 0F00     		.2byte	0xf
 3270 014a F3       		.byte	0xf3
 3271 014b 01       		.uleb128 0x1
 3272 014c 51       		.byte	0x51
 3273 014d 32       		.byte	0x32
 3274 014e 24       		.byte	0x24
 3275 014f F3       		.byte	0xf3
 3276 0150 01       		.uleb128 0x1
 3277 0151 51       		.byte	0x51
 3278 0152 22       		.byte	0x22
 3279 0153 31       		.byte	0x31
 3280 0154 24       		.byte	0x24
 3281 0155 75       		.byte	0x75
 3282 0156 00       		.sleb128 0
 3283 0157 22       		.byte	0x22
 3284 0158 9F       		.byte	0x9f
 3285 0159 00000000 		.4byte	0
 3286 015d 00000000 		.4byte	0
 3287              	.LLST8:
 3288 0161 00000000 		.4byte	.LVL20
 3289 0165 12000000 		.4byte	.LVL23
 3290 0169 0100     		.2byte	0x1
 3291 016b 50       		.byte	0x50
 3292 016c 12000000 		.4byte	.LVL23
 3293 0170 22000000 		.4byte	.LVL28
 3294 0174 0100     		.2byte	0x1
 3295 0176 55       		.byte	0x55
 3296 0177 22000000 		.4byte	.LVL28
 3297 017b 28000000 		.4byte	.LFE7
 3298 017f 0400     		.2byte	0x4
 3299 0181 F3       		.byte	0xf3
 3300 0182 01       		.uleb128 0x1
 3301 0183 50       		.byte	0x50
 3302 0184 9F       		.byte	0x9f
 3303 0185 00000000 		.4byte	0
ARM GAS  C:\Users\dell\AppData\Local\Temp\ccWEiAI7.s 			page 94


 3304 0189 00000000 		.4byte	0
 3305              	.LLST9:
 3306 018d 10000000 		.4byte	.LVL22
 3307 0191 12000000 		.4byte	.LVL23
 3308 0195 0100     		.2byte	0x1
 3309 0197 53       		.byte	0x53
 3310 0198 12000000 		.4byte	.LVL23
 3311 019c 1C000000 		.4byte	.LVL25
 3312 01a0 0100     		.2byte	0x1
 3313 01a2 54       		.byte	0x54
 3314 01a3 1C000000 		.4byte	.LVL25
 3315 01a7 1E000000 		.4byte	.LVL26
 3316 01ab 0100     		.2byte	0x1
 3317 01ad 53       		.byte	0x53
 3318 01ae 1E000000 		.4byte	.LVL26
 3319 01b2 22000000 		.4byte	.LVL27
 3320 01b6 0100     		.2byte	0x1
 3321 01b8 54       		.byte	0x54
 3322 01b9 22000000 		.4byte	.LVL27
 3323 01bd 28000000 		.4byte	.LFE7
 3324 01c1 0300     		.2byte	0x3
 3325 01c3 73       		.byte	0x73
 3326 01c4 7F       		.sleb128 -1
 3327 01c5 9F       		.byte	0x9f
 3328 01c6 00000000 		.4byte	0
 3329 01ca 00000000 		.4byte	0
 3330              	.LLST10:
 3331 01ce 10000000 		.4byte	.LVL22
 3332 01d2 12000000 		.4byte	.LVL23
 3333 01d6 0100     		.2byte	0x1
 3334 01d8 53       		.byte	0x53
 3335 01d9 00000000 		.4byte	0
 3336 01dd 00000000 		.4byte	0
 3337              	.LLST11:
 3338 01e1 02000000 		.4byte	.LVL29
 3339 01e5 06000000 		.4byte	.LVL30
 3340 01e9 0200     		.2byte	0x2
 3341 01eb 34       		.byte	0x34
 3342 01ec 9F       		.byte	0x9f
 3343 01ed 06000000 		.4byte	.LVL30
 3344 01f1 0E000000 		.4byte	.LVL32
 3345 01f5 0100     		.2byte	0x1
 3346 01f7 54       		.byte	0x54
 3347 01f8 0E000000 		.4byte	.LVL32
 3348 01fc 10000000 		.4byte	.LVL33
 3349 0200 0100     		.2byte	0x1
 3350 0202 53       		.byte	0x53
 3351 0203 10000000 		.4byte	.LVL33
 3352 0207 14000000 		.4byte	.LVL34
 3353 020b 0100     		.2byte	0x1
 3354 020d 54       		.byte	0x54
 3355 020e 14000000 		.4byte	.LVL34
 3356 0212 16000000 		.4byte	.LFE6
 3357 0216 0300     		.2byte	0x3
 3358 0218 73       		.byte	0x73
 3359 0219 7F       		.sleb128 -1
 3360 021a 9F       		.byte	0x9f
ARM GAS  C:\Users\dell\AppData\Local\Temp\ccWEiAI7.s 			page 95


 3361 021b 00000000 		.4byte	0
 3362 021f 00000000 		.4byte	0
 3363              	.LLST12:
 3364 0223 02000000 		.4byte	.LVL36
 3365 0227 06000000 		.4byte	.LVL37
 3366 022b 0200     		.2byte	0x2
 3367 022d 31       		.byte	0x31
 3368 022e 9F       		.byte	0x9f
 3369 022f 06000000 		.4byte	.LVL37
 3370 0233 24000000 		.4byte	.LVL38
 3371 0237 0100     		.2byte	0x1
 3372 0239 54       		.byte	0x54
 3373 023a 24000000 		.4byte	.LVL38
 3374 023e 26000000 		.4byte	.LVL39
 3375 0242 0100     		.2byte	0x1
 3376 0244 53       		.byte	0x53
 3377 0245 26000000 		.4byte	.LVL39
 3378 0249 2A000000 		.4byte	.LVL40
 3379 024d 0100     		.2byte	0x1
 3380 024f 54       		.byte	0x54
 3381 0250 2A000000 		.4byte	.LVL40
 3382 0254 2C000000 		.4byte	.LFE15
 3383 0258 0300     		.2byte	0x3
 3384 025a 73       		.byte	0x73
 3385 025b 7F       		.sleb128 -1
 3386 025c 9F       		.byte	0x9f
 3387 025d 00000000 		.4byte	0
 3388 0261 00000000 		.4byte	0
 3389              	.LLST13:
 3390 0265 00000000 		.4byte	.LVL41
 3391 0269 12000000 		.4byte	.LVL44
 3392 026d 0100     		.2byte	0x1
 3393 026f 50       		.byte	0x50
 3394 0270 12000000 		.4byte	.LVL44
 3395 0274 46000000 		.4byte	.LVL54
 3396 0278 0100     		.2byte	0x1
 3397 027a 55       		.byte	0x55
 3398 027b 46000000 		.4byte	.LVL54
 3399 027f 4C000000 		.4byte	.LFE12
 3400 0283 0400     		.2byte	0x4
 3401 0285 F3       		.byte	0xf3
 3402 0286 01       		.uleb128 0x1
 3403 0287 50       		.byte	0x50
 3404 0288 9F       		.byte	0x9f
 3405 0289 00000000 		.4byte	0
 3406 028d 00000000 		.4byte	0
 3407              	.LLST14:
 3408 0291 10000000 		.4byte	.LVL43
 3409 0295 12000000 		.4byte	.LVL44
 3410 0299 0100     		.2byte	0x1
 3411 029b 53       		.byte	0x53
 3412 029c 12000000 		.4byte	.LVL44
 3413 02a0 40000000 		.4byte	.LVL51
 3414 02a4 0100     		.2byte	0x1
 3415 02a6 54       		.byte	0x54
 3416 02a7 40000000 		.4byte	.LVL51
 3417 02ab 42000000 		.4byte	.LVL52
ARM GAS  C:\Users\dell\AppData\Local\Temp\ccWEiAI7.s 			page 96


 3418 02af 0100     		.2byte	0x1
 3419 02b1 53       		.byte	0x53
 3420 02b2 42000000 		.4byte	.LVL52
 3421 02b6 46000000 		.4byte	.LVL53
 3422 02ba 0100     		.2byte	0x1
 3423 02bc 54       		.byte	0x54
 3424 02bd 46000000 		.4byte	.LVL53
 3425 02c1 4C000000 		.4byte	.LFE12
 3426 02c5 0300     		.2byte	0x3
 3427 02c7 73       		.byte	0x73
 3428 02c8 7F       		.sleb128 -1
 3429 02c9 9F       		.byte	0x9f
 3430 02ca 00000000 		.4byte	0
 3431 02ce 00000000 		.4byte	0
 3432              	.LLST15:
 3433 02d2 10000000 		.4byte	.LVL43
 3434 02d6 12000000 		.4byte	.LVL44
 3435 02da 0100     		.2byte	0x1
 3436 02dc 53       		.byte	0x53
 3437 02dd 1A000000 		.4byte	.LVL45
 3438 02e1 1E000000 		.4byte	.LVL47
 3439 02e5 1500     		.2byte	0x15
 3440 02e7 75       		.byte	0x75
 3441 02e8 00       		.sleb128 0
 3442 02e9 33       		.byte	0x33
 3443 02ea 24       		.byte	0x24
 3444 02eb 75       		.byte	0x75
 3445 02ec 00       		.sleb128 0
 3446 02ed 1C       		.byte	0x1c
 3447 02ee 32       		.byte	0x32
 3448 02ef 24       		.byte	0x24
 3449 02f0 72       		.byte	0x72
 3450 02f1 00       		.sleb128 0
 3451 02f2 22       		.byte	0x22
 3452 02f3 23       		.byte	0x23
 3453 02f4 18       		.uleb128 0x18
 3454 02f5 94       		.byte	0x94
 3455 02f6 02       		.byte	0x2
 3456 02f7 0A       		.byte	0xa
 3457 02f8 FFFF     		.2byte	0xffff
 3458 02fa 1A       		.byte	0x1a
 3459 02fb 9F       		.byte	0x9f
 3460 02fc 00000000 		.4byte	0
 3461 0300 00000000 		.4byte	0
 3462              	.LLST16:
 3463 0304 04000000 		.4byte	.LVL42
 3464 0308 12000000 		.4byte	.LVL44
 3465 030c 0200     		.2byte	0x2
 3466 030e 30       		.byte	0x30
 3467 030f 9F       		.byte	0x9f
 3468 0310 1C000000 		.4byte	.LVL46
 3469 0314 28000000 		.4byte	.LVL48
 3470 0318 0200     		.2byte	0x2
 3471 031a 73       		.byte	0x73
 3472 031b 08       		.sleb128 8
 3473 031c 28000000 		.4byte	.LVL48
 3474 0320 3D000000 		.4byte	.LVL50-1
ARM GAS  C:\Users\dell\AppData\Local\Temp\ccWEiAI7.s 			page 97


 3475 0324 0100     		.2byte	0x1
 3476 0326 51       		.byte	0x51
 3477 0327 00000000 		.4byte	0
 3478 032b 00000000 		.4byte	0
 3479              	.LLST17:
 3480 032f 02000000 		.4byte	.LVL55
 3481 0333 06000000 		.4byte	.LVL56
 3482 0337 0200     		.2byte	0x2
 3483 0339 34       		.byte	0x34
 3484 033a 9F       		.byte	0x9f
 3485 033b 06000000 		.4byte	.LVL56
 3486 033f 0E000000 		.4byte	.LVL58
 3487 0343 0100     		.2byte	0x1
 3488 0345 54       		.byte	0x54
 3489 0346 0E000000 		.4byte	.LVL58
 3490 034a 10000000 		.4byte	.LVL59
 3491 034e 0100     		.2byte	0x1
 3492 0350 53       		.byte	0x53
 3493 0351 10000000 		.4byte	.LVL59
 3494 0355 14000000 		.4byte	.LVL60
 3495 0359 0100     		.2byte	0x1
 3496 035b 54       		.byte	0x54
 3497 035c 14000000 		.4byte	.LVL60
 3498 0360 16000000 		.4byte	.LFE11
 3499 0364 0300     		.2byte	0x3
 3500 0366 73       		.byte	0x73
 3501 0367 7F       		.sleb128 -1
 3502 0368 9F       		.byte	0x9f
 3503 0369 00000000 		.4byte	0
 3504 036d 00000000 		.4byte	0
 3505              	.LLST18:
 3506 0371 00000000 		.4byte	.LVL62
 3507 0375 22000000 		.4byte	.LVL68
 3508 0379 0100     		.2byte	0x1
 3509 037b 50       		.byte	0x50
 3510 037c 22000000 		.4byte	.LVL68
 3511 0380 40000000 		.4byte	.LFE13
 3512 0384 0400     		.2byte	0x4
 3513 0386 F3       		.byte	0xf3
 3514 0387 01       		.uleb128 0x1
 3515 0388 50       		.byte	0x50
 3516 0389 9F       		.byte	0x9f
 3517 038a 00000000 		.4byte	0
 3518 038e 00000000 		.4byte	0
 3519              	.LLST19:
 3520 0392 00000000 		.4byte	.LVL62
 3521 0396 0A000000 		.4byte	.LVL64
 3522 039a 0100     		.2byte	0x1
 3523 039c 51       		.byte	0x51
 3524 039d 0A000000 		.4byte	.LVL64
 3525 03a1 2E000000 		.4byte	.LVL69
 3526 03a5 0100     		.2byte	0x1
 3527 03a7 53       		.byte	0x53
 3528 03a8 2E000000 		.4byte	.LVL69
 3529 03ac 40000000 		.4byte	.LFE13
 3530 03b0 0400     		.2byte	0x4
 3531 03b2 F3       		.byte	0xf3
ARM GAS  C:\Users\dell\AppData\Local\Temp\ccWEiAI7.s 			page 98


 3532 03b3 01       		.uleb128 0x1
 3533 03b4 51       		.byte	0x51
 3534 03b5 9F       		.byte	0x9f
 3535 03b6 00000000 		.4byte	0
 3536 03ba 00000000 		.4byte	0
 3537              	.LLST20:
 3538 03be 04000000 		.4byte	.LVL63
 3539 03c2 0E000000 		.4byte	.LVL65
 3540 03c6 0200     		.2byte	0x2
 3541 03c8 30       		.byte	0x30
 3542 03c9 9F       		.byte	0x9f
 3543 03ca 0E000000 		.4byte	.LVL65
 3544 03ce 1A000000 		.4byte	.LVL66
 3545 03d2 0200     		.2byte	0x2
 3546 03d4 74       		.byte	0x74
 3547 03d5 08       		.sleb128 8
 3548 03d6 1A000000 		.4byte	.LVL66
 3549 03da 37000000 		.4byte	.LVL71-1
 3550 03de 0100     		.2byte	0x1
 3551 03e0 51       		.byte	0x51
 3552 03e1 37000000 		.4byte	.LVL71-1
 3553 03e5 38000000 		.4byte	.LVL73
 3554 03e9 1E00     		.2byte	0x1e
 3555 03eb F3       		.byte	0xf3
 3556 03ec 01       		.uleb128 0x1
 3557 03ed 51       		.byte	0x51
 3558 03ee 32       		.byte	0x32
 3559 03ef 24       		.byte	0x24
 3560 03f0 F3       		.byte	0xf3
 3561 03f1 01       		.uleb128 0x1
 3562 03f2 51       		.byte	0x51
 3563 03f3 22       		.byte	0x22
 3564 03f4 31       		.byte	0x31
 3565 03f5 24       		.byte	0x24
 3566 03f6 F3       		.byte	0xf3
 3567 03f7 01       		.uleb128 0x1
 3568 03f8 50       		.byte	0x50
 3569 03f9 33       		.byte	0x33
 3570 03fa 24       		.byte	0x24
 3571 03fb F3       		.byte	0xf3
 3572 03fc 01       		.uleb128 0x1
 3573 03fd 50       		.byte	0x50
 3574 03fe 1C       		.byte	0x1c
 3575 03ff 32       		.byte	0x32
 3576 0400 24       		.byte	0x24
 3577 0401 77       		.byte	0x77
 3578 0402 00       		.sleb128 0
 3579 0403 22       		.byte	0x22
 3580 0404 23       		.byte	0x23
 3581 0405 08       		.uleb128 0x8
 3582 0406 06       		.byte	0x6
 3583 0407 22       		.byte	0x22
 3584 0408 9F       		.byte	0x9f
 3585 0409 00000000 		.4byte	0
 3586 040d 00000000 		.4byte	0
 3587              	.LLST21:
 3588 0411 32000000 		.4byte	.LVL70
ARM GAS  C:\Users\dell\AppData\Local\Temp\ccWEiAI7.s 			page 99


 3589 0415 38000000 		.4byte	.LVL72
 3590 0419 0100     		.2byte	0x1
 3591 041b 54       		.byte	0x54
 3592 041c 00000000 		.4byte	0
 3593 0420 00000000 		.4byte	0
 3594              	.LLST22:
 3595 0424 02000000 		.4byte	.LVL75
 3596 0428 06000000 		.4byte	.LVL76
 3597 042c 0200     		.2byte	0x2
 3598 042e 31       		.byte	0x31
 3599 042f 9F       		.byte	0x9f
 3600 0430 06000000 		.4byte	.LVL76
 3601 0434 48000000 		.4byte	.LVL79
 3602 0438 0100     		.2byte	0x1
 3603 043a 53       		.byte	0x53
 3604 043b 48000000 		.4byte	.LVL79
 3605 043f 4A000000 		.4byte	.LVL80
 3606 0443 0100     		.2byte	0x1
 3607 0445 54       		.byte	0x54
 3608 0446 4A000000 		.4byte	.LVL80
 3609 044a 50000000 		.4byte	.LFE16
 3610 044e 0100     		.2byte	0x1
 3611 0450 53       		.byte	0x53
 3612 0451 00000000 		.4byte	0
 3613 0455 00000000 		.4byte	0
 3614              	.LLST23:
 3615 0459 2C000000 		.4byte	.LVL77
 3616 045d 46000000 		.4byte	.LVL78
 3617 0461 0100     		.2byte	0x1
 3618 0463 56       		.byte	0x56
 3619 0464 00000000 		.4byte	0
 3620 0468 00000000 		.4byte	0
 3621              	.LLST24:
 3622 046c 00000000 		.4byte	.LVL81
 3623 0470 22000000 		.4byte	.LVL87
 3624 0474 0100     		.2byte	0x1
 3625 0476 50       		.byte	0x50
 3626 0477 22000000 		.4byte	.LVL87
 3627 047b 40000000 		.4byte	.LFE14
 3628 047f 0400     		.2byte	0x4
 3629 0481 F3       		.byte	0xf3
 3630 0482 01       		.uleb128 0x1
 3631 0483 50       		.byte	0x50
 3632 0484 9F       		.byte	0x9f
 3633 0485 00000000 		.4byte	0
 3634 0489 00000000 		.4byte	0
 3635              	.LLST25:
 3636 048d 00000000 		.4byte	.LVL81
 3637 0491 0A000000 		.4byte	.LVL83
 3638 0495 0100     		.2byte	0x1
 3639 0497 51       		.byte	0x51
 3640 0498 0A000000 		.4byte	.LVL83
 3641 049c 2E000000 		.4byte	.LVL88
 3642 04a0 0100     		.2byte	0x1
 3643 04a2 53       		.byte	0x53
 3644 04a3 2E000000 		.4byte	.LVL88
 3645 04a7 40000000 		.4byte	.LFE14
ARM GAS  C:\Users\dell\AppData\Local\Temp\ccWEiAI7.s 			page 100


 3646 04ab 0400     		.2byte	0x4
 3647 04ad F3       		.byte	0xf3
 3648 04ae 01       		.uleb128 0x1
 3649 04af 51       		.byte	0x51
 3650 04b0 9F       		.byte	0x9f
 3651 04b1 00000000 		.4byte	0
 3652 04b5 00000000 		.4byte	0
 3653              	.LLST26:
 3654 04b9 04000000 		.4byte	.LVL82
 3655 04bd 0E000000 		.4byte	.LVL84
 3656 04c1 0200     		.2byte	0x2
 3657 04c3 30       		.byte	0x30
 3658 04c4 9F       		.byte	0x9f
 3659 04c5 0E000000 		.4byte	.LVL84
 3660 04c9 1A000000 		.4byte	.LVL85
 3661 04cd 0200     		.2byte	0x2
 3662 04cf 74       		.byte	0x74
 3663 04d0 08       		.sleb128 8
 3664 04d1 1A000000 		.4byte	.LVL85
 3665 04d5 37000000 		.4byte	.LVL90-1
 3666 04d9 0100     		.2byte	0x1
 3667 04db 51       		.byte	0x51
 3668 04dc 37000000 		.4byte	.LVL90-1
 3669 04e0 38000000 		.4byte	.LVL92
 3670 04e4 1E00     		.2byte	0x1e
 3671 04e6 F3       		.byte	0xf3
 3672 04e7 01       		.uleb128 0x1
 3673 04e8 51       		.byte	0x51
 3674 04e9 32       		.byte	0x32
 3675 04ea 24       		.byte	0x24
 3676 04eb F3       		.byte	0xf3
 3677 04ec 01       		.uleb128 0x1
 3678 04ed 51       		.byte	0x51
 3679 04ee 22       		.byte	0x22
 3680 04ef 31       		.byte	0x31
 3681 04f0 24       		.byte	0x24
 3682 04f1 F3       		.byte	0xf3
 3683 04f2 01       		.uleb128 0x1
 3684 04f3 50       		.byte	0x50
 3685 04f4 33       		.byte	0x33
 3686 04f5 24       		.byte	0x24
 3687 04f6 F3       		.byte	0xf3
 3688 04f7 01       		.uleb128 0x1
 3689 04f8 50       		.byte	0x50
 3690 04f9 1C       		.byte	0x1c
 3691 04fa 32       		.byte	0x32
 3692 04fb 24       		.byte	0x24
 3693 04fc 77       		.byte	0x77
 3694 04fd 00       		.sleb128 0
 3695 04fe 22       		.byte	0x22
 3696 04ff 23       		.byte	0x23
 3697 0500 08       		.uleb128 0x8
 3698 0501 06       		.byte	0x6
 3699 0502 22       		.byte	0x22
 3700 0503 9F       		.byte	0x9f
 3701 0504 00000000 		.4byte	0
 3702 0508 00000000 		.4byte	0
ARM GAS  C:\Users\dell\AppData\Local\Temp\ccWEiAI7.s 			page 101


 3703              	.LLST27:
 3704 050c 32000000 		.4byte	.LVL89
 3705 0510 38000000 		.4byte	.LVL91
 3706 0514 0100     		.2byte	0x1
 3707 0516 54       		.byte	0x54
 3708 0517 00000000 		.4byte	0
 3709 051b 00000000 		.4byte	0
 3710              	.LLST28:
 3711 051f 00000000 		.4byte	.LVL93
 3712 0523 05000000 		.4byte	.LVL94-1
 3713 0527 0100     		.2byte	0x1
 3714 0529 50       		.byte	0x50
 3715 052a 00000000 		.4byte	0
 3716 052e 00000000 		.4byte	0
 3717              	.LLST29:
 3718 0532 00000000 		.4byte	.LVL93
 3719 0536 05000000 		.4byte	.LVL94-1
 3720 053a 0100     		.2byte	0x1
 3721 053c 51       		.byte	0x51
 3722 053d 05000000 		.4byte	.LVL94-1
 3723 0541 08000000 		.4byte	.LFE18
 3724 0545 0400     		.2byte	0x4
 3725 0547 F3       		.byte	0xf3
 3726 0548 01       		.uleb128 0x1
 3727 0549 51       		.byte	0x51
 3728 054a 9F       		.byte	0x9f
 3729 054b 00000000 		.4byte	0
 3730 054f 00000000 		.4byte	0
 3731              	.LLST30:
 3732 0553 00000000 		.4byte	.LVL93
 3733 0557 05000000 		.4byte	.LVL94-1
 3734 055b 0100     		.2byte	0x1
 3735 055d 52       		.byte	0x52
 3736 055e 05000000 		.4byte	.LVL94-1
 3737 0562 08000000 		.4byte	.LFE18
 3738 0566 0400     		.2byte	0x4
 3739 0568 F3       		.byte	0xf3
 3740 0569 01       		.uleb128 0x1
 3741 056a 52       		.byte	0x52
 3742 056b 9F       		.byte	0x9f
 3743 056c 00000000 		.4byte	0
 3744 0570 00000000 		.4byte	0
 3745              	.LLST31:
 3746 0574 00000000 		.4byte	.LVL95
 3747 0578 22000000 		.4byte	.LVL101
 3748 057c 0100     		.2byte	0x1
 3749 057e 50       		.byte	0x50
 3750 057f 22000000 		.4byte	.LVL101
 3751 0583 40000000 		.4byte	.LFE17
 3752 0587 0400     		.2byte	0x4
 3753 0589 F3       		.byte	0xf3
 3754 058a 01       		.uleb128 0x1
 3755 058b 50       		.byte	0x50
 3756 058c 9F       		.byte	0x9f
 3757 058d 00000000 		.4byte	0
 3758 0591 00000000 		.4byte	0
 3759              	.LLST32:
ARM GAS  C:\Users\dell\AppData\Local\Temp\ccWEiAI7.s 			page 102


 3760 0595 00000000 		.4byte	.LVL95
 3761 0599 0A000000 		.4byte	.LVL97
 3762 059d 0100     		.2byte	0x1
 3763 059f 51       		.byte	0x51
 3764 05a0 0A000000 		.4byte	.LVL97
 3765 05a4 2E000000 		.4byte	.LVL102
 3766 05a8 0100     		.2byte	0x1
 3767 05aa 53       		.byte	0x53
 3768 05ab 2E000000 		.4byte	.LVL102
 3769 05af 40000000 		.4byte	.LFE17
 3770 05b3 0400     		.2byte	0x4
 3771 05b5 F3       		.byte	0xf3
 3772 05b6 01       		.uleb128 0x1
 3773 05b7 51       		.byte	0x51
 3774 05b8 9F       		.byte	0x9f
 3775 05b9 00000000 		.4byte	0
 3776 05bd 00000000 		.4byte	0
 3777              	.LLST33:
 3778 05c1 04000000 		.4byte	.LVL96
 3779 05c5 0E000000 		.4byte	.LVL98
 3780 05c9 0200     		.2byte	0x2
 3781 05cb 30       		.byte	0x30
 3782 05cc 9F       		.byte	0x9f
 3783 05cd 0E000000 		.4byte	.LVL98
 3784 05d1 1A000000 		.4byte	.LVL99
 3785 05d5 0200     		.2byte	0x2
 3786 05d7 74       		.byte	0x74
 3787 05d8 08       		.sleb128 8
 3788 05d9 1A000000 		.4byte	.LVL99
 3789 05dd 37000000 		.4byte	.LVL104-1
 3790 05e1 0100     		.2byte	0x1
 3791 05e3 51       		.byte	0x51
 3792 05e4 37000000 		.4byte	.LVL104-1
 3793 05e8 38000000 		.4byte	.LVL106
 3794 05ec 1E00     		.2byte	0x1e
 3795 05ee F3       		.byte	0xf3
 3796 05ef 01       		.uleb128 0x1
 3797 05f0 51       		.byte	0x51
 3798 05f1 32       		.byte	0x32
 3799 05f2 24       		.byte	0x24
 3800 05f3 F3       		.byte	0xf3
 3801 05f4 01       		.uleb128 0x1
 3802 05f5 51       		.byte	0x51
 3803 05f6 22       		.byte	0x22
 3804 05f7 31       		.byte	0x31
 3805 05f8 24       		.byte	0x24
 3806 05f9 F3       		.byte	0xf3
 3807 05fa 01       		.uleb128 0x1
 3808 05fb 50       		.byte	0x50
 3809 05fc 33       		.byte	0x33
 3810 05fd 24       		.byte	0x24
 3811 05fe F3       		.byte	0xf3
 3812 05ff 01       		.uleb128 0x1
 3813 0600 50       		.byte	0x50
 3814 0601 1C       		.byte	0x1c
 3815 0602 32       		.byte	0x32
 3816 0603 24       		.byte	0x24
ARM GAS  C:\Users\dell\AppData\Local\Temp\ccWEiAI7.s 			page 103


 3817 0604 77       		.byte	0x77
 3818 0605 00       		.sleb128 0
 3819 0606 22       		.byte	0x22
 3820 0607 23       		.byte	0x23
 3821 0608 08       		.uleb128 0x8
 3822 0609 06       		.byte	0x6
 3823 060a 22       		.byte	0x22
 3824 060b 9F       		.byte	0x9f
 3825 060c 00000000 		.4byte	0
 3826 0610 00000000 		.4byte	0
 3827              	.LLST34:
 3828 0614 32000000 		.4byte	.LVL103
 3829 0618 38000000 		.4byte	.LVL105
 3830 061c 0100     		.2byte	0x1
 3831 061e 54       		.byte	0x54
 3832 061f 00000000 		.4byte	0
 3833 0623 00000000 		.4byte	0
 3834              	.LLST35:
 3835 0627 00000000 		.4byte	.LVL107
 3836 062b 02000000 		.4byte	.LVL108
 3837 062f 0100     		.2byte	0x1
 3838 0631 50       		.byte	0x50
 3839 0632 02000000 		.4byte	.LVL108
 3840 0636 12000000 		.4byte	.LFE19
 3841 063a 0400     		.2byte	0x4
 3842 063c F3       		.byte	0xf3
 3843 063d 01       		.uleb128 0x1
 3844 063e 50       		.byte	0x50
 3845 063f 9F       		.byte	0x9f
 3846 0640 00000000 		.4byte	0
 3847 0644 00000000 		.4byte	0
 3848              	.LLST36:
 3849 0648 00000000 		.4byte	.LVL107
 3850 064c 0C000000 		.4byte	.LVL111
 3851 0650 0100     		.2byte	0x1
 3852 0652 51       		.byte	0x51
 3853 0653 0C000000 		.4byte	.LVL111
 3854 0657 12000000 		.4byte	.LFE19
 3855 065b 0400     		.2byte	0x4
 3856 065d F3       		.byte	0xf3
 3857 065e 01       		.uleb128 0x1
 3858 065f 51       		.byte	0x51
 3859 0660 9F       		.byte	0x9f
 3860 0661 00000000 		.4byte	0
 3861 0665 00000000 		.4byte	0
 3862              	.LLST37:
 3863 0669 00000000 		.4byte	.LVL107
 3864 066d 0A000000 		.4byte	.LVL110
 3865 0671 0100     		.2byte	0x1
 3866 0673 52       		.byte	0x52
 3867 0674 0A000000 		.4byte	.LVL110
 3868 0678 12000000 		.4byte	.LFE19
 3869 067c 0400     		.2byte	0x4
 3870 067e F3       		.byte	0xf3
 3871 067f 01       		.uleb128 0x1
 3872 0680 52       		.byte	0x52
 3873 0681 9F       		.byte	0x9f
ARM GAS  C:\Users\dell\AppData\Local\Temp\ccWEiAI7.s 			page 104


 3874 0682 00000000 		.4byte	0
 3875 0686 00000000 		.4byte	0
 3876              	.LLST38:
 3877 068a 00000000 		.4byte	.LVL107
 3878 068e 06000000 		.4byte	.LVL109
 3879 0692 0100     		.2byte	0x1
 3880 0694 53       		.byte	0x53
 3881 0695 06000000 		.4byte	.LVL109
 3882 0699 12000000 		.4byte	.LFE19
 3883 069d 0400     		.2byte	0x4
 3884 069f F3       		.byte	0xf3
 3885 06a0 01       		.uleb128 0x1
 3886 06a1 53       		.byte	0x53
 3887 06a2 9F       		.byte	0x9f
 3888 06a3 00000000 		.4byte	0
 3889 06a7 00000000 		.4byte	0
 3890              	.LLST39:
 3891 06ab 00000000 		.4byte	.LVL113
 3892 06af 12000000 		.4byte	.LVL115
 3893 06b3 0100     		.2byte	0x1
 3894 06b5 50       		.byte	0x50
 3895 06b6 12000000 		.4byte	.LVL115
 3896 06ba 9A000000 		.4byte	.LVL134
 3897 06be 0100     		.2byte	0x1
 3898 06c0 57       		.byte	0x57
 3899 06c1 9A000000 		.4byte	.LVL134
 3900 06c5 A0000000 		.4byte	.LFE5
 3901 06c9 0400     		.2byte	0x4
 3902 06cb F3       		.byte	0xf3
 3903 06cc 01       		.uleb128 0x1
 3904 06cd 50       		.byte	0x50
 3905 06ce 9F       		.byte	0x9f
 3906 06cf 00000000 		.4byte	0
 3907 06d3 00000000 		.4byte	0
 3908              	.LLST40:
 3909 06d7 00000000 		.4byte	.LVL113
 3910 06db 12000000 		.4byte	.LVL115
 3911 06df 0100     		.2byte	0x1
 3912 06e1 51       		.byte	0x51
 3913 06e2 12000000 		.4byte	.LVL115
 3914 06e6 9A000000 		.4byte	.LVL133
 3915 06ea 0100     		.2byte	0x1
 3916 06ec 56       		.byte	0x56
 3917 06ed 9A000000 		.4byte	.LVL133
 3918 06f1 A0000000 		.4byte	.LFE5
 3919 06f5 0400     		.2byte	0x4
 3920 06f7 F3       		.byte	0xf3
 3921 06f8 01       		.uleb128 0x1
 3922 06f9 51       		.byte	0x51
 3923 06fa 9F       		.byte	0x9f
 3924 06fb 00000000 		.4byte	0
 3925 06ff 00000000 		.4byte	0
 3926              	.LLST41:
 3927 0703 00000000 		.4byte	.LVL113
 3928 0707 12000000 		.4byte	.LVL115
 3929 070b 0100     		.2byte	0x1
 3930 070d 52       		.byte	0x52
ARM GAS  C:\Users\dell\AppData\Local\Temp\ccWEiAI7.s 			page 105


 3931 070e 12000000 		.4byte	.LVL115
 3932 0712 A0000000 		.4byte	.LFE5
 3933 0716 0200     		.2byte	0x2
 3934 0718 91       		.byte	0x91
 3935 0719 64       		.sleb128 -28
 3936 071a 00000000 		.4byte	0
 3937 071e 00000000 		.4byte	0
 3938              	.LLST42:
 3939 0722 20000000 		.4byte	.LVL116
 3940 0726 2A000000 		.4byte	.LVL117
 3941 072a 0200     		.2byte	0x2
 3942 072c 31       		.byte	0x31
 3943 072d 9F       		.byte	0x9f
 3944 072e 2C000000 		.4byte	.LVL118
 3945 0732 2E000000 		.4byte	.LVL119
 3946 0736 0200     		.2byte	0x2
 3947 0738 30       		.byte	0x30
 3948 0739 9F       		.byte	0x9f
 3949 073a 2E000000 		.4byte	.LVL119
 3950 073e 3E000000 		.4byte	.LVL121
 3951 0742 0100     		.2byte	0x1
 3952 0744 52       		.byte	0x52
 3953 0745 56000000 		.4byte	.LVL123
 3954 0749 6A000000 		.4byte	.LVL125
 3955 074d 0100     		.2byte	0x1
 3956 074f 52       		.byte	0x52
 3957 0750 00000000 		.4byte	0
 3958 0754 00000000 		.4byte	0
 3959              	.LLST43:
 3960 0758 20000000 		.4byte	.LVL116
 3961 075c 2A000000 		.4byte	.LVL117
 3962 0760 0100     		.2byte	0x1
 3963 0762 53       		.byte	0x53
 3964 0763 2C000000 		.4byte	.LVL118
 3965 0767 3A000000 		.4byte	.LVL120
 3966 076b 0100     		.2byte	0x1
 3967 076d 53       		.byte	0x53
 3968 076e 56000000 		.4byte	.LVL123
 3969 0772 68000000 		.4byte	.LVL124
 3970 0776 0100     		.2byte	0x1
 3971 0778 53       		.byte	0x53
 3972 0779 00000000 		.4byte	0
 3973 077d 00000000 		.4byte	0
 3974              	.LLST44:
 3975 0781 0E000000 		.4byte	.LVL114
 3976 0785 12000000 		.4byte	.LVL115
 3977 0789 0200     		.2byte	0x2
 3978 078b 31       		.byte	0x31
 3979 078c 9F       		.byte	0x9f
 3980 078d 12000000 		.4byte	.LVL115
 3981 0791 90000000 		.4byte	.LVL130
 3982 0795 0100     		.2byte	0x1
 3983 0797 54       		.byte	0x54
 3984 0798 90000000 		.4byte	.LVL130
 3985 079c 92000000 		.4byte	.LVL131
 3986 07a0 0100     		.2byte	0x1
 3987 07a2 53       		.byte	0x53
ARM GAS  C:\Users\dell\AppData\Local\Temp\ccWEiAI7.s 			page 106


 3988 07a3 92000000 		.4byte	.LVL131
 3989 07a7 9A000000 		.4byte	.LVL132
 3990 07ab 0100     		.2byte	0x1
 3991 07ad 54       		.byte	0x54
 3992 07ae 9A000000 		.4byte	.LVL132
 3993 07b2 A0000000 		.4byte	.LFE5
 3994 07b6 0300     		.2byte	0x3
 3995 07b8 73       		.byte	0x73
 3996 07b9 7F       		.sleb128 -1
 3997 07ba 9F       		.byte	0x9f
 3998 07bb 00000000 		.4byte	0
 3999 07bf 00000000 		.4byte	0
 4000              	.LLST45:
 4001 07c3 7A000000 		.4byte	.LVL127
 4002 07c7 8E000000 		.4byte	.LVL129
 4003 07cb 0200     		.2byte	0x2
 4004 07cd 31       		.byte	0x31
 4005 07ce 9F       		.byte	0x9f
 4006 07cf 00000000 		.4byte	0
 4007 07d3 00000000 		.4byte	0
 4008              	.LLST46:
 4009 07d7 72000000 		.4byte	.LVL126
 4010 07db 81000000 		.4byte	.LVL128-1
 4011 07df 0100     		.2byte	0x1
 4012 07e1 51       		.byte	0x51
 4013 07e2 82000000 		.4byte	.LVL128
 4014 07e6 8E000000 		.4byte	.LVL129
 4015 07ea 0100     		.2byte	0x1
 4016 07ec 50       		.byte	0x50
 4017 07ed 00000000 		.4byte	0
 4018 07f1 00000000 		.4byte	0
 4019              	.LLST47:
 4020 07f5 00000000 		.4byte	.LVL135
 4021 07f9 22000000 		.4byte	.LVL141
 4022 07fd 0100     		.2byte	0x1
 4023 07ff 50       		.byte	0x50
 4024 0800 22000000 		.4byte	.LVL141
 4025 0804 2C000000 		.4byte	.LFE4
 4026 0808 0400     		.2byte	0x4
 4027 080a F3       		.byte	0xf3
 4028 080b 01       		.uleb128 0x1
 4029 080c 50       		.byte	0x50
 4030 080d 9F       		.byte	0x9f
 4031 080e 00000000 		.4byte	0
 4032 0812 00000000 		.4byte	0
 4033              	.LLST48:
 4034 0816 00000000 		.4byte	.LVL135
 4035 081a 16000000 		.4byte	.LVL139
 4036 081e 0100     		.2byte	0x1
 4037 0820 51       		.byte	0x51
 4038 0821 16000000 		.4byte	.LVL139
 4039 0825 2C000000 		.4byte	.LFE4
 4040 0829 0400     		.2byte	0x4
 4041 082b F3       		.byte	0xf3
 4042 082c 01       		.uleb128 0x1
 4043 082d 51       		.byte	0x51
 4044 082e 9F       		.byte	0x9f
ARM GAS  C:\Users\dell\AppData\Local\Temp\ccWEiAI7.s 			page 107


 4045 082f 00000000 		.4byte	0
 4046 0833 00000000 		.4byte	0
 4047              	.LLST49:
 4048 0837 02000000 		.4byte	.LVL136
 4049 083b 26000000 		.4byte	.LVL142
 4050 083f 0200     		.2byte	0x2
 4051 0841 30       		.byte	0x30
 4052 0842 9F       		.byte	0x9f
 4053 0843 26000000 		.4byte	.LVL142
 4054 0847 2C000000 		.4byte	.LFE4
 4055 084b 0100     		.2byte	0x1
 4056 084d 50       		.byte	0x50
 4057 084e 00000000 		.4byte	0
 4058 0852 00000000 		.4byte	0
 4059              	.LLST50:
 4060 0856 02000000 		.4byte	.LVL136
 4061 085a 10000000 		.4byte	.LVL138
 4062 085e 0200     		.2byte	0x2
 4063 0860 30       		.byte	0x30
 4064 0861 9F       		.byte	0x9f
 4065 0862 10000000 		.4byte	.LVL138
 4066 0866 18000000 		.4byte	.LVL140
 4067 086a 0100     		.2byte	0x1
 4068 086c 56       		.byte	0x56
 4069 086d 18000000 		.4byte	.LVL140
 4070 0871 25000000 		.4byte	.LVL142-1
 4071 0875 0100     		.2byte	0x1
 4072 0877 51       		.byte	0x51
 4073 0878 25000000 		.4byte	.LVL142-1
 4074 087c 26000000 		.4byte	.LVL145
 4075 0880 0F00     		.2byte	0xf
 4076 0882 F3       		.byte	0xf3
 4077 0883 01       		.uleb128 0x1
 4078 0884 51       		.byte	0x51
 4079 0885 32       		.byte	0x32
 4080 0886 24       		.byte	0x24
 4081 0887 F3       		.byte	0xf3
 4082 0888 01       		.uleb128 0x1
 4083 0889 51       		.byte	0x51
 4084 088a 22       		.byte	0x22
 4085 088b 31       		.byte	0x31
 4086 088c 24       		.byte	0x24
 4087 088d 76       		.byte	0x76
 4088 088e 00       		.sleb128 0
 4089 088f 22       		.byte	0x22
 4090 0890 9F       		.byte	0x9f
 4091 0891 00000000 		.4byte	0
 4092 0895 00000000 		.4byte	0
 4093              	.LLST51:
 4094 0899 0E000000 		.4byte	.LVL137
 4095 089d 26000000 		.4byte	.LVL143
 4096 08a1 0100     		.2byte	0x1
 4097 08a3 54       		.byte	0x54
 4098 08a4 26000000 		.4byte	.LVL143
 4099 08a8 26000000 		.4byte	.LVL144
 4100 08ac 1000     		.2byte	0x10
 4101 08ae F3       		.byte	0xf3
ARM GAS  C:\Users\dell\AppData\Local\Temp\ccWEiAI7.s 			page 108


 4102 08af 01       		.uleb128 0x1
 4103 08b0 50       		.byte	0x50
 4104 08b1 33       		.byte	0x33
 4105 08b2 24       		.byte	0x24
 4106 08b3 F3       		.byte	0xf3
 4107 08b4 01       		.uleb128 0x1
 4108 08b5 50       		.byte	0x50
 4109 08b6 1C       		.byte	0x1c
 4110 08b7 32       		.byte	0x32
 4111 08b8 24       		.byte	0x24
 4112 08b9 75       		.byte	0x75
 4113 08ba 00       		.sleb128 0
 4114 08bb 22       		.byte	0x22
 4115 08bc 23       		.byte	0x23
 4116 08bd 04       		.uleb128 0x4
 4117 08be 00000000 		.4byte	0
 4118 08c2 00000000 		.4byte	0
 4119              	.LLST52:
 4120 08c6 00000000 		.4byte	.LVL146
 4121 08ca 14000000 		.4byte	.LVL149
 4122 08ce 0100     		.2byte	0x1
 4123 08d0 50       		.byte	0x50
 4124 08d1 14000000 		.4byte	.LVL149
 4125 08d5 28000000 		.4byte	.LVL156
 4126 08d9 0100     		.2byte	0x1
 4127 08db 56       		.byte	0x56
 4128 08dc 28000000 		.4byte	.LVL156
 4129 08e0 30000000 		.4byte	.LFE3
 4130 08e4 0400     		.2byte	0x4
 4131 08e6 F3       		.byte	0xf3
 4132 08e7 01       		.uleb128 0x1
 4133 08e8 50       		.byte	0x50
 4134 08e9 9F       		.byte	0x9f
 4135 08ea 00000000 		.4byte	0
 4136 08ee 00000000 		.4byte	0
 4137              	.LLST53:
 4138 08f2 10000000 		.4byte	.LVL148
 4139 08f6 14000000 		.4byte	.LVL149
 4140 08fa 0100     		.2byte	0x1
 4141 08fc 53       		.byte	0x53
 4142 08fd 14000000 		.4byte	.LVL149
 4143 0901 20000000 		.4byte	.LVL152
 4144 0905 0100     		.2byte	0x1
 4145 0907 54       		.byte	0x54
 4146 0908 20000000 		.4byte	.LVL152
 4147 090c 22000000 		.4byte	.LVL153
 4148 0910 0100     		.2byte	0x1
 4149 0912 53       		.byte	0x53
 4150 0913 22000000 		.4byte	.LVL153
 4151 0917 28000000 		.4byte	.LVL154
 4152 091b 0100     		.2byte	0x1
 4153 091d 54       		.byte	0x54
 4154 091e 28000000 		.4byte	.LVL154
 4155 0922 30000000 		.4byte	.LFE3
 4156 0926 0300     		.2byte	0x3
 4157 0928 73       		.byte	0x73
 4158 0929 7F       		.sleb128 -1
ARM GAS  C:\Users\dell\AppData\Local\Temp\ccWEiAI7.s 			page 109


 4159 092a 9F       		.byte	0x9f
 4160 092b 00000000 		.4byte	0
 4161 092f 00000000 		.4byte	0
 4162              	.LLST54:
 4163 0933 10000000 		.4byte	.LVL148
 4164 0937 14000000 		.4byte	.LVL149
 4165 093b 0100     		.2byte	0x1
 4166 093d 53       		.byte	0x53
 4167 093e 00000000 		.4byte	0
 4168 0942 00000000 		.4byte	0
 4169              	.LLST55:
 4170 0946 04000000 		.4byte	.LVL147
 4171 094a 14000000 		.4byte	.LVL149
 4172 094e 0200     		.2byte	0x2
 4173 0950 30       		.byte	0x30
 4174 0951 9F       		.byte	0x9f
 4175 0952 14000000 		.4byte	.LVL149
 4176 0956 28000000 		.4byte	.LVL155
 4177 095a 0100     		.2byte	0x1
 4178 095c 55       		.byte	0x55
 4179 095d 28000000 		.4byte	.LVL155
 4180 0961 30000000 		.4byte	.LFE3
 4181 0965 0100     		.2byte	0x1
 4182 0967 50       		.byte	0x50
 4183 0968 00000000 		.4byte	0
 4184 096c 00000000 		.4byte	0
 4185              	.LLST56:
 4186 0970 02000000 		.4byte	.LVL157
 4187 0974 08000000 		.4byte	.LVL158
 4188 0978 0200     		.2byte	0x2
 4189 097a 34       		.byte	0x34
 4190 097b 9F       		.byte	0x9f
 4191 097c 08000000 		.4byte	.LVL158
 4192 0980 12000000 		.4byte	.LVL161
 4193 0984 0100     		.2byte	0x1
 4194 0986 54       		.byte	0x54
 4195 0987 12000000 		.4byte	.LVL161
 4196 098b 14000000 		.4byte	.LVL162
 4197 098f 0100     		.2byte	0x1
 4198 0991 53       		.byte	0x53
 4199 0992 14000000 		.4byte	.LVL162
 4200 0996 1A000000 		.4byte	.LVL163
 4201 099a 0100     		.2byte	0x1
 4202 099c 54       		.byte	0x54
 4203 099d 1A000000 		.4byte	.LVL163
 4204 09a1 1C000000 		.4byte	.LFE2
 4205 09a5 0300     		.2byte	0x3
 4206 09a7 73       		.byte	0x73
 4207 09a8 7F       		.sleb128 -1
 4208 09a9 9F       		.byte	0x9f
 4209 09aa 00000000 		.4byte	0
 4210 09ae 00000000 		.4byte	0
 4211              	.LLST57:
 4212 09b2 02000000 		.4byte	.LVL157
 4213 09b6 08000000 		.4byte	.LVL158
 4214 09ba 0200     		.2byte	0x2
 4215 09bc 30       		.byte	0x30
ARM GAS  C:\Users\dell\AppData\Local\Temp\ccWEiAI7.s 			page 110


 4216 09bd 9F       		.byte	0x9f
 4217 09be 08000000 		.4byte	.LVL158
 4218 09c2 1A000000 		.4byte	.LVL164
 4219 09c6 0100     		.2byte	0x1
 4220 09c8 55       		.byte	0x55
 4221 09c9 1A000000 		.4byte	.LVL164
 4222 09cd 1C000000 		.4byte	.LFE2
 4223 09d1 0100     		.2byte	0x1
 4224 09d3 50       		.byte	0x50
 4225 09d4 00000000 		.4byte	0
 4226 09d8 00000000 		.4byte	0
 4227              		.section	.debug_aranges,"",%progbits
 4228 0000 AC000000 		.4byte	0xac
 4229 0004 0200     		.2byte	0x2
 4230 0006 00000000 		.4byte	.Ldebug_info0
 4231 000a 04       		.byte	0x4
 4232 000b 00       		.byte	0
 4233 000c 0000     		.2byte	0
 4234 000e 0000     		.2byte	0
 4235 0010 00000000 		.4byte	.LFB10
 4236 0014 1E000000 		.4byte	.LFE10-.LFB10
 4237 0018 00000000 		.4byte	.LFB9
 4238 001c 1E000000 		.4byte	.LFE9-.LFB9
 4239 0020 00000000 		.4byte	.LFB8
 4240 0024 2C000000 		.4byte	.LFE8-.LFB8
 4241 0028 00000000 		.4byte	.LFB7
 4242 002c 28000000 		.4byte	.LFE7-.LFB7
 4243 0030 00000000 		.4byte	.LFB6
 4244 0034 16000000 		.4byte	.LFE6-.LFB6
 4245 0038 00000000 		.4byte	.LFB15
 4246 003c 2C000000 		.4byte	.LFE15-.LFB15
 4247 0040 00000000 		.4byte	.LFB12
 4248 0044 4C000000 		.4byte	.LFE12-.LFB12
 4249 0048 00000000 		.4byte	.LFB11
 4250 004c 16000000 		.4byte	.LFE11-.LFB11
 4251 0050 00000000 		.4byte	.LFB1
 4252 0054 08000000 		.4byte	.LFE1-.LFB1
 4253 0058 00000000 		.4byte	.LFB13
 4254 005c 40000000 		.4byte	.LFE13-.LFB13
 4255 0060 00000000 		.4byte	.LFB16
 4256 0064 50000000 		.4byte	.LFE16-.LFB16
 4257 0068 00000000 		.4byte	.LFB14
 4258 006c 40000000 		.4byte	.LFE14-.LFB14
 4259 0070 00000000 		.4byte	.LFB18
 4260 0074 08000000 		.4byte	.LFE18-.LFB18
 4261 0078 00000000 		.4byte	.LFB17
 4262 007c 40000000 		.4byte	.LFE17-.LFB17
 4263 0080 00000000 		.4byte	.LFB19
 4264 0084 12000000 		.4byte	.LFE19-.LFB19
 4265 0088 00000000 		.4byte	.LFB5
 4266 008c A0000000 		.4byte	.LFE5-.LFB5
 4267 0090 00000000 		.4byte	.LFB4
 4268 0094 2C000000 		.4byte	.LFE4-.LFB4
 4269 0098 00000000 		.4byte	.LFB3
 4270 009c 30000000 		.4byte	.LFE3-.LFB3
 4271 00a0 00000000 		.4byte	.LFB2
 4272 00a4 1C000000 		.4byte	.LFE2-.LFB2
ARM GAS  C:\Users\dell\AppData\Local\Temp\ccWEiAI7.s 			page 111


 4273 00a8 00000000 		.4byte	0
 4274 00ac 00000000 		.4byte	0
 4275              		.section	.debug_ranges,"",%progbits
 4276              	.Ldebug_ranges0:
 4277 0000 00000000 		.4byte	.LFB10
 4278 0004 1E000000 		.4byte	.LFE10
 4279 0008 00000000 		.4byte	.LFB9
 4280 000c 1E000000 		.4byte	.LFE9
 4281 0010 00000000 		.4byte	.LFB8
 4282 0014 2C000000 		.4byte	.LFE8
 4283 0018 00000000 		.4byte	.LFB7
 4284 001c 28000000 		.4byte	.LFE7
 4285 0020 00000000 		.4byte	.LFB6
 4286 0024 16000000 		.4byte	.LFE6
 4287 0028 00000000 		.4byte	.LFB15
 4288 002c 2C000000 		.4byte	.LFE15
 4289 0030 00000000 		.4byte	.LFB12
 4290 0034 4C000000 		.4byte	.LFE12
 4291 0038 00000000 		.4byte	.LFB11
 4292 003c 16000000 		.4byte	.LFE11
 4293 0040 00000000 		.4byte	.LFB1
 4294 0044 08000000 		.4byte	.LFE1
 4295 0048 00000000 		.4byte	.LFB13
 4296 004c 40000000 		.4byte	.LFE13
 4297 0050 00000000 		.4byte	.LFB16
 4298 0054 50000000 		.4byte	.LFE16
 4299 0058 00000000 		.4byte	.LFB14
 4300 005c 40000000 		.4byte	.LFE14
 4301 0060 00000000 		.4byte	.LFB18
 4302 0064 08000000 		.4byte	.LFE18
 4303 0068 00000000 		.4byte	.LFB17
 4304 006c 40000000 		.4byte	.LFE17
 4305 0070 00000000 		.4byte	.LFB19
 4306 0074 12000000 		.4byte	.LFE19
 4307 0078 00000000 		.4byte	.LFB5
 4308 007c A0000000 		.4byte	.LFE5
 4309 0080 00000000 		.4byte	.LFB4
 4310 0084 2C000000 		.4byte	.LFE4
 4311 0088 00000000 		.4byte	.LFB3
 4312 008c 30000000 		.4byte	.LFE3
 4313 0090 00000000 		.4byte	.LFB2
 4314 0094 1C000000 		.4byte	.LFE2
 4315 0098 00000000 		.4byte	0
 4316 009c 00000000 		.4byte	0
 4317              		.section	.debug_line,"",%progbits
 4318              	.Ldebug_line0:
 4319 0000 B5020000 		.section	.debug_str,"MS",%progbits,1
 4319      02008000 
 4319      00000201 
 4319      FB0E0D00 
 4319      01010101 
 4320              	.LASF55:
 4321 0000 43617053 		.ascii	"CapSense_FLASH_STRUCT\000"
 4321      656E7365 
 4321      5F464C41 
 4321      53485F53 
 4321      54525543 
ARM GAS  C:\Users\dell\AppData\Local\Temp\ccWEiAI7.s 			page 112


 4322              	.LASF97:
 4323 0016 72657375 		.ascii	"result\000"
 4323      6C7400
 4324              	.LASF38:
 4325 001d 62736C6E 		.ascii	"bsln\000"
 4325      00
 4326              	.LASF69:
 4327 0022 73656E73 		.ascii	"sensorId\000"
 4327      6F724964 
 4327      00
 4328              	.LASF75:
 4329 002b 43617053 		.ascii	"CapSense_InitializeAverageInternal\000"
 4329      656E7365 
 4329      5F496E69 
 4329      7469616C 
 4329      697A6541 
 4330              	.LASF101:
 4331 004e 62736C6E 		.ascii	"bslnStatus\000"
 4331      53746174 
 4331      757300
 4332              	.LASF33:
 4333 0059 6C6F7742 		.ascii	"lowBslnRst\000"
 4333      736C6E52 
 4333      737400
 4334              	.LASF40:
 4335 0064 64696666 		.ascii	"diff\000"
 4335      00
 4336              	.LASF50:
 4337 0069 746F7461 		.ascii	"totalNumSns\000"
 4337      6C4E756D 
 4337      536E7300 
 4338              	.LASF74:
 4339 0075 43617053 		.ascii	"CapSense_InitializeAllBaselines\000"
 4339      656E7365 
 4339      5F496E69 
 4339      7469616C 
 4339      697A6541 
 4340              	.LASF34:
 4341 0095 69646163 		.ascii	"idacMod\000"
 4341      4D6F6400 
 4342              	.LASF76:
 4343 009d 70747246 		.ascii	"ptrFilterHistObj\000"
 4343      696C7465 
 4343      72486973 
 4343      744F626A 
 4343      00
 4344              	.LASF83:
 4345 00ae 74656D70 		.ascii	"temp\000"
 4345      00
 4346              	.LASF2:
 4347 00b3 73686F72 		.ascii	"short int\000"
 4347      7420696E 
 4347      7400
 4348              	.LASF87:
 4349 00bd 696E7075 		.ascii	"input\000"
 4349      7400
 4350              	.LASF102:
ARM GAS  C:\Users\dell\AppData\Local\Temp\ccWEiAI7.s 			page 113


 4351 00c3 43617053 		.ascii	"CapSense_UpdateAllBaselines\000"
 4351      656E7365 
 4351      5F557064 
 4351      61746541 
 4351      6C6C4261 
 4352              	.LASF24:
 4353 00df 43617053 		.ascii	"CapSense_WD_TOUCHPAD_E\000"
 4353      656E7365 
 4353      5F57445F 
 4353      544F5543 
 4353      48504144 
 4354              	.LASF53:
 4355 00f6 43617053 		.ascii	"CapSense_FLASH_WD_STRUCT\000"
 4355      656E7365 
 4355      5F464C41 
 4355      53485F57 
 4355      445F5354 
 4356              	.LASF95:
 4357 010f 64696666 		.ascii	"difference\000"
 4357      6572656E 
 4357      636500
 4358              	.LASF103:
 4359 011a 474E5520 		.ascii	"GNU C11 5.4.1 20160609 (release) [ARM/embedded-5-br"
 4359      43313120 
 4359      352E342E 
 4359      31203230 
 4359      31363036 
 4360 014d 616E6368 		.ascii	"anch revision 237715] -mcpu=cortex-m0plus -mthumb -"
 4360      20726576 
 4360      6973696F 
 4360      6E203233 
 4360      37373135 
 4361 0180 67202D4F 		.ascii	"g -Og -ffunction-sections -ffat-lto-objects\000"
 4361      67202D66 
 4361      66756E63 
 4361      74696F6E 
 4361      2D736563 
 4362              	.LASF42:
 4363 01ac 69646163 		.ascii	"idacComp\000"
 4363      436F6D70 
 4363      00
 4364              	.LASF81:
 4365 01b5 43617053 		.ascii	"CapSense_InitializeAverage\000"
 4365      656E7365 
 4365      5F496E69 
 4365      7469616C 
 4365      697A6541 
 4366              	.LASF98:
 4367 01d0 68697374 		.ascii	"history\000"
 4367      6F727900 
 4368              	.LASF36:
 4369 01d8 736E7343 		.ascii	"snsClkSource\000"
 4369      6C6B536F 
 4369      75726365 
 4369      00
 4370              	.LASF68:
 4371 01e5 77696467 		.ascii	"widgetId\000"
ARM GAS  C:\Users\dell\AppData\Local\Temp\ccWEiAI7.s 			page 114


 4371      65744964 
 4371      00
 4372              	.LASF86:
 4373 01ee 43617053 		.ascii	"CapSense_FtRunEnabledFilters\000"
 4373      656E7365 
 4373      5F467452 
 4373      756E456E 
 4373      61626C65 
 4374              	.LASF20:
 4375 020b 43617053 		.ascii	"CapSense_WD_BUTTON_E\000"
 4375      656E7365 
 4375      5F57445F 
 4375      42555454 
 4375      4F4E5F45 
 4376              	.LASF29:
 4377 0220 6E6F6973 		.ascii	"noiseTh\000"
 4377      65546800 
 4378              	.LASF10:
 4379 0228 75696E74 		.ascii	"uint16\000"
 4379      313600
 4380              	.LASF99:
 4381 022f 43617053 		.ascii	"CapSense_UpdateSensorBaseline\000"
 4381      656E7365 
 4381      5F557064 
 4381      61746553 
 4381      656E736F 
 4382              	.LASF48:
 4383 024d 70747232 		.ascii	"ptr2DebounceArr\000"
 4383      4465626F 
 4383      756E6365 
 4383      41727200 
 4384              	.LASF9:
 4385 025d 75696E74 		.ascii	"uint8\000"
 4385      3800
 4386              	.LASF93:
 4387 0263 70747257 		.ascii	"ptrWidgetRam\000"
 4387      69646765 
 4387      7452616D 
 4387      00
 4388              	.LASF35:
 4389 0270 736E7343 		.ascii	"snsClk\000"
 4389      6C6B00
 4390              	.LASF65:
 4391 0277 43617053 		.ascii	"CapSense_FtInitializeBaselineChannel\000"
 4391      656E7365 
 4391      5F467449 
 4391      6E697469 
 4391      616C697A 
 4392              	.LASF91:
 4393 029c 43617053 		.ascii	"CapSense_FtIIR1stOrder\000"
 4393      656E7365 
 4393      5F467449 
 4393      49523173 
 4393      744F7264 
 4394              	.LASF25:
 4395 02b3 43617053 		.ascii	"CapSense_WD_PROXIMITY_E\000"
 4395      656E7365 
ARM GAS  C:\Users\dell\AppData\Local\Temp\ccWEiAI7.s 			page 115


 4395      5F57445F 
 4395      50524F58 
 4395      494D4954 
 4396              	.LASF12:
 4397 02cb 666C6F61 		.ascii	"float\000"
 4397      7400
 4398              	.LASF6:
 4399 02d1 6C6F6E67 		.ascii	"long long int\000"
 4399      206C6F6E 
 4399      6720696E 
 4399      7400
 4400              	.LASF63:
 4401 02df 77645479 		.ascii	"wdType\000"
 4401      706500
 4402              	.LASF14:
 4403 02e6 63686172 		.ascii	"char\000"
 4403      00
 4404              	.LASF4:
 4405 02eb 6C6F6E67 		.ascii	"long int\000"
 4405      20696E74 
 4405      00
 4406              	.LASF89:
 4407 02f4 73686966 		.ascii	"shift\000"
 4407      7400
 4408              	.LASF51:
 4409 02fa 77646774 		.ascii	"wdgtType\000"
 4409      54797065 
 4409      00
 4410              	.LASF17:
 4411 0303 73697A65 		.ascii	"sizetype\000"
 4411      74797065 
 4411      00
 4412              	.LASF28:
 4413 030c 66696E67 		.ascii	"fingerTh\000"
 4413      65725468 
 4413      00
 4414              	.LASF41:
 4415 0315 6E656742 		.ascii	"negBslnRstCnt\000"
 4415      736C6E52 
 4415      7374436E 
 4415      7400
 4416              	.LASF45:
 4417 0323 70747232 		.ascii	"ptr2WdgtRam\000"
 4417      57646774 
 4417      52616D00 
 4418              	.LASF32:
 4419 032f 6F6E4465 		.ascii	"onDebounce\000"
 4419      626F756E 
 4419      636500
 4420              	.LASF52:
 4421 033a 6E756D43 		.ascii	"numCols\000"
 4421      6F6C7300 
 4422              	.LASF31:
 4423 0342 68797374 		.ascii	"hysteresis\000"
 4423      65726573 
 4423      697300
 4424              	.LASF79:
ARM GAS  C:\Users\dell\AppData\Local\Temp\ccWEiAI7.s 			page 116


 4425 034d 43617053 		.ascii	"CapSense_InitializeAllFilters\000"
 4425      656E7365 
 4425      5F496E69 
 4425      7469616C 
 4425      697A6541 
 4426              	.LASF16:
 4427 036b 6C6F6E67 		.ascii	"long double\000"
 4427      20646F75 
 4427      626C6500 
 4428              	.LASF1:
 4429 0377 756E7369 		.ascii	"unsigned char\000"
 4429      676E6564 
 4429      20636861 
 4429      7200
 4430              	.LASF73:
 4431 0385 70747257 		.ascii	"ptrWidget\000"
 4431      69646765 
 4431      7400
 4432              	.LASF0:
 4433 038f 7369676E 		.ascii	"signed char\000"
 4433      65642063 
 4433      68617200 
 4434              	.LASF7:
 4435 039b 6C6F6E67 		.ascii	"long long unsigned int\000"
 4435      206C6F6E 
 4435      6720756E 
 4435      7369676E 
 4435      65642069 
 4436              	.LASF58:
 4437 03b2 72656775 		.ascii	"regularChannel\000"
 4437      6C617243 
 4437      68616E6E 
 4437      656C00
 4438              	.LASF49:
 4439 03c1 73746174 		.ascii	"staticConfig\000"
 4439      6963436F 
 4439      6E666967 
 4439      00
 4440              	.LASF8:
 4441 03ce 756E7369 		.ascii	"unsigned int\000"
 4441      676E6564 
 4441      20696E74 
 4441      00
 4442              	.LASF70:
 4443 03db 66726571 		.ascii	"freqChannel\000"
 4443      4368616E 
 4443      6E656C00 
 4444              	.LASF100:
 4445 03e7 43617053 		.ascii	"CapSense_UpdateWidgetBaseline\000"
 4445      656E7365 
 4445      5F557064 
 4445      61746557 
 4445      69646765 
 4446              	.LASF43:
 4447 0405 43617053 		.ascii	"CapSense_RAM_SNS_STRUCT\000"
 4447      656E7365 
 4447      5F52414D 
ARM GAS  C:\Users\dell\AppData\Local\Temp\ccWEiAI7.s 			page 117


 4447      5F534E53 
 4447      5F535452 
 4448              	.LASF19:
 4449 041d 43617053 		.ascii	"CapSense_LOW_BSLN_RST_TYPE\000"
 4449      656E7365 
 4449      5F4C4F57 
 4449      5F42534C 
 4449      4E5F5253 
 4450              	.LASF82:
 4451 0438 43617053 		.ascii	"CapSense_RunAverageInternal\000"
 4451      656E7365 
 4451      5F52756E 
 4451      41766572 
 4451      61676549 
 4452              	.LASF59:
 4453 0454 43617053 		.ascii	"CapSense_REGULAR_FLTR_STRUCT\000"
 4453      656E7365 
 4453      5F524547 
 4453      554C4152 
 4453      5F464C54 
 4454              	.LASF62:
 4455 0471 70747253 		.ascii	"ptrSensor\000"
 4455      656E736F 
 4455      7200
 4456              	.LASF80:
 4457 047b 43617053 		.ascii	"CapSense_FtInitialize\000"
 4457      656E7365 
 4457      5F467449 
 4457      6E697469 
 4457      616C697A 
 4458              	.LASF15:
 4459 0491 63797374 		.ascii	"cystatus\000"
 4459      61747573 
 4459      00
 4460              	.LASF66:
 4461 049a 43617053 		.ascii	"CapSense_FtInitializeBaseline\000"
 4461      656E7365 
 4461      5F467449 
 4461      6E697469 
 4461      616C697A 
 4462              	.LASF27:
 4463 04b8 7265736F 		.ascii	"resolution\000"
 4463      6C757469 
 4463      6F6E00
 4464              	.LASF3:
 4465 04c3 73686F72 		.ascii	"short unsigned int\000"
 4465      7420756E 
 4465      7369676E 
 4465      65642069 
 4465      6E7400
 4466              	.LASF60:
 4467 04d6 70747252 		.ascii	"ptrRegular\000"
 4467      6567756C 
 4467      617200
 4468              	.LASF61:
 4469 04e1 43617053 		.ascii	"CapSense_PTR_FILTER_VARIANT\000"
 4469      656E7365 
ARM GAS  C:\Users\dell\AppData\Local\Temp\ccWEiAI7.s 			page 118


 4469      5F505452 
 4469      5F46494C 
 4469      5445525F 
 4470              	.LASF64:
 4471 04fd 6368616E 		.ascii	"channel\000"
 4471      6E656C00 
 4472              	.LASF92:
 4473 0505 43617053 		.ascii	"CapSense_FtUpdateBaseline\000"
 4473      656E7365 
 4473      5F467455 
 4473      70646174 
 4473      65426173 
 4474              	.LASF72:
 4475 051f 73656E73 		.ascii	"sensorsNumber\000"
 4475      6F72734E 
 4475      756D6265 
 4475      7200
 4476              	.LASF21:
 4477 052d 43617053 		.ascii	"CapSense_WD_LINEAR_SLIDER_E\000"
 4477      656E7365 
 4477      5F57445F 
 4477      4C494E45 
 4477      41525F53 
 4478              	.LASF30:
 4479 0549 6E4E6F69 		.ascii	"nNoiseTh\000"
 4479      73655468 
 4479      00
 4480              	.LASF96:
 4481 0552 62617365 		.ascii	"baselineCoeff\000"
 4481      6C696E65 
 4481      436F6566 
 4481      6600
 4482              	.LASF105:
 4483 0560 433A5C55 		.ascii	"C:\\Users\\dell\\Documents\\PSoC Creator\\Workspace"
 4483      73657273 
 4483      5C64656C 
 4483      6C5C446F 
 4483      63756D65 
 4484 058e 30335C44 		.ascii	"03\\Design01.cydsn\000"
 4484      65736967 
 4484      6E30312E 
 4484      63796473 
 4484      6E00
 4485              	.LASF18:
 4486 05a0 43617053 		.ascii	"CapSense_THRESHOLD_TYPE\000"
 4486      656E7365 
 4486      5F544852 
 4486      4553484F 
 4486      4C445F54 
 4487              	.LASF11:
 4488 05b8 75696E74 		.ascii	"uint32\000"
 4488      333200
 4489              	.LASF5:
 4490 05bf 6C6F6E67 		.ascii	"long unsigned int\000"
 4490      20756E73 
 4490      69676E65 
 4490      6420696E 
ARM GAS  C:\Users\dell\AppData\Local\Temp\ccWEiAI7.s 			page 119


 4490      7400
 4491              	.LASF94:
 4492 05d1 7369676E 		.ascii	"sign\000"
 4492      00
 4493              	.LASF13:
 4494 05d6 646F7562 		.ascii	"double\000"
 4494      6C6500
 4495              	.LASF39:
 4496 05dd 62736C6E 		.ascii	"bslnExt\000"
 4496      45787400 
 4497              	.LASF77:
 4498 05e5 70747253 		.ascii	"ptrSensorObj\000"
 4498      656E736F 
 4498      724F626A 
 4498      00
 4499              	.LASF26:
 4500 05f2 43617053 		.ascii	"CapSense_WD_TYPE_ENUM\000"
 4500      656E7365 
 4500      5F57445F 
 4500      54595045 
 4500      5F454E55 
 4501              	.LASF88:
 4502 0608 70726576 		.ascii	"prevOutput\000"
 4502      4F757470 
 4502      757400
 4503              	.LASF23:
 4504 0613 43617053 		.ascii	"CapSense_WD_MATRIX_BUTTON_E\000"
 4504      656E7365 
 4504      5F57445F 
 4504      4D415452 
 4504      49585F42 
 4505              	.LASF46:
 4506 062f 70747232 		.ascii	"ptr2SnsRam\000"
 4506      536E7352 
 4506      616D00
 4507              	.LASF71:
 4508 063a 43617053 		.ascii	"CapSense_InitializeWidgetBaseline\000"
 4508      656E7365 
 4508      5F496E69 
 4508      7469616C 
 4508      697A6557 
 4509              	.LASF47:
 4510 065c 70747232 		.ascii	"ptr2FltrHistory\000"
 4510      466C7472 
 4510      48697374 
 4510      6F727900 
 4511              	.LASF56:
 4512 066c 61766748 		.ascii	"avgHistory\000"
 4512      6973746F 
 4512      727900
 4513              	.LASF22:
 4514 0677 43617053 		.ascii	"CapSense_WD_RADIAL_SLIDER_E\000"
 4514      656E7365 
 4514      5F57445F 
 4514      52414449 
 4514      414C5F53 
 4515              	.LASF57:
ARM GAS  C:\Users\dell\AppData\Local\Temp\ccWEiAI7.s 			page 120


 4516 0693 43617053 		.ascii	"CapSense_REGULAR_FLTR_CHANNEL_STRUCT\000"
 4516      656E7365 
 4516      5F524547 
 4516      554C4152 
 4516      5F464C54 
 4517              	.LASF78:
 4518 06b8 43617053 		.ascii	"CapSense_InitializeWidgetFilter\000"
 4518      656E7365 
 4518      5F496E69 
 4518      7469616C 
 4518      697A6557 
 4519              	.LASF106:
 4520 06d8 43617053 		.ascii	"CapSense_dsFlash\000"
 4520      656E7365 
 4520      5F647346 
 4520      6C617368 
 4520      00
 4521              	.LASF85:
 4522 06e9 43617053 		.ascii	"CapSense_FtRunEnabledFiltersInternal\000"
 4522      656E7365 
 4522      5F467452 
 4522      756E456E 
 4522      61626C65 
 4523              	.LASF54:
 4524 070e 77646774 		.ascii	"wdgtArray\000"
 4524      41727261 
 4524      7900
 4525              	.LASF37:
 4526 0718 43617053 		.ascii	"CapSense_RAM_WD_BASE_STRUCT\000"
 4526      656E7365 
 4526      5F52414D 
 4526      5F57445F 
 4526      42415345 
 4527              	.LASF44:
 4528 0734 70747232 		.ascii	"ptr2SnsFlash\000"
 4528      536E7346 
 4528      6C617368 
 4528      00
 4529              	.LASF84:
 4530 0741 43617053 		.ascii	"CapSense_RunAverage\000"
 4530      656E7365 
 4530      5F52756E 
 4530      41766572 
 4530      61676500 
 4531              	.LASF90:
 4532 0755 66696C74 		.ascii	"filteredOutput\000"
 4532      65726564 
 4532      4F757470 
 4532      757400
 4533              	.LASF104:
 4534 0764 47656E65 		.ascii	"Generated_Source\\PSoC4\\CapSense_Filter.c\000"
 4534      72617465 
 4534      645F536F 
 4534      75726365 
 4534      5C50536F 
 4535              	.LASF67:
 4536 078d 43617053 		.ascii	"CapSense_InitializeSensorBaseline\000"
ARM GAS  C:\Users\dell\AppData\Local\Temp\ccWEiAI7.s 			page 121


 4536      656E7365 
 4536      5F496E69 
 4536      7469616C 
 4536      697A6553 
 4537              		.ident	"GCC: (GNU Tools for ARM Embedded Processors) 5.4.1 20160609 (release) [ARM/embedded-5-bran
