ARM GAS  C:\Users\dell\AppData\Local\Temp\ccyToLx4.s 			page 1


   1              		.syntax unified
   2              		.cpu cortex-m0plus
   3              		.fpu softvfp
   4              		.eabi_attribute 20, 1
   5              		.eabi_attribute 21, 1
   6              		.eabi_attribute 23, 3
   7              		.eabi_attribute 24, 1
   8              		.eabi_attribute 25, 1
   9              		.eabi_attribute 26, 1
  10              		.eabi_attribute 30, 1
  11              		.eabi_attribute 34, 0
  12              		.eabi_attribute 18, 4
  13              		.thumb
  14              		.syntax unified
  15              		.file	"CapSense_Adc_INT.c"
  16              		.text
  17              	.Ltext0:
  18              		.cfi_sections	.debug_frame
  19              		.global	__aeabi_uidiv
  20              		.global	__aeabi_idiv
  21              		.section	.text.CapSense_AdcIntrHandler,"ax",%progbits
  22              		.align	2
  23              		.global	CapSense_AdcIntrHandler
  24              		.code	16
  25              		.thumb_func
  26              		.type	CapSense_AdcIntrHandler, %function
  27              	CapSense_AdcIntrHandler:
  28              	.LFB1:
  29              		.file 1 "Generated_Source\\PSoC4\\CapSense_Adc_INT.c"
   1:Generated_Source\PSoC4/CapSense_Adc_INT.c **** /***************************************************************************//**
   2:Generated_Source\PSoC4/CapSense_Adc_INT.c **** * \file CapSense_Adc_INT.c
   3:Generated_Source\PSoC4/CapSense_Adc_INT.c **** * \version 5.0
   4:Generated_Source\PSoC4/CapSense_Adc_INT.c **** *
   5:Generated_Source\PSoC4/CapSense_Adc_INT.c **** * \brief
   6:Generated_Source\PSoC4/CapSense_Adc_INT.c **** *   This file contains the source code for implementation of the CapSense
   7:Generated_Source\PSoC4/CapSense_Adc_INT.c **** *   Component ADC functionality Interrupt Service Routine (ISR).
   8:Generated_Source\PSoC4/CapSense_Adc_INT.c **** *
   9:Generated_Source\PSoC4/CapSense_Adc_INT.c **** * \see CapSense v5.0 Datasheet
  10:Generated_Source\PSoC4/CapSense_Adc_INT.c **** *
  11:Generated_Source\PSoC4/CapSense_Adc_INT.c **** *//*****************************************************************************
  12:Generated_Source\PSoC4/CapSense_Adc_INT.c **** * Copyright (2016-2017), Cypress Semiconductor Corporation.
  13:Generated_Source\PSoC4/CapSense_Adc_INT.c **** ********************************************************************************
  14:Generated_Source\PSoC4/CapSense_Adc_INT.c **** * This software is owned by Cypress Semiconductor Corporation (Cypress) and is
  15:Generated_Source\PSoC4/CapSense_Adc_INT.c **** * protected by and subject to worldwide patent protection (United States and
  16:Generated_Source\PSoC4/CapSense_Adc_INT.c **** * foreign), United States copyright laws and international treaty provisions.
  17:Generated_Source\PSoC4/CapSense_Adc_INT.c **** * Cypress hereby grants to licensee a personal, non-exclusive, non-transferable
  18:Generated_Source\PSoC4/CapSense_Adc_INT.c **** * license to copy, use, modify, create derivative works of, and compile the
  19:Generated_Source\PSoC4/CapSense_Adc_INT.c **** * Cypress Source Code and derivative works for the sole purpose of creating
  20:Generated_Source\PSoC4/CapSense_Adc_INT.c **** * custom software in support of licensee product to be used only in conjunction
  21:Generated_Source\PSoC4/CapSense_Adc_INT.c **** * with a Cypress integrated circuit as specified in the applicable agreement.
  22:Generated_Source\PSoC4/CapSense_Adc_INT.c **** * Any reproduction, modification, translation, compilation, or representation of
  23:Generated_Source\PSoC4/CapSense_Adc_INT.c **** * this software except as specified above is prohibited without the express
  24:Generated_Source\PSoC4/CapSense_Adc_INT.c **** * written permission of Cypress.
  25:Generated_Source\PSoC4/CapSense_Adc_INT.c **** *
  26:Generated_Source\PSoC4/CapSense_Adc_INT.c **** * Disclaimer: CYPRESS MAKES NO WARRANTY OF ANY KIND, EXPRESS OR IMPLIED, WITH
  27:Generated_Source\PSoC4/CapSense_Adc_INT.c **** * REGARD TO THIS MATERIAL, INCLUDING, BUT NOT LIMITED TO, THE IMPLIED
  28:Generated_Source\PSoC4/CapSense_Adc_INT.c **** * WARRANTIES OF MERCHANTABILITY AND FITNESS FOR A PARTICULAR PURPOSE.
ARM GAS  C:\Users\dell\AppData\Local\Temp\ccyToLx4.s 			page 2


  29:Generated_Source\PSoC4/CapSense_Adc_INT.c **** * Cypress reserves the right to make changes without further notice to the
  30:Generated_Source\PSoC4/CapSense_Adc_INT.c **** * materials described herein. Cypress does not assume any liability arising out
  31:Generated_Source\PSoC4/CapSense_Adc_INT.c **** * of the application or use of any product or circuit described herein. Cypress
  32:Generated_Source\PSoC4/CapSense_Adc_INT.c **** * does not authorize its products for use as critical components in life-support
  33:Generated_Source\PSoC4/CapSense_Adc_INT.c **** * systems where a malfunction or failure may reasonably be expected to result in
  34:Generated_Source\PSoC4/CapSense_Adc_INT.c **** * significant injury to the user. The inclusion of Cypress' product in a life-
  35:Generated_Source\PSoC4/CapSense_Adc_INT.c **** * support systems application implies that the manufacturer assumes all risk of
  36:Generated_Source\PSoC4/CapSense_Adc_INT.c **** * such use and in doing so indemnifies Cypress against all charges. Use may be
  37:Generated_Source\PSoC4/CapSense_Adc_INT.c **** * limited by and subject to the applicable Cypress software license agreement.
  38:Generated_Source\PSoC4/CapSense_Adc_INT.c **** *******************************************************************************/
  39:Generated_Source\PSoC4/CapSense_Adc_INT.c **** #include "CyLib.h"
  40:Generated_Source\PSoC4/CapSense_Adc_INT.c **** #include "cytypes.h"
  41:Generated_Source\PSoC4/CapSense_Adc_INT.c **** #include "cyfitter.h"
  42:Generated_Source\PSoC4/CapSense_Adc_INT.c **** #include "CapSense_Adc.h"
  43:Generated_Source\PSoC4/CapSense_Adc_INT.c **** #include "CapSense_Sensing.h"
  44:Generated_Source\PSoC4/CapSense_Adc_INT.c **** #include "CapSense_Configuration.h"
  45:Generated_Source\PSoC4/CapSense_Adc_INT.c **** #include "cyapicallbacks.h"
  46:Generated_Source\PSoC4/CapSense_Adc_INT.c **** 
  47:Generated_Source\PSoC4/CapSense_Adc_INT.c **** /**
  48:Generated_Source\PSoC4/CapSense_Adc_INT.c **** * \cond SECTION_ADC_INTERRUPT
  49:Generated_Source\PSoC4/CapSense_Adc_INT.c **** * \addtogroup group_c_interrupt
  50:Generated_Source\PSoC4/CapSense_Adc_INT.c **** * \{
  51:Generated_Source\PSoC4/CapSense_Adc_INT.c **** */
  52:Generated_Source\PSoC4/CapSense_Adc_INT.c **** 
  53:Generated_Source\PSoC4/CapSense_Adc_INT.c **** #if (CapSense_ADC_EN)
  54:Generated_Source\PSoC4/CapSense_Adc_INT.c **** 
  55:Generated_Source\PSoC4/CapSense_Adc_INT.c **** 
  56:Generated_Source\PSoC4/CapSense_Adc_INT.c **** /*******************************************************************************
  57:Generated_Source\PSoC4/CapSense_Adc_INT.c **** * Function Name: CapSense_AdcIntrHandler
  58:Generated_Source\PSoC4/CapSense_Adc_INT.c **** ****************************************************************************//**
  59:Generated_Source\PSoC4/CapSense_Adc_INT.c **** *
  60:Generated_Source\PSoC4/CapSense_Adc_INT.c **** * \brief
  61:Generated_Source\PSoC4/CapSense_Adc_INT.c **** *   This is an internal ISR function for the ADC implementation.
  62:Generated_Source\PSoC4/CapSense_Adc_INT.c **** *
  63:Generated_Source\PSoC4/CapSense_Adc_INT.c **** * \details
  64:Generated_Source\PSoC4/CapSense_Adc_INT.c **** *   This ISR is triggered after a measurement completes or during the calibration
  65:Generated_Source\PSoC4/CapSense_Adc_INT.c **** *   phases.
  66:Generated_Source\PSoC4/CapSense_Adc_INT.c **** *
  67:Generated_Source\PSoC4/CapSense_Adc_INT.c **** *   To use the entry or exit callbacks, define
  68:Generated_Source\PSoC4/CapSense_Adc_INT.c **** *   CapSense_ADC_[ENTRY|EXIT]_CALLBACK
  69:Generated_Source\PSoC4/CapSense_Adc_INT.c **** *   and define the corresponding function,
  70:Generated_Source\PSoC4/CapSense_Adc_INT.c **** *   CapSense_Adc[Entry|Exit]Callback().
  71:Generated_Source\PSoC4/CapSense_Adc_INT.c **** *
  72:Generated_Source\PSoC4/CapSense_Adc_INT.c **** *******************************************************************************/
  73:Generated_Source\PSoC4/CapSense_Adc_INT.c **** CY_ISR(CapSense_AdcIntrHandler)
  74:Generated_Source\PSoC4/CapSense_Adc_INT.c **** {
  30              		.loc 1 74 0
  31              		.cfi_startproc
  32              		@ args = 0, pretend = 0, frame = 0
  33              		@ frame_needed = 0, uses_anonymous_args = 0
  34 0000 F0B5     		push	{r4, r5, r6, r7, lr}
  35              		.cfi_def_cfa_offset 20
  36              		.cfi_offset 4, -20
  37              		.cfi_offset 5, -16
  38              		.cfi_offset 6, -12
  39              		.cfi_offset 7, -8
  40              		.cfi_offset 14, -4
ARM GAS  C:\Users\dell\AppData\Local\Temp\ccyToLx4.s 			page 3


  41 0002 4746     		mov	r7, r8
  42 0004 80B4     		push	{r7}
  43              		.cfi_def_cfa_offset 24
  44              		.cfi_offset 8, -24
  75:Generated_Source\PSoC4/CapSense_Adc_INT.c ****     static uint16 tVssa2Vref;
  76:Generated_Source\PSoC4/CapSense_Adc_INT.c ****     static uint16 tFull;
  77:Generated_Source\PSoC4/CapSense_Adc_INT.c ****     static uint16 vMaxMv;
  78:Generated_Source\PSoC4/CapSense_Adc_INT.c **** 
  79:Generated_Source\PSoC4/CapSense_Adc_INT.c ****     uint32 tmpResult;
  80:Generated_Source\PSoC4/CapSense_Adc_INT.c ****     uint32 polarity;
  81:Generated_Source\PSoC4/CapSense_Adc_INT.c ****     uint8 adcFsmStatus;
  82:Generated_Source\PSoC4/CapSense_Adc_INT.c ****     uint8 tmpChId;
  83:Generated_Source\PSoC4/CapSense_Adc_INT.c **** 
  84:Generated_Source\PSoC4/CapSense_Adc_INT.c ****     #if (CapSense_ADC_FULLRANGE_MODE == CapSense_ADC_MEASURE_MODE)
  85:Generated_Source\PSoC4/CapSense_Adc_INT.c ****         uint8  interruptState;
  86:Generated_Source\PSoC4/CapSense_Adc_INT.c ****         uint32 newRegValue;
  87:Generated_Source\PSoC4/CapSense_Adc_INT.c **** 
  88:Generated_Source\PSoC4/CapSense_Adc_INT.c ****         static uint16 tVdda2Vref;
  89:Generated_Source\PSoC4/CapSense_Adc_INT.c ****         static uint16 tRecover;
  90:Generated_Source\PSoC4/CapSense_Adc_INT.c ****     #endif /* (CapSense_ADC_FULLRANGE_MODE == CapSense_ADC_MEASURE_MODE) */
  91:Generated_Source\PSoC4/CapSense_Adc_INT.c **** 
  92:Generated_Source\PSoC4/CapSense_Adc_INT.c ****     #ifdef CapSense_ADC_ENTRY_CALLBACK
  93:Generated_Source\PSoC4/CapSense_Adc_INT.c ****         CapSense_AdcEntryCallback();
  94:Generated_Source\PSoC4/CapSense_Adc_INT.c ****     #endif /* CapSense_ADC_ENTRY_CALLBACK */
  95:Generated_Source\PSoC4/CapSense_Adc_INT.c **** 
  96:Generated_Source\PSoC4/CapSense_Adc_INT.c ****     /* Mask all CSD block interrupts (disable all interrupts) */
  97:Generated_Source\PSoC4/CapSense_Adc_INT.c ****     CY_SET_REG32(CapSense_INTR_MASK_PTR, CapSense_INTR_MASK_CLEAR_MASK);
  45              		.loc 1 97 0
  46 0006 0022     		movs	r2, #0
  47 0008 5E4B     		ldr	r3, .L14
  48 000a 1A60     		str	r2, [r3]
  98:Generated_Source\PSoC4/CapSense_Adc_INT.c **** 
  99:Generated_Source\PSoC4/CapSense_Adc_INT.c ****     /* Clear all pending interrupts of CSD block */
 100:Generated_Source\PSoC4/CapSense_Adc_INT.c ****     CY_SET_REG32(CapSense_INTR_PTR, CapSense_INTR_ALL_MASK);
  49              		.loc 1 100 0
  50 000c 0732     		adds	r2, r2, #7
  51 000e FF32     		adds	r2, r2, #255
  52 0010 5D4B     		ldr	r3, .L14+4
  53 0012 1A60     		str	r2, [r3]
 101:Generated_Source\PSoC4/CapSense_Adc_INT.c **** 
 102:Generated_Source\PSoC4/CapSense_Adc_INT.c ****     /* Read ADC result and check for ADC_ABORT or ADC_OVERFLOW flags */
 103:Generated_Source\PSoC4/CapSense_Adc_INT.c ****     tmpResult = CY_GET_REG32(CapSense_ADC_RES_PTR);
  54              		.loc 1 103 0
  55 0014 5D4B     		ldr	r3, .L14+8
  56 0016 1C68     		ldr	r4, [r3]
  57              	.LVL0:
 104:Generated_Source\PSoC4/CapSense_Adc_INT.c ****     if (0uL == (tmpResult & CapSense_AdcADC_RES_ABORT_MASK))
  58              		.loc 1 104 0
  59 0018 002C     		cmp	r4, #0
  60 001a 00DA     		bge	.LCB26
  61 001c AAE0     		b	.L2	@long jump
  62              	.LCB26:
 105:Generated_Source\PSoC4/CapSense_Adc_INT.c ****     {
 106:Generated_Source\PSoC4/CapSense_Adc_INT.c ****         if (0uL == (tmpResult & CapSense_AdcADC_RES_OVERFLOW_MASK))
  63              		.loc 1 106 0
  64 001e 6300     		lsls	r3, r4, #1
  65 0020 00D5     		bpl	.LCB30
ARM GAS  C:\Users\dell\AppData\Local\Temp\ccyToLx4.s 			page 4


  66 0022 A2E0     		b	.L3	@long jump
  67              	.LCB30:
 107:Generated_Source\PSoC4/CapSense_Adc_INT.c ****         {
 108:Generated_Source\PSoC4/CapSense_Adc_INT.c ****             /* Read ADC status, define polarity, value and ChId */
 109:Generated_Source\PSoC4/CapSense_Adc_INT.c ****             adcFsmStatus = (uint8)(CapSense_dsRam.adcStatus & CapSense_AdcSTATUS_FSM_MASK);
  68              		.loc 1 109 0
  69 0024 5A4D     		ldr	r5, .L14+12
  70 0026 2021     		movs	r1, #32
  71 0028 6B5C     		ldrb	r3, [r5, r1]
  72 002a F73A     		subs	r2, r2, #247
  73 002c 9343     		bics	r3, r2
  74              	.LVL1:
 110:Generated_Source\PSoC4/CapSense_Adc_INT.c ****             /* Select the polarity bit */
 111:Generated_Source\PSoC4/CapSense_Adc_INT.c ****             polarity = tmpResult & CapSense_AdcADC_RES_HSCMPPOL_MASK;
  75              		.loc 1 111 0
  76 002e 8022     		movs	r2, #128
  77 0030 5202     		lsls	r2, r2, #9
  78 0032 2240     		ands	r2, r4
  79              	.LVL2:
 112:Generated_Source\PSoC4/CapSense_Adc_INT.c ****             /* Select the result value */
 113:Generated_Source\PSoC4/CapSense_Adc_INT.c ****             tmpResult &= CapSense_AdcADC_RES_VALUE_MASK;
  80              		.loc 1 113 0
  81 0034 2004     		lsls	r0, r4, #16
  82 0036 000C     		lsrs	r0, r0, #16
  83              	.LVL3:
 114:Generated_Source\PSoC4/CapSense_Adc_INT.c ****             tmpChId = CapSense_dsRam.adcStatus & (uint8)(CapSense_AdcSTATUS_LASTCHAN_MASK);
  84              		.loc 1 114 0
  85 0038 6D5C     		ldrb	r5, [r5, r1]
  86 003a 1139     		subs	r1, r1, #17
  87 003c 0D40     		ands	r5, r1
  88              	.LVL4:
 115:Generated_Source\PSoC4/CapSense_Adc_INT.c **** 
 116:Generated_Source\PSoC4/CapSense_Adc_INT.c ****             /* ADC could have been converting or calibrating; handle each differently. */
 117:Generated_Source\PSoC4/CapSense_Adc_INT.c ****             switch (adcFsmStatus)
  89              		.loc 1 117 0
  90 003e 202B     		cmp	r3, #32
  91 0040 4FD0     		beq	.L5
  92 0042 02D8     		bhi	.L6
  93 0044 102B     		cmp	r3, #16
  94 0046 3ED0     		beq	.L7
  95 0048 98E0     		b	.L1
  96              	.L6:
  97 004a 302B     		cmp	r3, #48
  98 004c 63D0     		beq	.L8
  99 004e 402B     		cmp	r3, #64
 100 0050 00D0     		beq	.LCB65
 101 0052 93E0     		b	.L1	@long jump
 102              	.LCB65:
 118:Generated_Source\PSoC4/CapSense_Adc_INT.c ****             {
 119:Generated_Source\PSoC4/CapSense_Adc_INT.c ****             case CapSense_AdcSTATUS_CONVERTING:
 120:Generated_Source\PSoC4/CapSense_Adc_INT.c ****                 /*
 121:Generated_Source\PSoC4/CapSense_Adc_INT.c ****                 * After the converting will calculate an ADC result in mV depending on
 122:Generated_Source\PSoC4/CapSense_Adc_INT.c ****                 * sourcing or sinking mode. Checks for a saturation in all modes.
 123:Generated_Source\PSoC4/CapSense_Adc_INT.c ****                 */
 124:Generated_Source\PSoC4/CapSense_Adc_INT.c ****                 /* HSCMP polarity is 0:sink, 1:source */
 125:Generated_Source\PSoC4/CapSense_Adc_INT.c ****                 if(0uL != polarity) /* Sourcing */
 103              		.loc 1 125 0
ARM GAS  C:\Users\dell\AppData\Local\Temp\ccyToLx4.s 			page 5


 104 0054 002A     		cmp	r2, #0
 105 0056 0ED0     		beq	.L10
 126:Generated_Source\PSoC4/CapSense_Adc_INT.c ****                 {
 127:Generated_Source\PSoC4/CapSense_Adc_INT.c ****                     /* Saturate result at tVssa2Vref */
 128:Generated_Source\PSoC4/CapSense_Adc_INT.c ****                     tmpResult = (tmpResult > (uint32)tVssa2Vref) ? (uint32)tVssa2Vref : tmpResult;
 106              		.loc 1 128 0
 107 0058 4E4B     		ldr	r3, .L14+16
 108              	.LVL5:
 109 005a 1B88     		ldrh	r3, [r3]
 110 005c 9842     		cmp	r0, r3
 111 005e 00D9     		bls	.L11
 112 0060 1800     		movs	r0, r3
 113              	.LVL6:
 114              	.L11:
 129:Generated_Source\PSoC4/CapSense_Adc_INT.c ****                     /* Scale result to Resolution range with rounding*/
 130:Generated_Source\PSoC4/CapSense_Adc_INT.c ****                     tmpResult = ((((uint32)tVssa2Vref - tmpResult) * CapSense_AdcRES_MAX) +
 115              		.loc 1 130 0
 116 0062 1B1A     		subs	r3, r3, r0
 117 0064 9802     		lsls	r0, r3, #10
 118              	.LVL7:
 119 0066 C01A     		subs	r0, r0, r3
 131:Generated_Source\PSoC4/CapSense_Adc_INT.c ****                                  ((uint32)tFull >> 1uL)) / (uint32)tFull;
 120              		.loc 1 131 0
 121 0068 4A4B     		ldr	r3, .L14+16
 122 006a 5988     		ldrh	r1, [r3, #2]
 123 006c 4A08     		lsrs	r2, r1, #1
 124              	.LVL8:
 130:Generated_Source\PSoC4/CapSense_Adc_INT.c ****                                  ((uint32)tFull >> 1uL)) / (uint32)tFull;
 125              		.loc 1 130 0
 126 006e 8018     		adds	r0, r0, r2
 127 0070 FFF7FEFF 		bl	__aeabi_uidiv
 128              	.LVL9:
 129 0074 16E0     		b	.L12
 130              	.LVL10:
 131              	.L10:
 132:Generated_Source\PSoC4/CapSense_Adc_INT.c ****                 }
 133:Generated_Source\PSoC4/CapSense_Adc_INT.c ****                 else /* Sinking */
 134:Generated_Source\PSoC4/CapSense_Adc_INT.c ****                 {
 135:Generated_Source\PSoC4/CapSense_Adc_INT.c ****                     #if (CapSense_ADC_FULLRANGE_MODE == CapSense_ADC_MEASURE_MODE)
 136:Generated_Source\PSoC4/CapSense_Adc_INT.c ****                         /* Scale result with sink/source mismatch with rounding */
 137:Generated_Source\PSoC4/CapSense_Adc_INT.c ****                         tmpResult = (((uint32)((uint32)tRecover << 1u) * tmpResult) + ((uint32)tVss
 132              		.loc 1 137 0
 133 0076 474C     		ldr	r4, .L14+16
 134 0078 A388     		ldrh	r3, [r4, #4]
 135              	.LVL11:
 136 007a 5B00     		lsls	r3, r3, #1
 137 007c 5843     		muls	r0, r3
 138              	.LVL12:
 139 007e 2688     		ldrh	r6, [r4]
 140 0080 7308     		lsrs	r3, r6, #1
 141 0082 C018     		adds	r0, r0, r3
 142 0084 3100     		movs	r1, r6
 143 0086 FFF7FEFF 		bl	__aeabi_uidiv
 144              	.LVL13:
 138:Generated_Source\PSoC4/CapSense_Adc_INT.c ****                         /* Saturate result at t_Vdda2Vref*/
 139:Generated_Source\PSoC4/CapSense_Adc_INT.c ****                         tmpResult = (tmpResult > (uint32)tVdda2Vref) ? (uint32)tVdda2Vref : tmpResu
 145              		.loc 1 139 0
ARM GAS  C:\Users\dell\AppData\Local\Temp\ccyToLx4.s 			page 6


 146 008a E388     		ldrh	r3, [r4, #6]
 147 008c 9842     		cmp	r0, r3
 148 008e 00D9     		bls	.L13
 149 0090 1800     		movs	r0, r3
 150              	.LVL14:
 151              	.L13:
 140:Generated_Source\PSoC4/CapSense_Adc_INT.c ****                         /* Scale result to Resolution range with rounding */
 141:Generated_Source\PSoC4/CapSense_Adc_INT.c ****                         tmpResult = ((((uint32)tVssa2Vref + tmpResult) * CapSense_AdcRES_MAX)  +
 152              		.loc 1 141 0
 153 0092 3018     		adds	r0, r6, r0
 154              	.LVL15:
 155 0094 8302     		lsls	r3, r0, #10
 156 0096 181A     		subs	r0, r3, r0
 142:Generated_Source\PSoC4/CapSense_Adc_INT.c ****                                      ((uint32)tFull >> 1uL)) / (uint32)tFull;
 157              		.loc 1 142 0
 158 0098 3E4B     		ldr	r3, .L14+16
 159 009a 5988     		ldrh	r1, [r3, #2]
 160 009c 4B08     		lsrs	r3, r1, #1
 141:Generated_Source\PSoC4/CapSense_Adc_INT.c ****                                      ((uint32)tFull >> 1uL)) / (uint32)tFull;
 161              		.loc 1 141 0
 162 009e C018     		adds	r0, r0, r3
 163 00a0 FFF7FEFF 		bl	__aeabi_uidiv
 164              	.LVL16:
 165              	.L12:
 143:Generated_Source\PSoC4/CapSense_Adc_INT.c ****                     #else /* (CapSense_ADC_FULLRANGE_MODE == CapSense_ADC_MEASURE_MODE) */
 144:Generated_Source\PSoC4/CapSense_Adc_INT.c ****                         /* In vref mode, we are not supposed to be sinking. Saturate */
 145:Generated_Source\PSoC4/CapSense_Adc_INT.c ****                         tmpResult = ((uint32)tVssa2Vref * CapSense_AdcRES_MAX) / (uint32)tFull;
 146:Generated_Source\PSoC4/CapSense_Adc_INT.c ****                     #endif /* (CapSense_ADC_FULLRANGE_MODE == CapSense_ADC_MEASURE_MODE) */
 147:Generated_Source\PSoC4/CapSense_Adc_INT.c ****                 }
 148:Generated_Source\PSoC4/CapSense_Adc_INT.c ****                 /* Store ADC result code */
 149:Generated_Source\PSoC4/CapSense_Adc_INT.c ****                 CapSense_dsRam.adcCode [tmpChId] = (uint16)(tmpResult);        
 166              		.loc 1 149 0
 167 00a4 3A4E     		ldr	r6, .L14+12
 168 00a6 2C00     		movs	r4, r5
 169 00a8 0C34     		adds	r4, r4, #12
 170 00aa 6400     		lsls	r4, r4, #1
 171 00ac 3419     		adds	r4, r6, r4
 172 00ae E080     		strh	r0, [r4, #6]
 150:Generated_Source\PSoC4/CapSense_Adc_INT.c ****                 /* Scale result to mV with rounding and store it */
 151:Generated_Source\PSoC4/CapSense_Adc_INT.c ****                 tmpResult = ((uint32)vMaxMv * tmpResult) / CapSense_AdcRES_MAX;
 173              		.loc 1 151 0
 174 00b0 384B     		ldr	r3, .L14+16
 175 00b2 1B89     		ldrh	r3, [r3, #8]
 176 00b4 5843     		muls	r0, r3
 177              	.LVL17:
 178 00b6 3849     		ldr	r1, .L14+20
 179 00b8 FFF7FEFF 		bl	__aeabi_uidiv
 180              	.LVL18:
 152:Generated_Source\PSoC4/CapSense_Adc_INT.c ****                 CapSense_dsRam.adcResult[tmpChId] = (uint16)(tmpResult);
 181              		.loc 1 152 0
 182 00bc A080     		strh	r0, [r4, #4]
 153:Generated_Source\PSoC4/CapSense_Adc_INT.c ****                 CapSense_dsRam.adcStatus = CapSense_AdcSTATUS_IDLE;
 183              		.loc 1 153 0
 184 00be 0022     		movs	r2, #0
 185 00c0 2023     		movs	r3, #32
 186 00c2 F254     		strb	r2, [r6, r3]
 154:Generated_Source\PSoC4/CapSense_Adc_INT.c ****                 break;
ARM GAS  C:\Users\dell\AppData\Local\Temp\ccyToLx4.s 			page 7


 187              		.loc 1 154 0
 188 00c4 5AE0     		b	.L1
 189              	.LVL19:
 190              	.L7:
 155:Generated_Source\PSoC4/CapSense_Adc_INT.c **** 
 156:Generated_Source\PSoC4/CapSense_Adc_INT.c ****             case CapSense_AdcSTATUS_CALIBPH1:
 157:Generated_Source\PSoC4/CapSense_Adc_INT.c ****                 /*
 158:Generated_Source\PSoC4/CapSense_Adc_INT.c ****                 * After the calibration phase 1 will define a time to charge Cref1 and Cref2 from V
 159:Generated_Source\PSoC4/CapSense_Adc_INT.c ****                 * clock cycles. In the full-range mode starts the next calibration phase 2. In the 
 160:Generated_Source\PSoC4/CapSense_Adc_INT.c ****                 * and recalibrate Idac if necessary.
 161:Generated_Source\PSoC4/CapSense_Adc_INT.c ****                 */
 162:Generated_Source\PSoC4/CapSense_Adc_INT.c ****                 tVssa2Vref = (uint16)tmpResult;
 191              		.loc 1 162 0
 192 00c6 334B     		ldr	r3, .L14+16
 193              	.LVL20:
 194 00c8 1C80     		strh	r4, [r3]
 163:Generated_Source\PSoC4/CapSense_Adc_INT.c **** 
 164:Generated_Source\PSoC4/CapSense_Adc_INT.c ****                 #if (CapSense_ADC_FULLRANGE_MODE == CapSense_ADC_MEASURE_MODE)
 165:Generated_Source\PSoC4/CapSense_Adc_INT.c ****                     /* Full range mode */
 166:Generated_Source\PSoC4/CapSense_Adc_INT.c ****                     CapSense_dsRam.adcStatus = CapSense_AdcSTATUS_CALIBPH2;
 195              		.loc 1 166 0
 196 00ca 2023     		movs	r3, #32
 197 00cc 304A     		ldr	r2, .L14+12
 198              	.LVL21:
 199 00ce D354     		strb	r3, [r2, r3]
 167:Generated_Source\PSoC4/CapSense_Adc_INT.c ****                     /* Un-mask ADC_RES interrupt (enable interrupt) */
 168:Generated_Source\PSoC4/CapSense_Adc_INT.c ****                     CY_SET_REG32(CapSense_INTR_MASK_PTR, CapSense_INTR_MASK_ADC_RES_MASK);
 200              		.loc 1 168 0
 201 00d0 8022     		movs	r2, #128
 202              	.LVL22:
 203 00d2 5200     		lsls	r2, r2, #1
 204              	.LVL23:
 205 00d4 2B4B     		ldr	r3, .L14
 206 00d6 1A60     		str	r2, [r3]
 169:Generated_Source\PSoC4/CapSense_Adc_INT.c ****                     CapSense_StartAdcFSM(CapSense_AdcMEASMODE_VREFBY2);
 207              		.loc 1 169 0
 208 00d8 8020     		movs	r0, #128
 209              	.LVL24:
 210 00da 8002     		lsls	r0, r0, #10
 211              	.LVL25:
 212 00dc FFF7FEFF 		bl	CapSense_StartAdcFSM
 213              	.LVL26:
 170:Generated_Source\PSoC4/CapSense_Adc_INT.c ****                     
 171:Generated_Source\PSoC4/CapSense_Adc_INT.c ****                 #else /* (CapSense_ADC_FULLRANGE_MODE == CapSense_ADC_MEASURE_MODE) */
 172:Generated_Source\PSoC4/CapSense_Adc_INT.c ****                     /* Vref range mode */
 173:Generated_Source\PSoC4/CapSense_Adc_INT.c ****                     vMaxMv = CapSense_adcVrefMv;
 174:Generated_Source\PSoC4/CapSense_Adc_INT.c ****                     tFull = tVssa2Vref;
 175:Generated_Source\PSoC4/CapSense_Adc_INT.c ****                     CapSense_dsRam.adcStatus = CapSense_AdcSTATUS_IDLE;
 176:Generated_Source\PSoC4/CapSense_Adc_INT.c ****                     
 177:Generated_Source\PSoC4/CapSense_Adc_INT.c ****                 #endif /* (CapSense_ADC_FULLRANGE_MODE == CapSense_ADC_MEASURE_MODE) */
 178:Generated_Source\PSoC4/CapSense_Adc_INT.c **** 
 179:Generated_Source\PSoC4/CapSense_Adc_INT.c ****                 break;
 214              		.loc 1 179 0
 215 00e0 4CE0     		b	.L1
 216              	.LVL27:
 217              	.L5:
 180:Generated_Source\PSoC4/CapSense_Adc_INT.c **** 
ARM GAS  C:\Users\dell\AppData\Local\Temp\ccyToLx4.s 			page 8


 181:Generated_Source\PSoC4/CapSense_Adc_INT.c ****             /* In vref mode not need further calibration */
 182:Generated_Source\PSoC4/CapSense_Adc_INT.c ****             #if (CapSense_ADC_FULLRANGE_MODE == CapSense_ADC_MEASURE_MODE)
 183:Generated_Source\PSoC4/CapSense_Adc_INT.c **** 
 184:Generated_Source\PSoC4/CapSense_Adc_INT.c ****                 case CapSense_AdcSTATUS_CALIBPH2:
 185:Generated_Source\PSoC4/CapSense_Adc_INT.c ****                     /*
 186:Generated_Source\PSoC4/CapSense_Adc_INT.c ****                     * After the calibration phase 2 will define a time to charge Cref1 and Cref2 to
 187:Generated_Source\PSoC4/CapSense_Adc_INT.c ****                     * a discharging them by a sinking from Vref during tVssa2Vref/2 time. This rech
 188:Generated_Source\PSoC4/CapSense_Adc_INT.c ****                     * and is proporional to an Idac_sourcing/Idac_sinking mismatch. Then charges ca
 189:Generated_Source\PSoC4/CapSense_Adc_INT.c ****                     * the next calibration phase 3.
 190:Generated_Source\PSoC4/CapSense_Adc_INT.c ****                     */
 191:Generated_Source\PSoC4/CapSense_Adc_INT.c ****                     tRecover = (uint16)tmpResult;
 218              		.loc 1 191 0
 219 00e2 2C4B     		ldr	r3, .L14+16
 220              	.LVL28:
 221 00e4 9C80     		strh	r4, [r3, #4]
 192:Generated_Source\PSoC4/CapSense_Adc_INT.c ****                     
 193:Generated_Source\PSoC4/CapSense_Adc_INT.c ****                     /* Disconnect amuxbusB, Connect VDDA to csdbusB */
 194:Generated_Source\PSoC4/CapSense_Adc_INT.c ****                     interruptState = CyEnterCriticalSection();
 222              		.loc 1 194 0
 223 00e6 FFF7FEFF 		bl	CyEnterCriticalSection
 224              	.LVL29:
 195:Generated_Source\PSoC4/CapSense_Adc_INT.c ****                     newRegValue = CY_GET_REG32(CapSense_SW_BYP_SEL_PTR);
 225              		.loc 1 195 0
 226 00ea 2C4A     		ldr	r2, .L14+24
 227 00ec 1168     		ldr	r1, [r2]
 228              	.LVL30:
 196:Generated_Source\PSoC4/CapSense_Adc_INT.c ****                     newRegValue &= (uint32)(~CapSense_AdcSW_BYP_DEFAULT);
 229              		.loc 1 196 0
 230 00ee 2C4B     		ldr	r3, .L14+28
 231 00f0 0B40     		ands	r3, r1
 232              	.LVL31:
 197:Generated_Source\PSoC4/CapSense_Adc_INT.c ****                     CY_SET_REG32(CapSense_SW_BYP_SEL_PTR, newRegValue);
 233              		.loc 1 197 0
 234 00f2 1360     		str	r3, [r2]
 198:Generated_Source\PSoC4/CapSense_Adc_INT.c ****                     CyExitCriticalSection(interruptState);
 235              		.loc 1 198 0
 236 00f4 FFF7FEFF 		bl	CyExitCriticalSection
 237              	.LVL32:
 199:Generated_Source\PSoC4/CapSense_Adc_INT.c ****                     CY_SET_REG32(CapSense_SW_SHIELD_SEL_PTR, CapSense_AdcSW_SHIELD_VDDA2CSDBUSB);
 238              		.loc 1 199 0
 239 00f8 8023     		movs	r3, #128
 240              	.LVL33:
 241 00fa 5B00     		lsls	r3, r3, #1
 242              	.LVL34:
 243 00fc 294A     		ldr	r2, .L14+32
 244 00fe 1360     		str	r3, [r2]
 200:Generated_Source\PSoC4/CapSense_Adc_INT.c **** 
 201:Generated_Source\PSoC4/CapSense_Adc_INT.c ****                     CapSense_dsRam.adcStatus = CapSense_AdcSTATUS_CALIBPH3;
 245              		.loc 1 201 0
 246 0100 3020     		movs	r0, #48
 247 0102 2022     		movs	r2, #32
 248 0104 2249     		ldr	r1, .L14+12
 249 0106 8854     		strb	r0, [r1, r2]
 202:Generated_Source\PSoC4/CapSense_Adc_INT.c **** 
 203:Generated_Source\PSoC4/CapSense_Adc_INT.c ****                     /* Un-mask ADC_RES interrupt (enable interrupt) */
 204:Generated_Source\PSoC4/CapSense_Adc_INT.c ****                     CY_SET_REG32(CapSense_INTR_MASK_PTR, CapSense_INTR_MASK_ADC_RES_MASK);
 250              		.loc 1 204 0
ARM GAS  C:\Users\dell\AppData\Local\Temp\ccyToLx4.s 			page 9


 251 0108 1E4A     		ldr	r2, .L14
 252 010a 1360     		str	r3, [r2]
 205:Generated_Source\PSoC4/CapSense_Adc_INT.c ****                     CapSense_StartAdcFSM(CapSense_AdcMEASMODE_VIN);
 253              		.loc 1 205 0
 254 010c C020     		movs	r0, #192
 255 010e 8002     		lsls	r0, r0, #10
 256 0110 FFF7FEFF 		bl	CapSense_StartAdcFSM
 257              	.LVL35:
 206:Generated_Source\PSoC4/CapSense_Adc_INT.c ****                     break;
 258              		.loc 1 206 0
 259 0114 32E0     		b	.L1
 260              	.LVL36:
 261              	.L8:
 207:Generated_Source\PSoC4/CapSense_Adc_INT.c ****                     
 208:Generated_Source\PSoC4/CapSense_Adc_INT.c ****                 case CapSense_AdcSTATUS_CALIBPH3:
 209:Generated_Source\PSoC4/CapSense_Adc_INT.c ****                     /*
 210:Generated_Source\PSoC4/CapSense_Adc_INT.c ****                     * After the calibration phase 3 will define a time to discharge Cref1 and Cref2
 211:Generated_Source\PSoC4/CapSense_Adc_INT.c ****                     * a sinking. This time must be corrected to an Idac_sourcing/Idac_sinking misma
 212:Generated_Source\PSoC4/CapSense_Adc_INT.c ****                     * Calculates t_full, checks it for a target and recalibrate Idac if necessary. 
 213:Generated_Source\PSoC4/CapSense_Adc_INT.c ****                     */
 214:Generated_Source\PSoC4/CapSense_Adc_INT.c ****                     /* Reconnect amuxbusB, disconnect VDDA */
 215:Generated_Source\PSoC4/CapSense_Adc_INT.c ****                     CY_SET_REG32(CapSense_SW_SHIELD_SEL_PTR, CapSense_AdcSW_SHIELD_DEFAULT);
 262              		.loc 1 215 0
 263 0116 0025     		movs	r5, #0
 264              	.LVL37:
 265 0118 224B     		ldr	r3, .L14+32
 266              	.LVL38:
 267 011a 1D60     		str	r5, [r3]
 216:Generated_Source\PSoC4/CapSense_Adc_INT.c ****                     interruptState = CyEnterCriticalSection();
 268              		.loc 1 216 0
 269 011c FFF7FEFF 		bl	CyEnterCriticalSection
 270              	.LVL39:
 217:Generated_Source\PSoC4/CapSense_Adc_INT.c ****                     newRegValue = CY_GET_REG32(CapSense_SW_BYP_SEL_PTR);
 271              		.loc 1 217 0
 272 0120 1E4A     		ldr	r2, .L14+24
 273 0122 1368     		ldr	r3, [r2]
 274              	.LVL40:
 218:Generated_Source\PSoC4/CapSense_Adc_INT.c ****                     newRegValue |= CapSense_AdcSW_BYP_DEFAULT;
 275              		.loc 1 218 0
 276 0124 8821     		movs	r1, #136
 277 0126 4903     		lsls	r1, r1, #13
 278 0128 0B43     		orrs	r3, r1
 279              	.LVL41:
 219:Generated_Source\PSoC4/CapSense_Adc_INT.c ****                     CY_SET_REG32(CapSense_SW_BYP_SEL_PTR, newRegValue);
 280              		.loc 1 219 0
 281 012a 1360     		str	r3, [r2]
 220:Generated_Source\PSoC4/CapSense_Adc_INT.c ****                     CyExitCriticalSection(interruptState);
 282              		.loc 1 220 0
 283 012c FFF7FEFF 		bl	CyExitCriticalSection
 284              	.LVL42:
 221:Generated_Source\PSoC4/CapSense_Adc_INT.c ****                     
 222:Generated_Source\PSoC4/CapSense_Adc_INT.c ****                     tVdda2Vref = (uint16)tmpResult;
 285              		.loc 1 222 0
 286 0130 A0B2     		uxth	r0, r4
 287 0132 184E     		ldr	r6, .L14+16
 223:Generated_Source\PSoC4/CapSense_Adc_INT.c ****                     /* Calibrate tVdda2Vref with Sink/Source mismatch with rounding */
 224:Generated_Source\PSoC4/CapSense_Adc_INT.c ****                     tVdda2Vref = (uint16)(((((uint32)tVdda2Vref << 1u) * tRecover) + ((uint32)tVssa
ARM GAS  C:\Users\dell\AppData\Local\Temp\ccyToLx4.s 			page 10


 288              		.loc 1 224 0
 289 0134 4400     		lsls	r4, r0, #1
 290              	.LVL43:
 291 0136 B088     		ldrh	r0, [r6, #4]
 292 0138 6043     		muls	r0, r4
 293 013a 3788     		ldrh	r7, [r6]
 294 013c 7C08     		lsrs	r4, r7, #1
 295 013e 0019     		adds	r0, r0, r4
 296 0140 3900     		movs	r1, r7
 297 0142 FFF7FEFF 		bl	__aeabi_uidiv
 298              	.LVL44:
 299 0146 83B2     		uxth	r3, r0
 300 0148 F380     		strh	r3, [r6, #6]
 225:Generated_Source\PSoC4/CapSense_Adc_INT.c ****                     /* Test whether the full range is 2-bits higher than adc resolution */
 226:Generated_Source\PSoC4/CapSense_Adc_INT.c ****                     tFull = (tVssa2Vref + tVdda2Vref);
 301              		.loc 1 226 0
 302 014a FA18     		adds	r2, r7, r3
 303 014c 7280     		strh	r2, [r6, #2]
 227:Generated_Source\PSoC4/CapSense_Adc_INT.c ****                     vMaxMv = CapSense_adcVrefMv +
 228:Generated_Source\PSoC4/CapSense_Adc_INT.c ****                             (((CapSense_adcVrefMv * tVdda2Vref) + (tVssa2Vref >> 1uL)) / tVssa2Vref
 304              		.loc 1 228 0
 305 014e 164A     		ldr	r2, .L14+36
 306 0150 1288     		ldrh	r2, [r2]
 307 0152 9046     		mov	r8, r2
 308 0154 5343     		muls	r3, r2
 309 0156 1819     		adds	r0, r3, r4
 310 0158 3900     		movs	r1, r7
 311 015a FFF7FEFF 		bl	__aeabi_idiv
 312              	.LVL45:
 227:Generated_Source\PSoC4/CapSense_Adc_INT.c ****                     vMaxMv = CapSense_adcVrefMv +
 313              		.loc 1 227 0
 314 015e 4044     		add	r0, r0, r8
 315 0160 3081     		strh	r0, [r6, #8]
 229:Generated_Source\PSoC4/CapSense_Adc_INT.c **** 
 230:Generated_Source\PSoC4/CapSense_Adc_INT.c ****                     CapSense_dsRam.adcStatus = CapSense_AdcSTATUS_IDLE;
 316              		.loc 1 230 0
 317 0162 2023     		movs	r3, #32
 318 0164 0A4A     		ldr	r2, .L14+12
 319 0166 D554     		strb	r5, [r2, r3]
 231:Generated_Source\PSoC4/CapSense_Adc_INT.c **** 
 232:Generated_Source\PSoC4/CapSense_Adc_INT.c ****                     break;
 320              		.loc 1 232 0
 321 0168 08E0     		b	.L1
 322              	.LVL46:
 323              	.L3:
 233:Generated_Source\PSoC4/CapSense_Adc_INT.c **** 
 234:Generated_Source\PSoC4/CapSense_Adc_INT.c ****             #endif /* (CapSense_ADC_FULLRANGE_MODE == CapSense_ADC_MEASURE_MODE) */
 235:Generated_Source\PSoC4/CapSense_Adc_INT.c **** 
 236:Generated_Source\PSoC4/CapSense_Adc_INT.c ****             default:
 237:Generated_Source\PSoC4/CapSense_Adc_INT.c ****                 /* If interrupt is called without defined ADC state, do nothing. */
 238:Generated_Source\PSoC4/CapSense_Adc_INT.c ****                 break;
 239:Generated_Source\PSoC4/CapSense_Adc_INT.c ****             }
 240:Generated_Source\PSoC4/CapSense_Adc_INT.c ****         }
 241:Generated_Source\PSoC4/CapSense_Adc_INT.c ****         else
 242:Generated_Source\PSoC4/CapSense_Adc_INT.c ****         {
 243:Generated_Source\PSoC4/CapSense_Adc_INT.c ****             CapSense_dsRam.adcStatus = CapSense_AdcSTATUS_OVERFLOW;
 324              		.loc 1 243 0
ARM GAS  C:\Users\dell\AppData\Local\Temp\ccyToLx4.s 			page 11


 325 016a 8021     		movs	r1, #128
 326 016c 2023     		movs	r3, #32
 327 016e 084A     		ldr	r2, .L14+12
 328 0170 D154     		strb	r1, [r2, r3]
 329 0172 03E0     		b	.L1
 330              	.L2:
 244:Generated_Source\PSoC4/CapSense_Adc_INT.c ****         }
 245:Generated_Source\PSoC4/CapSense_Adc_INT.c ****     }
 246:Generated_Source\PSoC4/CapSense_Adc_INT.c ****     else
 247:Generated_Source\PSoC4/CapSense_Adc_INT.c ****     {
 248:Generated_Source\PSoC4/CapSense_Adc_INT.c ****         CapSense_dsRam.adcStatus = CapSense_AdcSTATUS_IDLE;
 331              		.loc 1 248 0
 332 0174 0021     		movs	r1, #0
 333 0176 2023     		movs	r3, #32
 334 0178 054A     		ldr	r2, .L14+12
 335 017a D154     		strb	r1, [r2, r3]
 336              	.LVL47:
 337              	.L1:
 249:Generated_Source\PSoC4/CapSense_Adc_INT.c ****     }
 250:Generated_Source\PSoC4/CapSense_Adc_INT.c ****     #ifdef CapSense_ADC_EXIT_CALLBACK
 251:Generated_Source\PSoC4/CapSense_Adc_INT.c ****         CapSense_AdcExitCallback();
 252:Generated_Source\PSoC4/CapSense_Adc_INT.c ****     #endif /* CapSense_ADC_EXIT_CALLBACK */
 253:Generated_Source\PSoC4/CapSense_Adc_INT.c **** }
 338              		.loc 1 253 0
 339              		@ sp needed
 340 017c 04BC     		pop	{r2}
 341 017e 9046     		mov	r8, r2
 342 0180 F0BD     		pop	{r4, r5, r6, r7, pc}
 343              	.L15:
 344 0182 C046     		.align	2
 345              	.L14:
 346 0184 F8000B40 		.word	1074462968
 347 0188 F0000B40 		.word	1074462960
 348 018c E0000B40 		.word	1074462944
 349 0190 00000000 		.word	CapSense_dsRam
 350 0194 00000000 		.word	.LANCHOR0
 351 0198 FF030000 		.word	1023
 352 019c 94020B40 		.word	1074463380
 353 01a0 FFFFEEFF 		.word	-1114113
 354 01a4 88020B40 		.word	1074463368
 355 01a8 00000000 		.word	CapSense_adcVrefMv
 356              		.cfi_endproc
 357              	.LFE1:
 358              		.size	CapSense_AdcIntrHandler, .-CapSense_AdcIntrHandler
 359              		.bss
 360              		.align	1
 361              		.set	.LANCHOR0,. + 0
 362              		.type	tVssa2Vref.5066, %object
 363              		.size	tVssa2Vref.5066, 2
 364              	tVssa2Vref.5066:
 365 0000 0000     		.space	2
 366              		.type	tFull.5067, %object
 367              		.size	tFull.5067, 2
 368              	tFull.5067:
 369 0002 0000     		.space	2
 370              		.type	tRecover.5076, %object
 371              		.size	tRecover.5076, 2
ARM GAS  C:\Users\dell\AppData\Local\Temp\ccyToLx4.s 			page 12


 372              	tRecover.5076:
 373 0004 0000     		.space	2
 374              		.type	tVdda2Vref.5075, %object
 375              		.size	tVdda2Vref.5075, 2
 376              	tVdda2Vref.5075:
 377 0006 0000     		.space	2
 378              		.type	vMaxMv.5068, %object
 379              		.size	vMaxMv.5068, 2
 380              	vMaxMv.5068:
 381 0008 0000     		.space	2
 382              		.text
 383              	.Letext0:
 384              		.file 2 "Generated_Source\\PSoC4\\cytypes.h"
 385              		.file 3 "Generated_Source\\PSoC4\\CapSense_Configuration.h"
 386              		.file 4 "Generated_Source\\PSoC4\\CapSense_Structure.h"
 387              		.file 5 "Generated_Source\\PSoC4\\CapSense_Adc.h"
 388              		.file 6 "Generated_Source\\PSoC4\\CyLib.h"