ARM GAS  C:\Users\dell\AppData\Local\Temp\ccWEiAI7.s 			page 1


   1              		.syntax unified
   2              		.cpu cortex-m0plus
   3              		.fpu softvfp
   4              		.eabi_attribute 20, 1
   5              		.eabi_attribute 21, 1
   6              		.eabi_attribute 23, 3
   7              		.eabi_attribute 24, 1
   8              		.eabi_attribute 25, 1
   9              		.eabi_attribute 26, 1
  10              		.eabi_attribute 30, 1
  11              		.eabi_attribute 34, 0
  12              		.eabi_attribute 18, 4
  13              		.thumb
  14              		.syntax unified
  15              		.file	"CapSense_Filter.c"
  16              		.text
  17              	.Ltext0:
  18              		.cfi_sections	.debug_frame
  19              		.section	.text.CapSense_FtInitializeBaselineChannel,"ax",%progbits
  20              		.align	2
  21              		.global	CapSense_FtInitializeBaselineChannel
  22              		.code	16
  23              		.thumb_func
  24              		.type	CapSense_FtInitializeBaselineChannel, %function
  25              	CapSense_FtInitializeBaselineChannel:
  26              	.LFB10:
  27              		.file 1 "Generated_Source\\PSoC4\\CapSense_Filter.c"
   1:Generated_Source\PSoC4/CapSense_Filter.c **** /***************************************************************************//**
   2:Generated_Source\PSoC4/CapSense_Filter.c **** * \file CapSense_Filter.c
   3:Generated_Source\PSoC4/CapSense_Filter.c **** * \version 5.0
   4:Generated_Source\PSoC4/CapSense_Filter.c **** *
   5:Generated_Source\PSoC4/CapSense_Filter.c **** * \brief
   6:Generated_Source\PSoC4/CapSense_Filter.c **** *   This file contains the implementation source code to implement all
   7:Generated_Source\PSoC4/CapSense_Filter.c **** *   firmware filters.
   8:Generated_Source\PSoC4/CapSense_Filter.c **** *
   9:Generated_Source\PSoC4/CapSense_Filter.c **** * \see CapSense v5.0 Datasheet
  10:Generated_Source\PSoC4/CapSense_Filter.c **** *
  11:Generated_Source\PSoC4/CapSense_Filter.c **** *//*****************************************************************************
  12:Generated_Source\PSoC4/CapSense_Filter.c **** * Copyright (2016-2017), Cypress Semiconductor Corporation.
  13:Generated_Source\PSoC4/CapSense_Filter.c **** ********************************************************************************
  14:Generated_Source\PSoC4/CapSense_Filter.c **** * This software is owned by Cypress Semiconductor Corporation (Cypress) and is
  15:Generated_Source\PSoC4/CapSense_Filter.c **** * protected by and subject to worldwide patent protection (United States and
  16:Generated_Source\PSoC4/CapSense_Filter.c **** * foreign), United States copyright laws and international treaty provisions.
  17:Generated_Source\PSoC4/CapSense_Filter.c **** * Cypress hereby grants to licensee a personal, non-exclusive, non-transferable
  18:Generated_Source\PSoC4/CapSense_Filter.c **** * license to copy, use, modify, create derivative works of, and compile the
  19:Generated_Source\PSoC4/CapSense_Filter.c **** * Cypress Source Code and derivative works for the sole purpose of creating
  20:Generated_Source\PSoC4/CapSense_Filter.c **** * custom software in support of licensee product to be used only in conjunction
  21:Generated_Source\PSoC4/CapSense_Filter.c **** * with a Cypress integrated circuit as specified in the applicable agreement.
  22:Generated_Source\PSoC4/CapSense_Filter.c **** * Any reproduction, modification, translation, compilation, or representation of
  23:Generated_Source\PSoC4/CapSense_Filter.c **** * this software except as specified above is prohibited without the express
  24:Generated_Source\PSoC4/CapSense_Filter.c **** * written permission of Cypress.
  25:Generated_Source\PSoC4/CapSense_Filter.c **** *
  26:Generated_Source\PSoC4/CapSense_Filter.c **** * Disclaimer: CYPRESS MAKES NO WARRANTY OF ANY KIND, EXPRESS OR IMPLIED, WITH
  27:Generated_Source\PSoC4/CapSense_Filter.c **** * REGARD TO THIS MATERIAL, INCLUDING, BUT NOT LIMITED TO, THE IMPLIED
  28:Generated_Source\PSoC4/CapSense_Filter.c **** * WARRANTIES OF MERCHANTABILITY AND FITNESS FOR A PARTICULAR PURPOSE.
  29:Generated_Source\PSoC4/CapSense_Filter.c **** * Cypress reserves the right to make changes without further notice to the
  30:Generated_Source\PSoC4/CapSense_Filter.c **** * materials described herein. Cypress does not assume any liability arising out
ARM GAS  C:\Users\dell\AppData\Local\Temp\ccWEiAI7.s 			page 2


  31:Generated_Source\PSoC4/CapSense_Filter.c **** * of the application or use of any product or circuit described herein. Cypress
  32:Generated_Source\PSoC4/CapSense_Filter.c **** * does not authorize its products for use as critical components in life-support
  33:Generated_Source\PSoC4/CapSense_Filter.c **** * systems where a malfunction or failure may reasonably be expected to result in
  34:Generated_Source\PSoC4/CapSense_Filter.c **** * significant injury to the user. The inclusion of Cypress' product in a life-
  35:Generated_Source\PSoC4/CapSense_Filter.c **** * support systems application implies that the manufacturer assumes all risk of
  36:Generated_Source\PSoC4/CapSense_Filter.c **** * such use and in doing so indemnifies Cypress against all charges. Use may be
  37:Generated_Source\PSoC4/CapSense_Filter.c **** * limited by and subject to the applicable Cypress software license agreement.
  38:Generated_Source\PSoC4/CapSense_Filter.c **** *******************************************************************************/
  39:Generated_Source\PSoC4/CapSense_Filter.c **** 
  40:Generated_Source\PSoC4/CapSense_Filter.c **** #include "CapSense_Filter.h"
  41:Generated_Source\PSoC4/CapSense_Filter.c **** #include "CapSense_Configuration.h"
  42:Generated_Source\PSoC4/CapSense_Filter.c **** 
  43:Generated_Source\PSoC4/CapSense_Filter.c **** #if (0 != (CapSense_CSD_AUTOTUNE & CapSense_CSD_SS_TH_EN))
  44:Generated_Source\PSoC4/CapSense_Filter.c ****     #include "CapSense_SmartSense_LL.h"
  45:Generated_Source\PSoC4/CapSense_Filter.c **** #endif /* (0 != (CapSense_CSD_AUTOTUNE & CapSense_CSD_SS_TH_EN)) */
  46:Generated_Source\PSoC4/CapSense_Filter.c **** 
  47:Generated_Source\PSoC4/CapSense_Filter.c **** #if (CapSense_ENABLE == CapSense_SELF_TEST_EN)
  48:Generated_Source\PSoC4/CapSense_Filter.c ****     #include "CapSense_SelfTest.h"
  49:Generated_Source\PSoC4/CapSense_Filter.c **** #endif
  50:Generated_Source\PSoC4/CapSense_Filter.c **** 
  51:Generated_Source\PSoC4/CapSense_Filter.c **** /*******************************************************************************
  52:Generated_Source\PSoC4/CapSense_Filter.c **** * Function Name: CapSense_FtInitialize
  53:Generated_Source\PSoC4/CapSense_Filter.c **** ****************************************************************************//**
  54:Generated_Source\PSoC4/CapSense_Filter.c **** *
  55:Generated_Source\PSoC4/CapSense_Filter.c **** * \brief
  56:Generated_Source\PSoC4/CapSense_Filter.c **** *  Initializes all the firmware filter history, except the baseline filter.
  57:Generated_Source\PSoC4/CapSense_Filter.c **** *
  58:Generated_Source\PSoC4/CapSense_Filter.c **** * \details
  59:Generated_Source\PSoC4/CapSense_Filter.c **** *  Initializes all the firmware filter history, except the baseline filter.
  60:Generated_Source\PSoC4/CapSense_Filter.c **** *
  61:Generated_Source\PSoC4/CapSense_Filter.c **** *******************************************************************************/
  62:Generated_Source\PSoC4/CapSense_Filter.c **** void CapSense_FtInitialize(void)
  63:Generated_Source\PSoC4/CapSense_Filter.c **** {
  64:Generated_Source\PSoC4/CapSense_Filter.c ****     #if ((CapSense_ENABLE == CapSense_RC_FILTER_EN) || \
  65:Generated_Source\PSoC4/CapSense_Filter.c ****          (0u != (CapSense_CSD_AUTOTUNE & CapSense_CSD_SS_TH_EN)))
  66:Generated_Source\PSoC4/CapSense_Filter.c ****         CapSense_InitializeAllFilters();
  67:Generated_Source\PSoC4/CapSense_Filter.c ****     #endif /* ((CapSense_ENABLE == CapSense_RC_FILTER_EN) || \
  68:Generated_Source\PSoC4/CapSense_Filter.c ****                (0u != (CapSense_CSD_AUTOTUNE & CapSense_CSD_SS_TH_EN))) */
  69:Generated_Source\PSoC4/CapSense_Filter.c **** }
  70:Generated_Source\PSoC4/CapSense_Filter.c **** 
  71:Generated_Source\PSoC4/CapSense_Filter.c **** 
  72:Generated_Source\PSoC4/CapSense_Filter.c **** /*******************************************************************************
  73:Generated_Source\PSoC4/CapSense_Filter.c **** * Function Name: CapSense_UpdateAllBaselines
  74:Generated_Source\PSoC4/CapSense_Filter.c **** ****************************************************************************//**
  75:Generated_Source\PSoC4/CapSense_Filter.c **** *
  76:Generated_Source\PSoC4/CapSense_Filter.c **** * \brief
  77:Generated_Source\PSoC4/CapSense_Filter.c **** *  Updates the baseline for all the sensors in all the widgets.
  78:Generated_Source\PSoC4/CapSense_Filter.c **** *
  79:Generated_Source\PSoC4/CapSense_Filter.c **** * \details
  80:Generated_Source\PSoC4/CapSense_Filter.c **** *  Updates the baseline for all the sensors in all the widgets. Baseline updating is a
  81:Generated_Source\PSoC4/CapSense_Filter.c **** *  part of data processing performed by the process functions. So, no need to
  82:Generated_Source\PSoC4/CapSense_Filter.c **** *  call this function except a specific process flow is implemented.
  83:Generated_Source\PSoC4/CapSense_Filter.c **** *
  84:Generated_Source\PSoC4/CapSense_Filter.c **** *  This function ignores the value of the wdgtEnable register. Multiple calling
  85:Generated_Source\PSoC4/CapSense_Filter.c **** *  of this function (or any other function with a baseline updating task)
  86:Generated_Source\PSoC4/CapSense_Filter.c **** *  without scanning leads to unexpected behavior.
  87:Generated_Source\PSoC4/CapSense_Filter.c **** *
ARM GAS  C:\Users\dell\AppData\Local\Temp\ccWEiAI7.s 			page 3


  88:Generated_Source\PSoC4/CapSense_Filter.c **** *  If the Self-test library is enabled, this function executes the baseline duplication
  89:Generated_Source\PSoC4/CapSense_Filter.c **** *  test. Refer to CapSense_CheckBaselineDuplication() for details.
  90:Generated_Source\PSoC4/CapSense_Filter.c **** *
  91:Generated_Source\PSoC4/CapSense_Filter.c **** * \return
  92:Generated_Source\PSoC4/CapSense_Filter.c **** *  Returns the status of the update baseline operation of all the widgets:
  93:Generated_Source\PSoC4/CapSense_Filter.c **** *  - CYRET_SUCCESS - The operation is successfully completed.
  94:Generated_Source\PSoC4/CapSense_Filter.c **** *  - CYRET_BAD_DATA - The baseline processing failed.
  95:Generated_Source\PSoC4/CapSense_Filter.c **** *
  96:Generated_Source\PSoC4/CapSense_Filter.c **** *******************************************************************************/
  97:Generated_Source\PSoC4/CapSense_Filter.c **** cystatus CapSense_UpdateAllBaselines(void)
  98:Generated_Source\PSoC4/CapSense_Filter.c **** {
  99:Generated_Source\PSoC4/CapSense_Filter.c ****     uint32 widgetId;
 100:Generated_Source\PSoC4/CapSense_Filter.c ****     cystatus bslnStatus = CYRET_SUCCESS;
 101:Generated_Source\PSoC4/CapSense_Filter.c **** 
 102:Generated_Source\PSoC4/CapSense_Filter.c ****     for(widgetId = CapSense_TOTAL_WIDGETS; widgetId-- > 0u;)
 103:Generated_Source\PSoC4/CapSense_Filter.c ****     {
 104:Generated_Source\PSoC4/CapSense_Filter.c ****         bslnStatus |= CapSense_UpdateWidgetBaseline(widgetId);
 105:Generated_Source\PSoC4/CapSense_Filter.c ****     }
 106:Generated_Source\PSoC4/CapSense_Filter.c **** 
 107:Generated_Source\PSoC4/CapSense_Filter.c ****     return(bslnStatus);
 108:Generated_Source\PSoC4/CapSense_Filter.c **** }
 109:Generated_Source\PSoC4/CapSense_Filter.c **** 
 110:Generated_Source\PSoC4/CapSense_Filter.c **** 
 111:Generated_Source\PSoC4/CapSense_Filter.c **** /*******************************************************************************
 112:Generated_Source\PSoC4/CapSense_Filter.c **** * Function Name: CapSense_UpdateWidgetBaseline
 113:Generated_Source\PSoC4/CapSense_Filter.c **** ****************************************************************************//**
 114:Generated_Source\PSoC4/CapSense_Filter.c **** *
 115:Generated_Source\PSoC4/CapSense_Filter.c **** * \brief
 116:Generated_Source\PSoC4/CapSense_Filter.c **** *  Updates the baselines for all the sensors in a widget specified by the input
 117:Generated_Source\PSoC4/CapSense_Filter.c **** *  parameter.
 118:Generated_Source\PSoC4/CapSense_Filter.c **** *
 119:Generated_Source\PSoC4/CapSense_Filter.c **** * \details
 120:Generated_Source\PSoC4/CapSense_Filter.c **** *  This function performs exactly the same tasks as
 121:Generated_Source\PSoC4/CapSense_Filter.c **** *  CapSense_UpdateAllBaselines() but only for a specified widget.
 122:Generated_Source\PSoC4/CapSense_Filter.c **** *
 123:Generated_Source\PSoC4/CapSense_Filter.c **** *  This function ignores the value of the wdgtEnable register. Multiple calling
 124:Generated_Source\PSoC4/CapSense_Filter.c **** *  of this function (or any other function with a baseline updating task)
 125:Generated_Source\PSoC4/CapSense_Filter.c **** *  without scanning leads to unexpected behavior.
 126:Generated_Source\PSoC4/CapSense_Filter.c **** *
 127:Generated_Source\PSoC4/CapSense_Filter.c **** *  If the Self-test library is enabled, this function executes the baseline duplication
 128:Generated_Source\PSoC4/CapSense_Filter.c **** *  test. Refer to CapSense_CheckBaselineDuplication() for details.
 129:Generated_Source\PSoC4/CapSense_Filter.c **** *
 130:Generated_Source\PSoC4/CapSense_Filter.c **** * \param widgetId
 131:Generated_Source\PSoC4/CapSense_Filter.c **** *  Specifies the ID number of the widget to update the baseline of all the sensors
 132:Generated_Source\PSoC4/CapSense_Filter.c **** *  in the widget.
 133:Generated_Source\PSoC4/CapSense_Filter.c **** *  A macro for the widget ID can be found in the
 134:Generated_Source\PSoC4/CapSense_Filter.c **** *  CapSense Configuration header file defined as
 135:Generated_Source\PSoC4/CapSense_Filter.c **** *  CapSense_<WidgetName>_WDGT_ID.
 136:Generated_Source\PSoC4/CapSense_Filter.c **** *
 137:Generated_Source\PSoC4/CapSense_Filter.c **** * \return
 138:Generated_Source\PSoC4/CapSense_Filter.c **** *  Returns the status of the specified widget update baseline operation:
 139:Generated_Source\PSoC4/CapSense_Filter.c **** *  - CYRET_SUCCESS - The operation is successfully completed.
 140:Generated_Source\PSoC4/CapSense_Filter.c **** *  - CYRET_BAD_DATA - The baseline processing is failed.
 141:Generated_Source\PSoC4/CapSense_Filter.c **** *
 142:Generated_Source\PSoC4/CapSense_Filter.c **** *******************************************************************************/
 143:Generated_Source\PSoC4/CapSense_Filter.c **** cystatus CapSense_UpdateWidgetBaseline(uint32 widgetId)
 144:Generated_Source\PSoC4/CapSense_Filter.c **** {
ARM GAS  C:\Users\dell\AppData\Local\Temp\ccWEiAI7.s 			page 4


 145:Generated_Source\PSoC4/CapSense_Filter.c ****     uint32 sensorId;
 146:Generated_Source\PSoC4/CapSense_Filter.c ****     uint32 sensorsNumber;
 147:Generated_Source\PSoC4/CapSense_Filter.c **** 
 148:Generated_Source\PSoC4/CapSense_Filter.c ****     CapSense_FLASH_WD_STRUCT const *ptrWidget = &CapSense_dsFlash.wdgtArray[widgetId];
 149:Generated_Source\PSoC4/CapSense_Filter.c ****     cystatus bslnStatus = CYRET_SUCCESS;
 150:Generated_Source\PSoC4/CapSense_Filter.c **** 
 151:Generated_Source\PSoC4/CapSense_Filter.c ****     /* Find total amount of sensors in specified widget */
 152:Generated_Source\PSoC4/CapSense_Filter.c ****     sensorsNumber = CapSense_GET_SNS_CNT_BY_PTR(ptrWidget);
 153:Generated_Source\PSoC4/CapSense_Filter.c **** 
 154:Generated_Source\PSoC4/CapSense_Filter.c ****     for(sensorId = sensorsNumber; sensorId-- > 0u;)
 155:Generated_Source\PSoC4/CapSense_Filter.c ****     {
 156:Generated_Source\PSoC4/CapSense_Filter.c ****         bslnStatus |= CapSense_UpdateSensorBaseline(widgetId, sensorId);
 157:Generated_Source\PSoC4/CapSense_Filter.c ****     }
 158:Generated_Source\PSoC4/CapSense_Filter.c **** 
 159:Generated_Source\PSoC4/CapSense_Filter.c ****     return(bslnStatus);
 160:Generated_Source\PSoC4/CapSense_Filter.c **** }
 161:Generated_Source\PSoC4/CapSense_Filter.c **** 
 162:Generated_Source\PSoC4/CapSense_Filter.c **** 
 163:Generated_Source\PSoC4/CapSense_Filter.c **** /*******************************************************************************
 164:Generated_Source\PSoC4/CapSense_Filter.c **** * Function Name: CapSense_UpdateSensorBaseline
 165:Generated_Source\PSoC4/CapSense_Filter.c **** ****************************************************************************//**
 166:Generated_Source\PSoC4/CapSense_Filter.c **** *
 167:Generated_Source\PSoC4/CapSense_Filter.c **** * \brief
 168:Generated_Source\PSoC4/CapSense_Filter.c **** *  Updates the baseline for a sensor in a widget specified by the input parameters.
 169:Generated_Source\PSoC4/CapSense_Filter.c **** *
 170:Generated_Source\PSoC4/CapSense_Filter.c **** * \details
 171:Generated_Source\PSoC4/CapSense_Filter.c **** *  This function performs exactly the same tasks as
 172:Generated_Source\PSoC4/CapSense_Filter.c **** *  CapSense_UpdateAllBaselines() and
 173:Generated_Source\PSoC4/CapSense_Filter.c **** *  CapSense_UpdateWidgetBaseline() but only for a specified sensor.
 174:Generated_Source\PSoC4/CapSense_Filter.c **** *
 175:Generated_Source\PSoC4/CapSense_Filter.c **** *  This function ignores the value of the wdgtEnable register. Multiple calling
 176:Generated_Source\PSoC4/CapSense_Filter.c **** *  of this function (or any other function with a baseline updating task)
 177:Generated_Source\PSoC4/CapSense_Filter.c **** *  without scanning leads to unexpected behavior.
 178:Generated_Source\PSoC4/CapSense_Filter.c **** *
 179:Generated_Source\PSoC4/CapSense_Filter.c **** *  If the Self-test library is enabled, this function executes the baseline duplication
 180:Generated_Source\PSoC4/CapSense_Filter.c **** *  test. Refer to CapSense_CheckBaselineDuplication() for details.
 181:Generated_Source\PSoC4/CapSense_Filter.c **** *
 182:Generated_Source\PSoC4/CapSense_Filter.c **** * \param widgetId
 183:Generated_Source\PSoC4/CapSense_Filter.c **** *  Specifies the ID number of the widget to update the baseline of the sensor
 184:Generated_Source\PSoC4/CapSense_Filter.c **** *  specified by the sensorId argument.
 185:Generated_Source\PSoC4/CapSense_Filter.c **** *  A macro for the widget ID can be found in the CapSense Configuration header
 186:Generated_Source\PSoC4/CapSense_Filter.c **** *  file defined as CapSense_<WidgetName>_WDGT_ID.
 187:Generated_Source\PSoC4/CapSense_Filter.c **** *
 188:Generated_Source\PSoC4/CapSense_Filter.c **** * \param sensorId
 189:Generated_Source\PSoC4/CapSense_Filter.c **** *  Specifies the ID number of the sensor within the widget to update its baseline.
 190:Generated_Source\PSoC4/CapSense_Filter.c **** *  A macro for the sensor ID within a specified widget can be found in the
 191:Generated_Source\PSoC4/CapSense_Filter.c **** *  CapSense Configuration header file defined as
 192:Generated_Source\PSoC4/CapSense_Filter.c **** *  CapSense_<WidgetName>_SNS<SensorNumber>_ID.
 193:Generated_Source\PSoC4/CapSense_Filter.c **** *
 194:Generated_Source\PSoC4/CapSense_Filter.c **** * \return
 195:Generated_Source\PSoC4/CapSense_Filter.c **** *  Returns the status of the specified sensor update baseline operation:
 196:Generated_Source\PSoC4/CapSense_Filter.c **** *  - CYRET_SUCCESS - The operation is successfully completed.
 197:Generated_Source\PSoC4/CapSense_Filter.c **** *  - CYRET_BAD_DATA - The baseline processing failed.
 198:Generated_Source\PSoC4/CapSense_Filter.c **** *
 199:Generated_Source\PSoC4/CapSense_Filter.c **** *******************************************************************************/
 200:Generated_Source\PSoC4/CapSense_Filter.c **** cystatus CapSense_UpdateSensorBaseline(uint32 widgetId, uint32 sensorId)
 201:Generated_Source\PSoC4/CapSense_Filter.c **** {
ARM GAS  C:\Users\dell\AppData\Local\Temp\ccWEiAI7.s 			page 5


 202:Generated_Source\PSoC4/CapSense_Filter.c ****     uint32 result = CYRET_SUCCESS;
 203:Generated_Source\PSoC4/CapSense_Filter.c **** 
 204:Generated_Source\PSoC4/CapSense_Filter.c ****     CapSense_RAM_SNS_STRUCT *ptrSensor = NULL;
 205:Generated_Source\PSoC4/CapSense_Filter.c ****     CapSense_FLASH_WD_STRUCT const *ptrWidget = &CapSense_dsFlash.wdgtArray[widgetId];
 206:Generated_Source\PSoC4/CapSense_Filter.c ****     CapSense_RAM_WD_BASE_STRUCT *ptrWidgetRam = (CapSense_RAM_WD_BASE_STRUCT *)ptrWidget->ptr2WdgtR
 207:Generated_Source\PSoC4/CapSense_Filter.c **** 
 208:Generated_Source\PSoC4/CapSense_Filter.c ****     /* Find pointer to specified sensor object */
 209:Generated_Source\PSoC4/CapSense_Filter.c ****     ptrSensor = ptrWidget->ptr2SnsRam;
 210:Generated_Source\PSoC4/CapSense_Filter.c ****     ptrSensor = &ptrSensor[sensorId];
 211:Generated_Source\PSoC4/CapSense_Filter.c ****     result = CapSense_FtUpdateBaseline(ptrWidgetRam, ptrSensor, (uint32)ptrWidget->wdgtType);
 212:Generated_Source\PSoC4/CapSense_Filter.c **** 
 213:Generated_Source\PSoC4/CapSense_Filter.c ****     #if (CapSense_ENABLE == CapSense_TST_BSLN_DUPLICATION_EN)
 214:Generated_Source\PSoC4/CapSense_Filter.c ****         if (CYRET_SUCCESS != result)
 215:Generated_Source\PSoC4/CapSense_Filter.c ****         {
 216:Generated_Source\PSoC4/CapSense_Filter.c ****             result = CYRET_BAD_DATA;
 217:Generated_Source\PSoC4/CapSense_Filter.c ****             CapSense_UpdateTestResultBaselineDuplication(widgetId, sensorId);
 218:Generated_Source\PSoC4/CapSense_Filter.c ****         }
 219:Generated_Source\PSoC4/CapSense_Filter.c ****     #endif /* (CapSense_ENABLE == CapSense_TST_BSLN_DUPLICATION_EN) */
 220:Generated_Source\PSoC4/CapSense_Filter.c **** 
 221:Generated_Source\PSoC4/CapSense_Filter.c ****     return result;
 222:Generated_Source\PSoC4/CapSense_Filter.c **** }
 223:Generated_Source\PSoC4/CapSense_Filter.c **** 
 224:Generated_Source\PSoC4/CapSense_Filter.c **** /*******************************************************************************
 225:Generated_Source\PSoC4/CapSense_Filter.c **** * Function Name: CapSense_FtUpdateBaseline
 226:Generated_Source\PSoC4/CapSense_Filter.c **** ****************************************************************************//**
 227:Generated_Source\PSoC4/CapSense_Filter.c **** *
 228:Generated_Source\PSoC4/CapSense_Filter.c **** * \brief
 229:Generated_Source\PSoC4/CapSense_Filter.c **** *  Updates the baseline for a sensor specified by an input parameter.
 230:Generated_Source\PSoC4/CapSense_Filter.c **** *
 231:Generated_Source\PSoC4/CapSense_Filter.c **** * \details
 232:Generated_Source\PSoC4/CapSense_Filter.c **** *  Check a matching of present baseline and its inverse duplication. If they
 233:Generated_Source\PSoC4/CapSense_Filter.c **** *  match then updates the baseline for a sensor specified by an input parameter.
 234:Generated_Source\PSoC4/CapSense_Filter.c **** *  If don't match the function return CapSense_TST_BSLN_DUPLICATION
 235:Generated_Source\PSoC4/CapSense_Filter.c **** *  result and don't update baseline.
 236:Generated_Source\PSoC4/CapSense_Filter.c **** *
 237:Generated_Source\PSoC4/CapSense_Filter.c **** * \param ptrWidgetRam
 238:Generated_Source\PSoC4/CapSense_Filter.c **** *  The pointer to the widget RAM structure where all the widget parameters
 239:Generated_Source\PSoC4/CapSense_Filter.c **** *  are stored.
 240:Generated_Source\PSoC4/CapSense_Filter.c **** *
 241:Generated_Source\PSoC4/CapSense_Filter.c **** * \param ptrSensor
 242:Generated_Source\PSoC4/CapSense_Filter.c **** *  The pointer to the sensor RAM structure where all the sensor parameters
 243:Generated_Source\PSoC4/CapSense_Filter.c **** *  are stored.
 244:Generated_Source\PSoC4/CapSense_Filter.c **** *
 245:Generated_Source\PSoC4/CapSense_Filter.c **** * \param wdType
 246:Generated_Source\PSoC4/CapSense_Filter.c **** *  Specifies the type of a widget.
 247:Generated_Source\PSoC4/CapSense_Filter.c **** *
 248:Generated_Source\PSoC4/CapSense_Filter.c **** * \return
 249:Generated_Source\PSoC4/CapSense_Filter.c **** *  Returns a status indicating whether the baseline has been updated:
 250:Generated_Source\PSoC4/CapSense_Filter.c **** *  - CYRET_SUCCESS if baseline updating was successful.
 251:Generated_Source\PSoC4/CapSense_Filter.c **** *  - CapSense_PROCESS_BASELINE_FAILED if present sensor's any channel
 252:Generated_Source\PSoC4/CapSense_Filter.c **** *    baseline and its inversion doesn't matched.
 253:Generated_Source\PSoC4/CapSense_Filter.c **** *
 254:Generated_Source\PSoC4/CapSense_Filter.c **** *******************************************************************************/
 255:Generated_Source\PSoC4/CapSense_Filter.c **** uint32 CapSense_FtUpdateBaseline(
 256:Generated_Source\PSoC4/CapSense_Filter.c ****                                 CapSense_RAM_WD_BASE_STRUCT *ptrWidgetRam,
 257:Generated_Source\PSoC4/CapSense_Filter.c ****                                 CapSense_RAM_SNS_STRUCT *ptrSensor,
 258:Generated_Source\PSoC4/CapSense_Filter.c ****                                 uint32 wdType)
ARM GAS  C:\Users\dell\AppData\Local\Temp\ccWEiAI7.s 			page 6


 259:Generated_Source\PSoC4/CapSense_Filter.c **** {
 260:Generated_Source\PSoC4/CapSense_Filter.c ****     uint32 sign;
 261:Generated_Source\PSoC4/CapSense_Filter.c ****     uint32 difference;
 262:Generated_Source\PSoC4/CapSense_Filter.c ****     uint32 freqChannel;
 263:Generated_Source\PSoC4/CapSense_Filter.c ****     uint32 baselineCoeff;
 264:Generated_Source\PSoC4/CapSense_Filter.c ****     uint32 result = CYRET_SUCCESS;
 265:Generated_Source\PSoC4/CapSense_Filter.c **** 
 266:Generated_Source\PSoC4/CapSense_Filter.c ****     #if (CapSense_TOTAL_WIDGETS)
 267:Generated_Source\PSoC4/CapSense_Filter.c ****         uint32 history;
 268:Generated_Source\PSoC4/CapSense_Filter.c ****     #endif /* (CapSense_TOTAL_WIDGETS) */
 269:Generated_Source\PSoC4/CapSense_Filter.c **** 
 270:Generated_Source\PSoC4/CapSense_Filter.c ****     /* Apply baseline to every channel in sensor */
 271:Generated_Source\PSoC4/CapSense_Filter.c ****     for(freqChannel = CapSense_NUM_SCAN_FREQS; freqChannel-- > 0u;)
 272:Generated_Source\PSoC4/CapSense_Filter.c ****     {
 273:Generated_Source\PSoC4/CapSense_Filter.c ****         #if (CapSense_ENABLE == CapSense_TST_BSLN_DUPLICATION_EN)
 274:Generated_Source\PSoC4/CapSense_Filter.c ****             if (ptrSensor->bslnInv[freqChannel] != ((uint16) ~(ptrSensor->bsln[freqChannel])))
 275:Generated_Source\PSoC4/CapSense_Filter.c ****             {
 276:Generated_Source\PSoC4/CapSense_Filter.c ****                 result = CapSense_PROCESS_BASELINE_FAILED;
 277:Generated_Source\PSoC4/CapSense_Filter.c ****             }
 278:Generated_Source\PSoC4/CapSense_Filter.c ****             else
 279:Generated_Source\PSoC4/CapSense_Filter.c ****             {
 280:Generated_Source\PSoC4/CapSense_Filter.c ****         #endif /* (CapSense_ENABLE == CapSense_TST_BSLN_DUPLICATION_EN) */
 281:Generated_Source\PSoC4/CapSense_Filter.c **** 
 282:Generated_Source\PSoC4/CapSense_Filter.c ****         /* Calculate signal value and its sign */
 283:Generated_Source\PSoC4/CapSense_Filter.c ****         if(ptrSensor->raw[freqChannel] >= ptrSensor->bsln[freqChannel])
 284:Generated_Source\PSoC4/CapSense_Filter.c ****         {
 285:Generated_Source\PSoC4/CapSense_Filter.c ****             difference = (uint32)ptrSensor->raw[freqChannel] - (uint32)ptrSensor->bsln[freqChannel]
 286:Generated_Source\PSoC4/CapSense_Filter.c ****             sign = 1u;
 287:Generated_Source\PSoC4/CapSense_Filter.c ****             ptrSensor->negBslnRstCnt[freqChannel] = 0u;
 288:Generated_Source\PSoC4/CapSense_Filter.c ****         }
 289:Generated_Source\PSoC4/CapSense_Filter.c ****         else
 290:Generated_Source\PSoC4/CapSense_Filter.c ****         {
 291:Generated_Source\PSoC4/CapSense_Filter.c ****             difference = (uint32)ptrSensor->bsln[freqChannel] - (uint32)ptrSensor->raw[freqChannel]
 292:Generated_Source\PSoC4/CapSense_Filter.c ****             sign = 0u;
 293:Generated_Source\PSoC4/CapSense_Filter.c ****         }
 294:Generated_Source\PSoC4/CapSense_Filter.c **** 
 295:Generated_Source\PSoC4/CapSense_Filter.c ****         /* Reset baseline if condition is met */
 296:Generated_Source\PSoC4/CapSense_Filter.c ****         if((sign == 0u) && (difference > (uint32) ptrWidgetRam->nNoiseTh))
 297:Generated_Source\PSoC4/CapSense_Filter.c ****         {
 298:Generated_Source\PSoC4/CapSense_Filter.c ****             if(ptrSensor->negBslnRstCnt[freqChannel] >= ptrWidgetRam->lowBslnRst)
 299:Generated_Source\PSoC4/CapSense_Filter.c ****             {
 300:Generated_Source\PSoC4/CapSense_Filter.c ****                 CapSense_FtInitializeBaselineChannel(ptrSensor, wdType, freqChannel);
 301:Generated_Source\PSoC4/CapSense_Filter.c ****             }
 302:Generated_Source\PSoC4/CapSense_Filter.c ****             else
 303:Generated_Source\PSoC4/CapSense_Filter.c ****             {
 304:Generated_Source\PSoC4/CapSense_Filter.c ****                 ptrSensor->negBslnRstCnt[freqChannel]++;
 305:Generated_Source\PSoC4/CapSense_Filter.c ****             }
 306:Generated_Source\PSoC4/CapSense_Filter.c ****         }
 307:Generated_Source\PSoC4/CapSense_Filter.c ****         else
 308:Generated_Source\PSoC4/CapSense_Filter.c ****         {
 309:Generated_Source\PSoC4/CapSense_Filter.c ****             #if (!CapSense_SENSOR_AUTO_RESET_EN)
 310:Generated_Source\PSoC4/CapSense_Filter.c ****                 /* Update baseline only if signal is in range between noiseThreshold and negativeno
 311:Generated_Source\PSoC4/CapSense_Filter.c ****                 if ((difference <= (uint32)ptrWidgetRam->noiseTh) ||
 312:Generated_Source\PSoC4/CapSense_Filter.c ****                     ((difference < (uint32) ptrWidgetRam->nNoiseTh) && (sign == 0u)))
 313:Generated_Source\PSoC4/CapSense_Filter.c ****                 {
 314:Generated_Source\PSoC4/CapSense_Filter.c ****             #endif /* (CapSense_CSD_AUTO_RESET == CapSense_CSD_AUTO_RESET_DISABLE) */
 315:Generated_Source\PSoC4/CapSense_Filter.c **** 
ARM GAS  C:\Users\dell\AppData\Local\Temp\ccWEiAI7.s 			page 7


 316:Generated_Source\PSoC4/CapSense_Filter.c ****             #if (CapSense_BASELINE_TYPE == CapSense_IIR_BASELINE)
 317:Generated_Source\PSoC4/CapSense_Filter.c ****                 /* Calculate baseline value */
 318:Generated_Source\PSoC4/CapSense_Filter.c ****                 if ((CapSense_WD_TYPE_ENUM)wdType != CapSense_WD_PROXIMITY_E)
 319:Generated_Source\PSoC4/CapSense_Filter.c ****                 {
 320:Generated_Source\PSoC4/CapSense_Filter.c ****                     #if (CapSense_REGULAR_SENSOR_EN)
 321:Generated_Source\PSoC4/CapSense_Filter.c ****                         #if (CapSense_REGULAR_IIR_BL_TYPE == CapSense_IIR_FILTER_PERFORMANCE)
 322:Generated_Source\PSoC4/CapSense_Filter.c ****                             history = (uint32) ptrSensor->bsln[freqChannel] << 8u;
 323:Generated_Source\PSoC4/CapSense_Filter.c ****                             history |= ptrSensor->bslnExt[freqChannel];
 324:Generated_Source\PSoC4/CapSense_Filter.c ****                         #else
 325:Generated_Source\PSoC4/CapSense_Filter.c ****                             history = ptrSensor->bsln[freqChannel];
 326:Generated_Source\PSoC4/CapSense_Filter.c ****                         #endif /* (CapSense_REGULAR_IIR_BL_TYPE == CapSense_IIR_FILTER_PERFORMANCE)
 327:Generated_Source\PSoC4/CapSense_Filter.c **** 
 328:Generated_Source\PSoC4/CapSense_Filter.c ****                         #if (CapSense_ENABLE == CapSense_WD_BSLN_COEFF_EN)
 329:Generated_Source\PSoC4/CapSense_Filter.c ****                             baselineCoeff = ptrWidgetRam->bslnCoeff;
 330:Generated_Source\PSoC4/CapSense_Filter.c ****                         #else /* (CapSense_ENABLE == CapSense_WD_BSLN_COEFF_EN) */
 331:Generated_Source\PSoC4/CapSense_Filter.c ****                             baselineCoeff = CapSense_REGULAR_IIR_BL_N;
 332:Generated_Source\PSoC4/CapSense_Filter.c ****                         #endif /* (CapSense_ENABLE == CapSense_WD_BSLN_COEFF_EN) */
 333:Generated_Source\PSoC4/CapSense_Filter.c **** 
 334:Generated_Source\PSoC4/CapSense_Filter.c ****                         history =  CapSense_FtIIR1stOrder(
 335:Generated_Source\PSoC4/CapSense_Filter.c ****                                         (uint32)ptrSensor->raw[freqChannel],
 336:Generated_Source\PSoC4/CapSense_Filter.c ****                                         history, baselineCoeff,
 337:Generated_Source\PSoC4/CapSense_Filter.c ****                                         CapSense_REGULAR_IIR_BL_SHIFT);
 338:Generated_Source\PSoC4/CapSense_Filter.c **** 
 339:Generated_Source\PSoC4/CapSense_Filter.c ****                         #if (CapSense_REGULAR_IIR_BL_TYPE == CapSense_IIR_FILTER_PERFORMANCE)
 340:Generated_Source\PSoC4/CapSense_Filter.c ****                             ptrSensor->bsln[freqChannel] = LO16(history >> 8u);
 341:Generated_Source\PSoC4/CapSense_Filter.c ****                             ptrSensor->bslnExt[freqChannel] = LO8(history);
 342:Generated_Source\PSoC4/CapSense_Filter.c ****                         #else
 343:Generated_Source\PSoC4/CapSense_Filter.c ****                             ptrSensor->bsln[freqChannel] = LO16(history);
 344:Generated_Source\PSoC4/CapSense_Filter.c ****                         #endif /* (CapSense_REGULAR_IIR_BL_TYPE == CapSense_IIR_FILTER_PERFORMANCE)
 345:Generated_Source\PSoC4/CapSense_Filter.c ****                     #endif /* (CapSense_REGULAR_SENSOR_EN) */
 346:Generated_Source\PSoC4/CapSense_Filter.c ****                 }
 347:Generated_Source\PSoC4/CapSense_Filter.c ****                 else
 348:Generated_Source\PSoC4/CapSense_Filter.c ****                 {
 349:Generated_Source\PSoC4/CapSense_Filter.c ****                     #if (CapSense_PROXIMITY_SENSOR_EN)
 350:Generated_Source\PSoC4/CapSense_Filter.c ****                         #if (CapSense_PROX_IIR_BL_TYPE == CapSense_IIR_FILTER_PERFORMANCE)
 351:Generated_Source\PSoC4/CapSense_Filter.c ****                             history = (uint32) ptrSensor->bsln[freqChannel] << 8u;
 352:Generated_Source\PSoC4/CapSense_Filter.c ****                             history |= ptrSensor->bslnExt[freqChannel];
 353:Generated_Source\PSoC4/CapSense_Filter.c ****                         #else
 354:Generated_Source\PSoC4/CapSense_Filter.c ****                             history = (uint32) ptrSensor->bsln[freqChannel];
 355:Generated_Source\PSoC4/CapSense_Filter.c ****                         #endif /* (CapSense_PROX_IIR_BL_TYPE == CapSense_IIR_FILTER_PERFORMANCE) */
 356:Generated_Source\PSoC4/CapSense_Filter.c **** 
 357:Generated_Source\PSoC4/CapSense_Filter.c ****                         #if (CapSense_ENABLE == CapSense_WD_BSLN_COEFF_EN)
 358:Generated_Source\PSoC4/CapSense_Filter.c ****                             baselineCoeff = ptrWidgetRam->bslnCoeff;
 359:Generated_Source\PSoC4/CapSense_Filter.c ****                         #else /* (CapSense_ENABLE == CapSense_WD_BSLN_COEFF_EN) */
 360:Generated_Source\PSoC4/CapSense_Filter.c ****                             baselineCoeff = CapSense_PROX_IIR_BL_N;
 361:Generated_Source\PSoC4/CapSense_Filter.c ****                         #endif /* (CapSense_ENABLE == CapSense_WD_BSLN_COEFF_EN) */
 362:Generated_Source\PSoC4/CapSense_Filter.c **** 
 363:Generated_Source\PSoC4/CapSense_Filter.c ****                         history = CapSense_FtIIR1stOrder(
 364:Generated_Source\PSoC4/CapSense_Filter.c ****                                         (uint32)ptrSensor->raw[freqChannel],
 365:Generated_Source\PSoC4/CapSense_Filter.c ****                                         history, baselineCoeff,
 366:Generated_Source\PSoC4/CapSense_Filter.c ****                                         CapSense_PROX_IIR_BL_SHIFT);
 367:Generated_Source\PSoC4/CapSense_Filter.c **** 
 368:Generated_Source\PSoC4/CapSense_Filter.c ****                         #if (CapSense_PROX_IIR_BL_TYPE == CapSense_IIR_FILTER_PERFORMANCE)
 369:Generated_Source\PSoC4/CapSense_Filter.c ****                             ptrSensor->bsln[freqChannel] = LO16(history >> 8u);
 370:Generated_Source\PSoC4/CapSense_Filter.c ****                             ptrSensor->bslnExt[freqChannel] = LO8(history);
 371:Generated_Source\PSoC4/CapSense_Filter.c ****                         #else
 372:Generated_Source\PSoC4/CapSense_Filter.c ****                             ptrSensor->bsln[freqChannel] = LO16(history);
ARM GAS  C:\Users\dell\AppData\Local\Temp\ccWEiAI7.s 			page 8


 373:Generated_Source\PSoC4/CapSense_Filter.c ****                         #endif /* (CapSense_PROX_IIR_BL_TYPE == CapSense_IIR_FILTER_PERFORMANCE) */
 374:Generated_Source\PSoC4/CapSense_Filter.c ****                     #endif /* (CapSense_PROX_SENSOR_EN) */
 375:Generated_Source\PSoC4/CapSense_Filter.c ****                 }
 376:Generated_Source\PSoC4/CapSense_Filter.c ****             #else /* (CapSense_CSD_BASELINE_TYPE == CapSense_IIR_BASELINE) */
 377:Generated_Source\PSoC4/CapSense_Filter.c **** 
 378:Generated_Source\PSoC4/CapSense_Filter.c ****                 /******************************************************************
 379:Generated_Source\PSoC4/CapSense_Filter.c ****                 * This is the place where the bucket algorithm should be implemented.
 380:Generated_Source\PSoC4/CapSense_Filter.c ****                 * The bucket method will be implemented in future Component version.
 381:Generated_Source\PSoC4/CapSense_Filter.c ****                 *******************************************************************/
 382:Generated_Source\PSoC4/CapSense_Filter.c **** 
 383:Generated_Source\PSoC4/CapSense_Filter.c ****             #endif /* (CapSense_CSD_BASELINE_TYPE == CapSense_IIR_BASELINE) */
 384:Generated_Source\PSoC4/CapSense_Filter.c **** 
 385:Generated_Source\PSoC4/CapSense_Filter.c ****             #if (!CapSense_SENSOR_AUTO_RESET_EN)
 386:Generated_Source\PSoC4/CapSense_Filter.c ****                 }
 387:Generated_Source\PSoC4/CapSense_Filter.c ****             #endif /* (!CapSense_SENSOR_AUTO_RESET_EN) */
 388:Generated_Source\PSoC4/CapSense_Filter.c ****         }
 389:Generated_Source\PSoC4/CapSense_Filter.c **** 
 390:Generated_Source\PSoC4/CapSense_Filter.c ****         #if (CapSense_ENABLE == CapSense_TST_BSLN_DUPLICATION_EN)
 391:Generated_Source\PSoC4/CapSense_Filter.c ****             /* Update baseline inversion of every channel in sensor */
 392:Generated_Source\PSoC4/CapSense_Filter.c ****             ptrSensor->bslnInv[freqChannel] = ~(ptrSensor->bsln[freqChannel]);
 393:Generated_Source\PSoC4/CapSense_Filter.c ****             }
 394:Generated_Source\PSoC4/CapSense_Filter.c ****         #endif /* (CapSense_ENABLE == CapSense_TST_BSLN_DUPLICATION_EN) */
 395:Generated_Source\PSoC4/CapSense_Filter.c **** 
 396:Generated_Source\PSoC4/CapSense_Filter.c ****     }
 397:Generated_Source\PSoC4/CapSense_Filter.c ****     return result;
 398:Generated_Source\PSoC4/CapSense_Filter.c **** }
 399:Generated_Source\PSoC4/CapSense_Filter.c **** 
 400:Generated_Source\PSoC4/CapSense_Filter.c **** 
 401:Generated_Source\PSoC4/CapSense_Filter.c **** /*******************************************************************************
 402:Generated_Source\PSoC4/CapSense_Filter.c **** * Function Name: CapSense_InitializeAllBaselines
 403:Generated_Source\PSoC4/CapSense_Filter.c **** ****************************************************************************//**
 404:Generated_Source\PSoC4/CapSense_Filter.c **** *
 405:Generated_Source\PSoC4/CapSense_Filter.c **** * \brief
 406:Generated_Source\PSoC4/CapSense_Filter.c **** *  Initializes (or re-initializes) the baselines of all the sensors of all the widgets.
 407:Generated_Source\PSoC4/CapSense_Filter.c **** *
 408:Generated_Source\PSoC4/CapSense_Filter.c **** * \details
 409:Generated_Source\PSoC4/CapSense_Filter.c **** *  Initializes the baseline for all the sensors of all the widgets. Also, this function
 410:Generated_Source\PSoC4/CapSense_Filter.c **** *  can be used to re-initialize baselines. CapSense_Start() calls this
 411:Generated_Source\PSoC4/CapSense_Filter.c **** *  API as part of CapSense operation initialization.
 412:Generated_Source\PSoC4/CapSense_Filter.c **** *
 413:Generated_Source\PSoC4/CapSense_Filter.c **** *  If any raw count filter is enabled, make sure the raw count filter history is
 414:Generated_Source\PSoC4/CapSense_Filter.c **** *  initialized as well using one of these functions:
 415:Generated_Source\PSoC4/CapSense_Filter.c **** *  - CapSense_InitializeAllFilters().
 416:Generated_Source\PSoC4/CapSense_Filter.c **** *  - CapSense_InitializeWidgetFilter().
 417:Generated_Source\PSoC4/CapSense_Filter.c **** *
 418:Generated_Source\PSoC4/CapSense_Filter.c **** *******************************************************************************/
 419:Generated_Source\PSoC4/CapSense_Filter.c **** void CapSense_InitializeAllBaselines(void)
 420:Generated_Source\PSoC4/CapSense_Filter.c **** {
 421:Generated_Source\PSoC4/CapSense_Filter.c ****     uint32 widgetId;
 422:Generated_Source\PSoC4/CapSense_Filter.c **** 
 423:Generated_Source\PSoC4/CapSense_Filter.c ****     for(widgetId = CapSense_TOTAL_WIDGETS; widgetId-- > 0u;)
 424:Generated_Source\PSoC4/CapSense_Filter.c ****     {
 425:Generated_Source\PSoC4/CapSense_Filter.c ****         CapSense_InitializeWidgetBaseline(widgetId);
 426:Generated_Source\PSoC4/CapSense_Filter.c ****     }
 427:Generated_Source\PSoC4/CapSense_Filter.c **** }
 428:Generated_Source\PSoC4/CapSense_Filter.c **** 
 429:Generated_Source\PSoC4/CapSense_Filter.c **** 
ARM GAS  C:\Users\dell\AppData\Local\Temp\ccWEiAI7.s 			page 9


 430:Generated_Source\PSoC4/CapSense_Filter.c **** /*******************************************************************************
 431:Generated_Source\PSoC4/CapSense_Filter.c **** * Function Name: CapSense_InitializeWidgetBaseline
 432:Generated_Source\PSoC4/CapSense_Filter.c **** ****************************************************************************//**
 433:Generated_Source\PSoC4/CapSense_Filter.c **** *
 434:Generated_Source\PSoC4/CapSense_Filter.c **** * \brief
 435:Generated_Source\PSoC4/CapSense_Filter.c **** *  Initializes (or re-initializes) the baselines of all the sensors in a widget
 436:Generated_Source\PSoC4/CapSense_Filter.c **** *  specified by the input parameter.
 437:Generated_Source\PSoC4/CapSense_Filter.c **** *
 438:Generated_Source\PSoC4/CapSense_Filter.c **** * \details
 439:Generated_Source\PSoC4/CapSense_Filter.c **** *  Initializes (or re-initializes) the baseline for all the sensors of the
 440:Generated_Source\PSoC4/CapSense_Filter.c **** *  specified widget.
 441:Generated_Source\PSoC4/CapSense_Filter.c **** *
 442:Generated_Source\PSoC4/CapSense_Filter.c **** *  If any raw count filter is enabled, make sure the raw count filter history is
 443:Generated_Source\PSoC4/CapSense_Filter.c **** *  initialized as well using one of these functions:
 444:Generated_Source\PSoC4/CapSense_Filter.c **** *  - CapSense_InitializeAllFilters().
 445:Generated_Source\PSoC4/CapSense_Filter.c **** *  - CapSense_InitializeWidgetFilter().
 446:Generated_Source\PSoC4/CapSense_Filter.c **** *
 447:Generated_Source\PSoC4/CapSense_Filter.c **** * \param widgetId
 448:Generated_Source\PSoC4/CapSense_Filter.c **** *  Specifies the ID number of a widget to initialize the baseline of all the sensors
 449:Generated_Source\PSoC4/CapSense_Filter.c **** *  in the widget.
 450:Generated_Source\PSoC4/CapSense_Filter.c **** *  A macro for the widget ID can be found in the
 451:Generated_Source\PSoC4/CapSense_Filter.c **** *  CapSense Configuration header file defined as
 452:Generated_Source\PSoC4/CapSense_Filter.c **** *  CapSense_<WidgetName>_WDGT_ID.
 453:Generated_Source\PSoC4/CapSense_Filter.c **** *
 454:Generated_Source\PSoC4/CapSense_Filter.c **** *******************************************************************************/
 455:Generated_Source\PSoC4/CapSense_Filter.c **** void CapSense_InitializeWidgetBaseline(uint32 widgetId)
 456:Generated_Source\PSoC4/CapSense_Filter.c **** {
 457:Generated_Source\PSoC4/CapSense_Filter.c ****     uint32 sensorId;
 458:Generated_Source\PSoC4/CapSense_Filter.c ****     uint32 sensorsNumber;
 459:Generated_Source\PSoC4/CapSense_Filter.c **** 
 460:Generated_Source\PSoC4/CapSense_Filter.c ****     CapSense_FLASH_WD_STRUCT const *ptrWidget = &CapSense_dsFlash.wdgtArray[widgetId];
 461:Generated_Source\PSoC4/CapSense_Filter.c **** 
 462:Generated_Source\PSoC4/CapSense_Filter.c ****     /* Find total amount of sensors in specified widget */
 463:Generated_Source\PSoC4/CapSense_Filter.c ****     sensorsNumber = CapSense_GET_SNS_CNT_BY_PTR(ptrWidget);
 464:Generated_Source\PSoC4/CapSense_Filter.c **** 
 465:Generated_Source\PSoC4/CapSense_Filter.c ****     for(sensorId = sensorsNumber; sensorId-- > 0u;)
 466:Generated_Source\PSoC4/CapSense_Filter.c ****     {
 467:Generated_Source\PSoC4/CapSense_Filter.c ****         CapSense_InitializeSensorBaseline(widgetId, sensorId);
 468:Generated_Source\PSoC4/CapSense_Filter.c ****     }
 469:Generated_Source\PSoC4/CapSense_Filter.c **** }
 470:Generated_Source\PSoC4/CapSense_Filter.c **** 
 471:Generated_Source\PSoC4/CapSense_Filter.c **** 
 472:Generated_Source\PSoC4/CapSense_Filter.c **** /*******************************************************************************
 473:Generated_Source\PSoC4/CapSense_Filter.c **** * Function Name: CapSense_InitializeSensorBaseline
 474:Generated_Source\PSoC4/CapSense_Filter.c **** ****************************************************************************//**
 475:Generated_Source\PSoC4/CapSense_Filter.c **** *
 476:Generated_Source\PSoC4/CapSense_Filter.c **** * \brief
 477:Generated_Source\PSoC4/CapSense_Filter.c **** *  Initializes (or re-initializes) the baseline of a sensor in a widget specified
 478:Generated_Source\PSoC4/CapSense_Filter.c **** *  by the input parameters.
 479:Generated_Source\PSoC4/CapSense_Filter.c **** *
 480:Generated_Source\PSoC4/CapSense_Filter.c **** * \details
 481:Generated_Source\PSoC4/CapSense_Filter.c **** *  Initializes (or re-initializes) the baseline for a specified sensor within
 482:Generated_Source\PSoC4/CapSense_Filter.c **** *  a specified widget.
 483:Generated_Source\PSoC4/CapSense_Filter.c **** *
 484:Generated_Source\PSoC4/CapSense_Filter.c **** * \param widgetId
 485:Generated_Source\PSoC4/CapSense_Filter.c **** *  Specifies the ID number of a widget to initialize the baseline of the sensor
 486:Generated_Source\PSoC4/CapSense_Filter.c **** *  in the widget.
ARM GAS  C:\Users\dell\AppData\Local\Temp\ccWEiAI7.s 			page 10


 487:Generated_Source\PSoC4/CapSense_Filter.c **** *  A macro for the widget ID can be found in the
 488:Generated_Source\PSoC4/CapSense_Filter.c **** *  CapSense Configuration header file defined as
 489:Generated_Source\PSoC4/CapSense_Filter.c **** *  CapSense_<WidgetName>_WDGT_ID.
 490:Generated_Source\PSoC4/CapSense_Filter.c **** *
 491:Generated_Source\PSoC4/CapSense_Filter.c **** * \param sensorId
 492:Generated_Source\PSoC4/CapSense_Filter.c **** *  Specifies the ID number of the sensor within the widget to initialize its
 493:Generated_Source\PSoC4/CapSense_Filter.c **** *  baseline.
 494:Generated_Source\PSoC4/CapSense_Filter.c **** *  A macro for the sensor ID within a specified widget can be found in the
 495:Generated_Source\PSoC4/CapSense_Filter.c **** *  CapSense Configuration header file defined as
 496:Generated_Source\PSoC4/CapSense_Filter.c **** *  CapSense_<WidgetName>_SNS<SensorNumber>_ID.
 497:Generated_Source\PSoC4/CapSense_Filter.c **** *
 498:Generated_Source\PSoC4/CapSense_Filter.c **** *******************************************************************************/
 499:Generated_Source\PSoC4/CapSense_Filter.c **** void CapSense_InitializeSensorBaseline(uint32 widgetId, uint32 sensorId)
 500:Generated_Source\PSoC4/CapSense_Filter.c **** {
 501:Generated_Source\PSoC4/CapSense_Filter.c ****     CapSense_RAM_SNS_STRUCT *ptrSensor = NULL;
 502:Generated_Source\PSoC4/CapSense_Filter.c ****     CapSense_FLASH_WD_STRUCT const *ptrWidget = NULL;
 503:Generated_Source\PSoC4/CapSense_Filter.c ****     ptrWidget = &CapSense_dsFlash.wdgtArray[widgetId];
 504:Generated_Source\PSoC4/CapSense_Filter.c **** 
 505:Generated_Source\PSoC4/CapSense_Filter.c ****     /* Find pointer to specified sensor object */
 506:Generated_Source\PSoC4/CapSense_Filter.c ****     ptrSensor = ptrWidget->ptr2SnsRam;
 507:Generated_Source\PSoC4/CapSense_Filter.c ****     ptrSensor = &ptrSensor[sensorId];
 508:Generated_Source\PSoC4/CapSense_Filter.c **** 
 509:Generated_Source\PSoC4/CapSense_Filter.c ****     CapSense_FtInitializeBaseline(ptrSensor, (uint32)ptrWidget->wdgtType);
 510:Generated_Source\PSoC4/CapSense_Filter.c **** }
 511:Generated_Source\PSoC4/CapSense_Filter.c **** 
 512:Generated_Source\PSoC4/CapSense_Filter.c **** 
 513:Generated_Source\PSoC4/CapSense_Filter.c **** /*******************************************************************************
 514:Generated_Source\PSoC4/CapSense_Filter.c **** * Function Name: CapSense_FtInitializeBaseline
 515:Generated_Source\PSoC4/CapSense_Filter.c **** ****************************************************************************//**
 516:Generated_Source\PSoC4/CapSense_Filter.c **** *
 517:Generated_Source\PSoC4/CapSense_Filter.c **** * \brief
 518:Generated_Source\PSoC4/CapSense_Filter.c **** *  Initializes the baseline history for a sensor indicated by an input
 519:Generated_Source\PSoC4/CapSense_Filter.c **** *  parameter.
 520:Generated_Source\PSoC4/CapSense_Filter.c **** *
 521:Generated_Source\PSoC4/CapSense_Filter.c **** * \details
 522:Generated_Source\PSoC4/CapSense_Filter.c **** *  Initializes the baseline history for a sensor indicated by an input
 523:Generated_Source\PSoC4/CapSense_Filter.c **** *  parameter.
 524:Generated_Source\PSoC4/CapSense_Filter.c **** *
 525:Generated_Source\PSoC4/CapSense_Filter.c **** * \param *ptrSensor
 526:Generated_Source\PSoC4/CapSense_Filter.c **** *  The pointer to the sensor RAM object.
 527:Generated_Source\PSoC4/CapSense_Filter.c **** *
 528:Generated_Source\PSoC4/CapSense_Filter.c **** * \param wdType
 529:Generated_Source\PSoC4/CapSense_Filter.c **** *  Specifies the type of a widget.
 530:Generated_Source\PSoC4/CapSense_Filter.c **** *
 531:Generated_Source\PSoC4/CapSense_Filter.c **** *******************************************************************************/
 532:Generated_Source\PSoC4/CapSense_Filter.c **** void CapSense_FtInitializeBaseline(CapSense_RAM_SNS_STRUCT *ptrSensor, uint32 wdType)
 533:Generated_Source\PSoC4/CapSense_Filter.c **** {
 534:Generated_Source\PSoC4/CapSense_Filter.c ****     uint32 freqChannel;
 535:Generated_Source\PSoC4/CapSense_Filter.c **** 
 536:Generated_Source\PSoC4/CapSense_Filter.c ****     /* Apply baseline initialization to every channel in sensor */
 537:Generated_Source\PSoC4/CapSense_Filter.c ****     for(freqChannel = CapSense_NUM_SCAN_FREQS; freqChannel-- > 0u;)
 538:Generated_Source\PSoC4/CapSense_Filter.c ****     {
 539:Generated_Source\PSoC4/CapSense_Filter.c ****         CapSense_FtInitializeBaselineChannel(ptrSensor, wdType, freqChannel);
 540:Generated_Source\PSoC4/CapSense_Filter.c ****     }
 541:Generated_Source\PSoC4/CapSense_Filter.c **** }
 542:Generated_Source\PSoC4/CapSense_Filter.c **** 
 543:Generated_Source\PSoC4/CapSense_Filter.c **** 
ARM GAS  C:\Users\dell\AppData\Local\Temp\ccWEiAI7.s 			page 11


 544:Generated_Source\PSoC4/CapSense_Filter.c **** /*******************************************************************************
 545:Generated_Source\PSoC4/CapSense_Filter.c **** * Function Name: CapSense_FtInitializeBaselineChannel
 546:Generated_Source\PSoC4/CapSense_Filter.c **** ****************************************************************************//**
 547:Generated_Source\PSoC4/CapSense_Filter.c **** *
 548:Generated_Source\PSoC4/CapSense_Filter.c **** * \brief
 549:Generated_Source\PSoC4/CapSense_Filter.c **** *  Initializes the baseline history for a sensor indicated by an input
 550:Generated_Source\PSoC4/CapSense_Filter.c **** *  parameter.
 551:Generated_Source\PSoC4/CapSense_Filter.c **** *
 552:Generated_Source\PSoC4/CapSense_Filter.c **** * \details
 553:Generated_Source\PSoC4/CapSense_Filter.c **** *  Initializes the baseline history for a sensor indicated by an input
 554:Generated_Source\PSoC4/CapSense_Filter.c **** *  parameter.
 555:Generated_Source\PSoC4/CapSense_Filter.c **** *
 556:Generated_Source\PSoC4/CapSense_Filter.c **** * \param *ptrSensor
 557:Generated_Source\PSoC4/CapSense_Filter.c **** *  The pointer to the sensor RAM object.
 558:Generated_Source\PSoC4/CapSense_Filter.c **** *
 559:Generated_Source\PSoC4/CapSense_Filter.c **** * \param wdType
 560:Generated_Source\PSoC4/CapSense_Filter.c **** *  Specifies the type of a widget.
 561:Generated_Source\PSoC4/CapSense_Filter.c **** *
 562:Generated_Source\PSoC4/CapSense_Filter.c **** * \param channel
 563:Generated_Source\PSoC4/CapSense_Filter.c **** *  Specifies the number of the channel to be initialized.
 564:Generated_Source\PSoC4/CapSense_Filter.c **** *
 565:Generated_Source\PSoC4/CapSense_Filter.c **** *******************************************************************************/
 566:Generated_Source\PSoC4/CapSense_Filter.c **** void CapSense_FtInitializeBaselineChannel(CapSense_RAM_SNS_STRUCT *ptrSensor, uint32 wdType, uint32
 567:Generated_Source\PSoC4/CapSense_Filter.c **** {
  28              		.loc 1 567 0
  29              		.cfi_startproc
  30              		@ args = 0, pretend = 0, frame = 0
  31              		@ frame_needed = 0, uses_anonymous_args = 0
  32              		@ link register save eliminated.
  33              	.LVL0:
 568:Generated_Source\PSoC4/CapSense_Filter.c ****     #if (CapSense_BASELINE_TYPE == CapSense_IIR_BASELINE)
 569:Generated_Source\PSoC4/CapSense_Filter.c ****         if ((CapSense_WD_TYPE_ENUM)wdType != CapSense_WD_PROXIMITY_E)
  34              		.loc 1 569 0
  35 0000 FF23     		movs	r3, #255
  36 0002 1940     		ands	r1, r3
  37              	.LVL1:
  38 0004 0629     		cmp	r1, #6
  39 0006 02D0     		beq	.L2
 570:Generated_Source\PSoC4/CapSense_Filter.c ****         {
 571:Generated_Source\PSoC4/CapSense_Filter.c ****             #if (CapSense_REGULAR_SENSOR_EN)
 572:Generated_Source\PSoC4/CapSense_Filter.c ****                 #if (CapSense_REGULAR_IIR_BL_TYPE == CapSense_IIR_FILTER_PERFORMANCE)
 573:Generated_Source\PSoC4/CapSense_Filter.c ****                     ptrSensor->bslnExt[channel] = 0u;
  40              		.loc 1 573 0
  41 0008 8318     		adds	r3, r0, r2
  42 000a 0021     		movs	r1, #0
  43 000c 1971     		strb	r1, [r3, #4]
  44              	.L2:
 574:Generated_Source\PSoC4/CapSense_Filter.c ****                 #endif /* (CapSense_REGULAR_IIR_BL_TYPE == CapSense_IIR_FILTER_PERFORMANCE) */
 575:Generated_Source\PSoC4/CapSense_Filter.c ****             #endif /* (CapSense_REGULAR_SENSOR_EN) */
 576:Generated_Source\PSoC4/CapSense_Filter.c ****         }
 577:Generated_Source\PSoC4/CapSense_Filter.c ****         else
 578:Generated_Source\PSoC4/CapSense_Filter.c ****         {
 579:Generated_Source\PSoC4/CapSense_Filter.c ****             #if (CapSense_PROXIMITY_SENSOR_EN)
 580:Generated_Source\PSoC4/CapSense_Filter.c ****                 #if (CapSense_PROX_IIR_BL_TYPE == CapSense_IIR_FILTER_PERFORMANCE)
 581:Generated_Source\PSoC4/CapSense_Filter.c ****                     ptrSensor->bslnExt[channel] = 0u;
 582:Generated_Source\PSoC4/CapSense_Filter.c ****                 #endif /* (CapSense_PROX_IIR_BL_TYPE == CapSense_IIR_FILTER_PERFORMANCE) */
 583:Generated_Source\PSoC4/CapSense_Filter.c ****             #endif /* (CapSense_PROX_SENSOR_EN) */
ARM GAS  C:\Users\dell\AppData\Local\Temp\ccWEiAI7.s 			page 12


 584:Generated_Source\PSoC4/CapSense_Filter.c ****         }
 585:Generated_Source\PSoC4/CapSense_Filter.c ****     #else
 586:Generated_Source\PSoC4/CapSense_Filter.c ****         /* CapSense_BASELINE_TYPE == CapSense_BUCKET_BASELINE */
 587:Generated_Source\PSoC4/CapSense_Filter.c ****         ptrSensor->bslnExt[channel] = 0u;
 588:Generated_Source\PSoC4/CapSense_Filter.c ****     #endif /* (CapSense_BASELINE_TYPE == CapSense_IIR_BASELINE) */
 589:Generated_Source\PSoC4/CapSense_Filter.c **** 
 590:Generated_Source\PSoC4/CapSense_Filter.c ****     ptrSensor->bsln[channel] = ptrSensor->raw[channel];
  45              		.loc 1 590 0
  46 000e 5300     		lsls	r3, r2, #1
  47 0010 195A     		ldrh	r1, [r3, r0]
  48 0012 C318     		adds	r3, r0, r3
  49 0014 5980     		strh	r1, [r3, #2]
 591:Generated_Source\PSoC4/CapSense_Filter.c **** 
 592:Generated_Source\PSoC4/CapSense_Filter.c ****     #if (CapSense_ENABLE == CapSense_TST_BSLN_DUPLICATION_EN)
 593:Generated_Source\PSoC4/CapSense_Filter.c ****     /* Update baseline inversion of the channel in sensor */
 594:Generated_Source\PSoC4/CapSense_Filter.c ****         ptrSensor->bslnInv[channel] = ~(ptrSensor->bsln[channel]);
 595:Generated_Source\PSoC4/CapSense_Filter.c ****     #endif /* (CapSense_ENABLE == CapSense_TST_BSLN_DUPLICATION_EN) */
 596:Generated_Source\PSoC4/CapSense_Filter.c **** 
 597:Generated_Source\PSoC4/CapSense_Filter.c ****     ptrSensor->negBslnRstCnt[channel] = 0u;
  50              		.loc 1 597 0
  51 0016 8218     		adds	r2, r0, r2
  52              	.LVL2:
  53 0018 0023     		movs	r3, #0
  54 001a 1372     		strb	r3, [r2, #8]
 598:Generated_Source\PSoC4/CapSense_Filter.c **** }
  55              		.loc 1 598 0
  56              		@ sp needed
  57 001c 7047     		bx	lr
  58              		.cfi_endproc
  59              	.LFE10:
  60              		.size	CapSense_FtInitializeBaselineChannel, .-CapSense_FtInitializeBaselineChannel
  61 001e C046     		.section	.text.CapSense_FtInitializeBaseline,"ax",%progbits
  62              		.align	2
  63              		.global	CapSense_FtInitializeBaseline
  64              		.code	16
  65              		.thumb_func
  66              		.type	CapSense_FtInitializeBaseline, %function
  67              	CapSense_FtInitializeBaseline:
  68              	.LFB9:
 533:Generated_Source\PSoC4/CapSense_Filter.c ****     uint32 freqChannel;
  69              		.loc 1 533 0
  70              		.cfi_startproc
  71              		@ args = 0, pretend = 0, frame = 0
  72              		@ frame_needed = 0, uses_anonymous_args = 0
  73              	.LVL3:
  74 0000 70B5     		push	{r4, r5, r6, lr}
  75              		.cfi_def_cfa_offset 16
  76              		.cfi_offset 4, -16
  77              		.cfi_offset 5, -12
  78              		.cfi_offset 6, -8
  79              		.cfi_offset 14, -4
  80 0002 0600     		movs	r6, r0
  81 0004 0D00     		movs	r5, r1
  82              	.LVL4:
 537:Generated_Source\PSoC4/CapSense_Filter.c ****     {
  83              		.loc 1 537 0
  84 0006 0123     		movs	r3, #1
ARM GAS  C:\Users\dell\AppData\Local\Temp\ccWEiAI7.s 			page 13


  85 0008 05E0     		b	.L4
  86              	.LVL5:
  87              	.L5:
 539:Generated_Source\PSoC4/CapSense_Filter.c ****     }
  88              		.loc 1 539 0
  89 000a 2200     		movs	r2, r4
  90 000c 2900     		movs	r1, r5
  91 000e 3000     		movs	r0, r6
  92 0010 FFF7FEFF 		bl	CapSense_FtInitializeBaselineChannel
  93              	.LVL6:
 537:Generated_Source\PSoC4/CapSense_Filter.c ****     {
  94              		.loc 1 537 0
  95 0014 2300     		movs	r3, r4
  96              	.LVL7:
  97              	.L4:
 537:Generated_Source\PSoC4/CapSense_Filter.c ****     {
  98              		.loc 1 537 0 is_stmt 0 discriminator 1
  99 0016 5C1E     		subs	r4, r3, #1
 100              	.LVL8:
 101 0018 002B     		cmp	r3, #0
 102 001a F6D1     		bne	.L5
 541:Generated_Source\PSoC4/CapSense_Filter.c **** 
 103              		.loc 1 541 0 is_stmt 1
 104              		@ sp needed
 105              	.LVL9:
 106              	.LVL10:
 107              	.LVL11:
 108 001c 70BD     		pop	{r4, r5, r6, pc}
 109              		.cfi_endproc
 110              	.LFE9:
 111              		.size	CapSense_FtInitializeBaseline, .-CapSense_FtInitializeBaseline
 112 001e C046     		.section	.text.CapSense_InitializeSensorBaseline,"ax",%progbits
 113              		.align	2
 114              		.global	CapSense_InitializeSensorBaseline
 115              		.code	16
 116              		.thumb_func
 117              		.type	CapSense_InitializeSensorBaseline, %function
 118              	CapSense_InitializeSensorBaseline:
 119              	.LFB8:
 500:Generated_Source\PSoC4/CapSense_Filter.c ****     CapSense_RAM_SNS_STRUCT *ptrSensor = NULL;
 120              		.loc 1 500 0
 121              		.cfi_startproc
 122              		@ args = 0, pretend = 0, frame = 0
 123              		@ frame_needed = 0, uses_anonymous_args = 0
 124              	.LVL12:
 125 0000 70B5     		push	{r4, r5, r6, lr}
 126              		.cfi_def_cfa_offset 16
 127              		.cfi_offset 4, -16
 128              		.cfi_offset 5, -12
 129              		.cfi_offset 6, -8
 130              		.cfi_offset 14, -4
 131              	.LVL13:
 506:Generated_Source\PSoC4/CapSense_Filter.c ****     ptrSensor = &ptrSensor[sensorId];
 132              		.loc 1 506 0
 133 0002 094C     		ldr	r4, .L7
 134 0004 C300     		lsls	r3, r0, #3
 135 0006 1D1A     		subs	r5, r3, r0
ARM GAS  C:\Users\dell\AppData\Local\Temp\ccWEiAI7.s 			page 14


 136 0008 AA00     		lsls	r2, r5, #2
 137 000a A218     		adds	r2, r4, r2
 138 000c 9568     		ldr	r5, [r2, #8]
 139              	.LVL14:
 507:Generated_Source\PSoC4/CapSense_Filter.c **** 
 140              		.loc 1 507 0
 141 000e 8A00     		lsls	r2, r1, #2
 142 0010 5118     		adds	r1, r2, r1
 143              	.LVL15:
 144 0012 4A00     		lsls	r2, r1, #1
 145 0014 AA18     		adds	r2, r5, r2
 146              	.LVL16:
 509:Generated_Source\PSoC4/CapSense_Filter.c **** }
 147              		.loc 1 509 0
 148 0016 1B1A     		subs	r3, r3, r0
 149 0018 9900     		lsls	r1, r3, #2
 150 001a 6118     		adds	r1, r4, r1
 151 001c 897E     		ldrb	r1, [r1, #26]
 152 001e 1000     		movs	r0, r2
 153              	.LVL17:
 154 0020 FFF7FEFF 		bl	CapSense_FtInitializeBaseline
 155              	.LVL18:
 510:Generated_Source\PSoC4/CapSense_Filter.c **** 
 156              		.loc 1 510 0
 157              		@ sp needed
 158              	.LVL19:
 159 0024 70BD     		pop	{r4, r5, r6, pc}
 160              	.L8:
 161 0026 C046     		.align	2
 162              	.L7:
 163 0028 00000000 		.word	CapSense_dsFlash
 164              		.cfi_endproc
 165              	.LFE8:
 166              		.size	CapSense_InitializeSensorBaseline, .-CapSense_InitializeSensorBaseline
 167              		.section	.text.CapSense_InitializeWidgetBaseline,"ax",%progbits
 168              		.align	2
 169              		.global	CapSense_InitializeWidgetBaseline
 170              		.code	16
 171              		.thumb_func
 172              		.type	CapSense_InitializeWidgetBaseline, %function
 173              	CapSense_InitializeWidgetBaseline:
 174              	.LFB7:
 456:Generated_Source\PSoC4/CapSense_Filter.c ****     uint32 sensorId;
 175              		.loc 1 456 0
 176              		.cfi_startproc
 177              		@ args = 0, pretend = 0, frame = 0
 178              		@ frame_needed = 0, uses_anonymous_args = 0
 179              	.LVL20:
 180 0000 70B5     		push	{r4, r5, r6, lr}
 181              		.cfi_def_cfa_offset 16
 182              		.cfi_offset 4, -16
 183              		.cfi_offset 5, -12
 184              		.cfi_offset 6, -8
 185              		.cfi_offset 14, -4
 186 0002 0500     		movs	r5, r0
 187              	.LVL21:
 463:Generated_Source\PSoC4/CapSense_Filter.c **** 
ARM GAS  C:\Users\dell\AppData\Local\Temp\ccWEiAI7.s 			page 15


 188              		.loc 1 463 0
 189 0004 C200     		lsls	r2, r0, #3
 190 0006 121A     		subs	r2, r2, r0
 191 0008 9300     		lsls	r3, r2, #2
 192 000a 064A     		ldr	r2, .L12
 193 000c D318     		adds	r3, r2, r3
 194 000e 1B8B     		ldrh	r3, [r3, #24]
 195              	.LVL22:
 465:Generated_Source\PSoC4/CapSense_Filter.c ****     {
 196              		.loc 1 465 0
 197 0010 04E0     		b	.L10
 198              	.LVL23:
 199              	.L11:
 467:Generated_Source\PSoC4/CapSense_Filter.c ****     }
 200              		.loc 1 467 0
 201 0012 2100     		movs	r1, r4
 202 0014 2800     		movs	r0, r5
 203 0016 FFF7FEFF 		bl	CapSense_InitializeSensorBaseline
 204              	.LVL24:
 465:Generated_Source\PSoC4/CapSense_Filter.c ****     {
 205              		.loc 1 465 0
 206 001a 2300     		movs	r3, r4
 207              	.LVL25:
 208              	.L10:
 465:Generated_Source\PSoC4/CapSense_Filter.c ****     {
 209              		.loc 1 465 0 is_stmt 0 discriminator 1
 210 001c 5C1E     		subs	r4, r3, #1
 211              	.LVL26:
 212 001e 002B     		cmp	r3, #0
 213 0020 F7D1     		bne	.L11
 469:Generated_Source\PSoC4/CapSense_Filter.c **** 
 214              		.loc 1 469 0 is_stmt 1
 215              		@ sp needed
 216              	.LVL27:
 217              	.LVL28:
 218 0022 70BD     		pop	{r4, r5, r6, pc}
 219              	.L13:
 220              		.align	2
 221              	.L12:
 222 0024 00000000 		.word	CapSense_dsFlash
 223              		.cfi_endproc
 224              	.LFE7:
 225              		.size	CapSense_InitializeWidgetBaseline, .-CapSense_InitializeWidgetBaseline
 226              		.section	.text.CapSense_InitializeAllBaselines,"ax",%progbits
 227              		.align	2
 228              		.global	CapSense_InitializeAllBaselines
 229              		.code	16
 230              		.thumb_func
 231              		.type	CapSense_InitializeAllBaselines, %function
 232              	CapSense_InitializeAllBaselines:
 233              	.LFB6:
 420:Generated_Source\PSoC4/CapSense_Filter.c ****     uint32 widgetId;
 234              		.loc 1 420 0
 235              		.cfi_startproc
 236              		@ args = 0, pretend = 0, frame = 0
 237              		@ frame_needed = 0, uses_anonymous_args = 0
 238 0000 10B5     		push	{r4, lr}
ARM GAS  C:\Users\dell\AppData\Local\Temp\ccWEiAI7.s 			page 16


 239              		.cfi_def_cfa_offset 8
 240              		.cfi_offset 4, -8
 241              		.cfi_offset 14, -4
 242              	.LVL29:
 423:Generated_Source\PSoC4/CapSense_Filter.c ****     {
 243              		.loc 1 423 0
 244 0002 0423     		movs	r3, #4
 245 0004 03E0     		b	.L15
 246              	.LVL30:
 247              	.L16:
 425:Generated_Source\PSoC4/CapSense_Filter.c ****     }
 248              		.loc 1 425 0
 249 0006 2000     		movs	r0, r4
 250 0008 FFF7FEFF 		bl	CapSense_InitializeWidgetBaseline
 251              	.LVL31:
 423:Generated_Source\PSoC4/CapSense_Filter.c ****     {
 252              		.loc 1 423 0
 253 000c 2300     		movs	r3, r4
 254              	.LVL32:
 255              	.L15:
 423:Generated_Source\PSoC4/CapSense_Filter.c ****     {
 256              		.loc 1 423 0 is_stmt 0 discriminator 1
 257 000e 5C1E     		subs	r4, r3, #1
 258              	.LVL33:
 259 0010 002B     		cmp	r3, #0
 260 0012 F8D1     		bne	.L16
 427:Generated_Source\PSoC4/CapSense_Filter.c **** 
 261              		.loc 1 427 0 is_stmt 1
 262              		@ sp needed
 263              	.LVL34:
 264 0014 10BD     		pop	{r4, pc}
 265              		.cfi_endproc
 266              	.LFE6:
 267              		.size	CapSense_InitializeAllBaselines, .-CapSense_InitializeAllBaselines
 268 0016 C046     		.section	.text.CapSense_InitializeAverageInternal,"ax",%progbits
 269              		.align	2
 270              		.global	CapSense_InitializeAverageInternal
 271              		.code	16
 272              		.thumb_func
 273              		.type	CapSense_InitializeAverageInternal, %function
 274              	CapSense_InitializeAverageInternal:
 275              	.LFB15:
 599:Generated_Source\PSoC4/CapSense_Filter.c **** 
 600:Generated_Source\PSoC4/CapSense_Filter.c **** #if ((CapSense_ENABLE == CapSense_RC_FILTER_EN) || \
 601:Generated_Source\PSoC4/CapSense_Filter.c ****      (0u != (CapSense_CSD_AUTOTUNE & CapSense_CSD_SS_TH_EN)))
 602:Generated_Source\PSoC4/CapSense_Filter.c **** /*******************************************************************************
 603:Generated_Source\PSoC4/CapSense_Filter.c **** * Function Name: CapSense_InitializeAllFilters
 604:Generated_Source\PSoC4/CapSense_Filter.c **** ****************************************************************************//**
 605:Generated_Source\PSoC4/CapSense_Filter.c **** *
 606:Generated_Source\PSoC4/CapSense_Filter.c **** * \brief
 607:Generated_Source\PSoC4/CapSense_Filter.c **** *  Initializes (or re-initializes) the raw count filter history of all the
 608:Generated_Source\PSoC4/CapSense_Filter.c **** *  sensors of all the widgets.
 609:Generated_Source\PSoC4/CapSense_Filter.c **** *
 610:Generated_Source\PSoC4/CapSense_Filter.c **** * \details
 611:Generated_Source\PSoC4/CapSense_Filter.c **** *  Initializes the raw count filter history for all the sensors of all the
 612:Generated_Source\PSoC4/CapSense_Filter.c **** *  widgets. Also, this function can be used to re-initialize baselines.
 613:Generated_Source\PSoC4/CapSense_Filter.c **** *  CapSense_Start() calls this API as part of CapSense
ARM GAS  C:\Users\dell\AppData\Local\Temp\ccWEiAI7.s 			page 17


 614:Generated_Source\PSoC4/CapSense_Filter.c **** *  operation initialization.
 615:Generated_Source\PSoC4/CapSense_Filter.c **** *
 616:Generated_Source\PSoC4/CapSense_Filter.c **** *******************************************************************************/
 617:Generated_Source\PSoC4/CapSense_Filter.c **** void CapSense_InitializeAllFilters(void)
 618:Generated_Source\PSoC4/CapSense_Filter.c **** {
 619:Generated_Source\PSoC4/CapSense_Filter.c ****     uint32 widgetId;
 620:Generated_Source\PSoC4/CapSense_Filter.c **** 
 621:Generated_Source\PSoC4/CapSense_Filter.c ****     for(widgetId = CapSense_TOTAL_WIDGETS; widgetId-- > 0u;)
 622:Generated_Source\PSoC4/CapSense_Filter.c ****     {
 623:Generated_Source\PSoC4/CapSense_Filter.c ****         CapSense_InitializeWidgetFilter(widgetId);
 624:Generated_Source\PSoC4/CapSense_Filter.c ****     }
 625:Generated_Source\PSoC4/CapSense_Filter.c **** }
 626:Generated_Source\PSoC4/CapSense_Filter.c **** 
 627:Generated_Source\PSoC4/CapSense_Filter.c **** /*******************************************************************************
 628:Generated_Source\PSoC4/CapSense_Filter.c **** * Function Name: CapSense_InitializeWidgetFilter
 629:Generated_Source\PSoC4/CapSense_Filter.c **** ****************************************************************************//**
 630:Generated_Source\PSoC4/CapSense_Filter.c **** *
 631:Generated_Source\PSoC4/CapSense_Filter.c **** * \brief
 632:Generated_Source\PSoC4/CapSense_Filter.c **** *  Initializes (or re-initializes) the raw count filter history of all the sensors
 633:Generated_Source\PSoC4/CapSense_Filter.c **** *  in a widget specified by the input parameter.
 634:Generated_Source\PSoC4/CapSense_Filter.c **** *
 635:Generated_Source\PSoC4/CapSense_Filter.c **** * \details
 636:Generated_Source\PSoC4/CapSense_Filter.c **** *  Initializes (or re-initializes) the raw count filter history of all the sensors
 637:Generated_Source\PSoC4/CapSense_Filter.c **** *  in a widget specified by the input parameter.
 638:Generated_Source\PSoC4/CapSense_Filter.c **** *
 639:Generated_Source\PSoC4/CapSense_Filter.c **** * \param widgetId
 640:Generated_Source\PSoC4/CapSense_Filter.c **** *  Specifies the ID number of a widget to initialize the filter history of all
 641:Generated_Source\PSoC4/CapSense_Filter.c **** *  the sensors in the widget.
 642:Generated_Source\PSoC4/CapSense_Filter.c **** *  A macro for the widget ID can be found in the
 643:Generated_Source\PSoC4/CapSense_Filter.c **** *  CapSense Configuration header file defined as
 644:Generated_Source\PSoC4/CapSense_Filter.c **** *  CapSense_<WidgetName>_WDGT_ID.
 645:Generated_Source\PSoC4/CapSense_Filter.c **** *
 646:Generated_Source\PSoC4/CapSense_Filter.c **** *******************************************************************************/
 647:Generated_Source\PSoC4/CapSense_Filter.c **** void CapSense_InitializeWidgetFilter(uint32 widgetId)
 648:Generated_Source\PSoC4/CapSense_Filter.c **** {
 649:Generated_Source\PSoC4/CapSense_Filter.c ****     uint32 sensorId;
 650:Generated_Source\PSoC4/CapSense_Filter.c ****     uint32 sensorsNumber;
 651:Generated_Source\PSoC4/CapSense_Filter.c **** 
 652:Generated_Source\PSoC4/CapSense_Filter.c ****     CapSense_FLASH_WD_STRUCT const *ptrWidget;
 653:Generated_Source\PSoC4/CapSense_Filter.c ****     CapSense_RAM_SNS_STRUCT *ptrSensor = NULL;
 654:Generated_Source\PSoC4/CapSense_Filter.c ****     #if (CapSense_ENABLE == CapSense_RC_FILTER_EN)
 655:Generated_Source\PSoC4/CapSense_Filter.c ****         CapSense_PTR_FILTER_VARIANT ptrFilterHistObj;
 656:Generated_Source\PSoC4/CapSense_Filter.c ****     #endif
 657:Generated_Source\PSoC4/CapSense_Filter.c **** 
 658:Generated_Source\PSoC4/CapSense_Filter.c ****     #if (0u != (CapSense_CSD_AUTOTUNE & CapSense_CSD_SS_TH_EN))
 659:Generated_Source\PSoC4/CapSense_Filter.c ****         CapSense_RAM_WD_BASE_STRUCT *ptrWidgetRam;
 660:Generated_Source\PSoC4/CapSense_Filter.c ****         SMARTSENSE_CSD_NOISE_ENVELOPE_STRUCT *ptrNoiseEnvelope = NULL;
 661:Generated_Source\PSoC4/CapSense_Filter.c ****     #endif /* (0u != (CapSense_CSD_AUTOTUNE & CapSense_CSD_SS_TH_EN)) */
 662:Generated_Source\PSoC4/CapSense_Filter.c **** 
 663:Generated_Source\PSoC4/CapSense_Filter.c ****     ptrWidget = &CapSense_dsFlash.wdgtArray[widgetId];
 664:Generated_Source\PSoC4/CapSense_Filter.c **** 
 665:Generated_Source\PSoC4/CapSense_Filter.c ****     #if (0u != (CapSense_CSD_AUTOTUNE & CapSense_CSD_SS_TH_EN))
 666:Generated_Source\PSoC4/CapSense_Filter.c ****         ptrWidgetRam = ptrWidget->ptr2WdgtRam;
 667:Generated_Source\PSoC4/CapSense_Filter.c ****     #endif /* (0u != (CapSense_CSD_AUTOTUNE & CapSense_CSD_SS_TH_EN)) */
 668:Generated_Source\PSoC4/CapSense_Filter.c **** 
 669:Generated_Source\PSoC4/CapSense_Filter.c ****     /* Find total amount of sensors in specified widget */
 670:Generated_Source\PSoC4/CapSense_Filter.c ****     sensorsNumber = CapSense_GET_SNS_CNT_BY_PTR(ptrWidget);
ARM GAS  C:\Users\dell\AppData\Local\Temp\ccWEiAI7.s 			page 18


 671:Generated_Source\PSoC4/CapSense_Filter.c **** 
 672:Generated_Source\PSoC4/CapSense_Filter.c ****     for (sensorId = sensorsNumber; sensorId-- > 0u;)
 673:Generated_Source\PSoC4/CapSense_Filter.c ****     {
 674:Generated_Source\PSoC4/CapSense_Filter.c ****         /* Find pointer to specified sensor object */
 675:Generated_Source\PSoC4/CapSense_Filter.c ****         ptrSensor = ptrWidget->ptr2SnsRam;
 676:Generated_Source\PSoC4/CapSense_Filter.c ****         ptrSensor = &ptrSensor[sensorId];
 677:Generated_Source\PSoC4/CapSense_Filter.c **** 
 678:Generated_Source\PSoC4/CapSense_Filter.c ****         #if (CapSense_ENABLE == CapSense_RC_FILTER_EN)
 679:Generated_Source\PSoC4/CapSense_Filter.c ****             /* Find pointer to to specified filter sensor object */
 680:Generated_Source\PSoC4/CapSense_Filter.c ****             ptrFilterHistObj.ptr = ptrWidget->ptr2FltrHistory;
 681:Generated_Source\PSoC4/CapSense_Filter.c ****         #endif
 682:Generated_Source\PSoC4/CapSense_Filter.c **** 
 683:Generated_Source\PSoC4/CapSense_Filter.c ****         #if (0u != (CapSense_CSD_AUTOTUNE & CapSense_CSD_SS_TH_EN))
 684:Generated_Source\PSoC4/CapSense_Filter.c ****             /* Find pointer to specified noise envelope sensor object */
 685:Generated_Source\PSoC4/CapSense_Filter.c ****             ptrNoiseEnvelope = ptrWidget->ptr2NoiseEnvlp;
 686:Generated_Source\PSoC4/CapSense_Filter.c ****             ptrNoiseEnvelope = &ptrNoiseEnvelope[sensorId];
 687:Generated_Source\PSoC4/CapSense_Filter.c ****         #endif /* (0u != (CapSense_CSD_AUTOTUNE & CapSense_CSD_SS_TH_EN)) */
 688:Generated_Source\PSoC4/CapSense_Filter.c **** 
 689:Generated_Source\PSoC4/CapSense_Filter.c ****         if ((CapSense_WD_TYPE_ENUM)ptrWidget->wdgtType != CapSense_WD_PROXIMITY_E)
 690:Generated_Source\PSoC4/CapSense_Filter.c ****         {
 691:Generated_Source\PSoC4/CapSense_Filter.c ****             #if (0u != CapSense_REGULAR_RC_ALP_FILTER_EN)
 692:Generated_Source\PSoC4/CapSense_Filter.c ****                 ptrFilterHistObj.ptrAlp = &ptrFilterHistObj.ptrAlp[sensorId];
 693:Generated_Source\PSoC4/CapSense_Filter.c ****             #elif (0u != CapSense_REGULAR_RC_FILTER_EN)
 694:Generated_Source\PSoC4/CapSense_Filter.c ****                 ptrFilterHistObj.ptrRegular = &ptrFilterHistObj.ptrRegular[sensorId];
 695:Generated_Source\PSoC4/CapSense_Filter.c ****             #endif
 696:Generated_Source\PSoC4/CapSense_Filter.c ****         }
 697:Generated_Source\PSoC4/CapSense_Filter.c ****         else
 698:Generated_Source\PSoC4/CapSense_Filter.c ****         {
 699:Generated_Source\PSoC4/CapSense_Filter.c ****             #if (0u != CapSense_PROX_RC_ALP_FILTER_EN)
 700:Generated_Source\PSoC4/CapSense_Filter.c ****                 ptrFilterHistObj.ptrAlp = &ptrFilterHistObj.ptrAlp[sensorId];
 701:Generated_Source\PSoC4/CapSense_Filter.c ****             #elif (0u != CapSense_PROX_RC_FILTER_EN)
 702:Generated_Source\PSoC4/CapSense_Filter.c ****                 ptrFilterHistObj.ptrProx = &ptrFilterHistObj.ptrProx[sensorId];
 703:Generated_Source\PSoC4/CapSense_Filter.c ****             #endif /* #if (0u != CapSense_PROX_RC_FILTER_EN) */
 704:Generated_Source\PSoC4/CapSense_Filter.c ****         }
 705:Generated_Source\PSoC4/CapSense_Filter.c **** 
 706:Generated_Source\PSoC4/CapSense_Filter.c ****         #if (CapSense_REGULAR_RC_IIR_FILTER_EN || CapSense_PROX_RC_IIR_FILTER_EN)
 707:Generated_Source\PSoC4/CapSense_Filter.c ****             CapSense_InitializeIIRInternal(ptrFilterHistObj, ptrSensor, (uint32)ptrWidget->wdgtType
 708:Generated_Source\PSoC4/CapSense_Filter.c ****         #endif /* (CapSense_REGULAR_RC_IIR_FILTER_EN || CapSense_PROX_RC_IIR_FILTER_EN) */
 709:Generated_Source\PSoC4/CapSense_Filter.c **** 
 710:Generated_Source\PSoC4/CapSense_Filter.c ****         #if (CapSense_REGULAR_RC_MEDIAN_FILTER_EN || CapSense_PROX_RC_MEDIAN_FILTER_EN)
 711:Generated_Source\PSoC4/CapSense_Filter.c ****             CapSense_InitializeMedianInternal(ptrFilterHistObj, ptrSensor, (uint32)ptrWidget->wdgtT
 712:Generated_Source\PSoC4/CapSense_Filter.c ****         #endif /* (CapSense_REGULAR_RC_MEDIAN_FILTER_EN || CapSense_PROX_RC_MEDIAN_FILTER_EN) */
 713:Generated_Source\PSoC4/CapSense_Filter.c **** 
 714:Generated_Source\PSoC4/CapSense_Filter.c ****         #if (CapSense_REGULAR_RC_AVERAGE_FILTER_EN || CapSense_PROX_RC_AVERAGE_FILTER_EN)
 715:Generated_Source\PSoC4/CapSense_Filter.c ****             CapSense_InitializeAverageInternal(ptrFilterHistObj, ptrSensor, (uint32)ptrWidget->wdgt
 716:Generated_Source\PSoC4/CapSense_Filter.c ****         #endif /* (CapSense_REGULAR_RC_AVERAGE_FILTER_EN || CapSense_PROX_RC_AVERAGE_FILTER_EN) */
 717:Generated_Source\PSoC4/CapSense_Filter.c **** 
 718:Generated_Source\PSoC4/CapSense_Filter.c ****         #if (CapSense_ALP_FILTER_EN)
 719:Generated_Source\PSoC4/CapSense_Filter.c ****             CapSense_InitializeALPInternal(ptrFilterHistObj, ptrSensor, (uint32)ptrWidget->wdgtType
 720:Generated_Source\PSoC4/CapSense_Filter.c ****         #endif
 721:Generated_Source\PSoC4/CapSense_Filter.c **** 
 722:Generated_Source\PSoC4/CapSense_Filter.c ****         #if (0u != (CapSense_CSD_AUTOTUNE & CapSense_CSD_SS_TH_EN))
 723:Generated_Source\PSoC4/CapSense_Filter.c ****             if (CapSense_SENSE_METHOD_CSD_E ==
 724:Generated_Source\PSoC4/CapSense_Filter.c ****                 CapSense_GET_SENSE_METHOD(&CapSense_dsFlash.wdgtArray[widgetId]))
 725:Generated_Source\PSoC4/CapSense_Filter.c ****             {
 726:Generated_Source\PSoC4/CapSense_Filter.c ****                 SmartSense_InitializeNoiseEnvelope(ptrSensor->raw[0u], ptrWidgetRam->sigPFC, ptrNoi
 727:Generated_Source\PSoC4/CapSense_Filter.c ****             }
ARM GAS  C:\Users\dell\AppData\Local\Temp\ccWEiAI7.s 			page 19


 728:Generated_Source\PSoC4/CapSense_Filter.c ****         #endif /* (0u != (CapSense_CSD_AUTOTUNE & CapSense_CSD_SS_TH_EN)) */
 729:Generated_Source\PSoC4/CapSense_Filter.c ****     }
 730:Generated_Source\PSoC4/CapSense_Filter.c **** }
 731:Generated_Source\PSoC4/CapSense_Filter.c **** #endif /* ((CapSense_ENABLE == CapSense_RC_FILTER_EN) || \
 732:Generated_Source\PSoC4/CapSense_Filter.c ****            (0u != (CapSense_CSD_AUTOTUNE & CapSense_CSD_SS_TH_EN))) */
 733:Generated_Source\PSoC4/CapSense_Filter.c **** 
 734:Generated_Source\PSoC4/CapSense_Filter.c **** #if (CapSense_REGULAR_RC_IIR_FILTER_EN || CapSense_PROX_RC_IIR_FILTER_EN)
 735:Generated_Source\PSoC4/CapSense_Filter.c **** /*******************************************************************************
 736:Generated_Source\PSoC4/CapSense_Filter.c **** * Function Name: CapSense_InitializeIIR
 737:Generated_Source\PSoC4/CapSense_Filter.c **** ****************************************************************************//**
 738:Generated_Source\PSoC4/CapSense_Filter.c **** *
 739:Generated_Source\PSoC4/CapSense_Filter.c **** * \brief
 740:Generated_Source\PSoC4/CapSense_Filter.c **** *  Initialize the IIR filter history.
 741:Generated_Source\PSoC4/CapSense_Filter.c **** *
 742:Generated_Source\PSoC4/CapSense_Filter.c **** * \details
 743:Generated_Source\PSoC4/CapSense_Filter.c **** *  Initialize the IIR filter history.
 744:Generated_Source\PSoC4/CapSense_Filter.c **** *
 745:Generated_Source\PSoC4/CapSense_Filter.c **** * \param widgetId
 746:Generated_Source\PSoC4/CapSense_Filter.c **** *  Specifies the ID number of the widget.
 747:Generated_Source\PSoC4/CapSense_Filter.c **** *
 748:Generated_Source\PSoC4/CapSense_Filter.c **** * \param sensorId
 749:Generated_Source\PSoC4/CapSense_Filter.c **** *  Specifies the ID number of the sensor in the widget.
 750:Generated_Source\PSoC4/CapSense_Filter.c **** *
 751:Generated_Source\PSoC4/CapSense_Filter.c **** *******************************************************************************/
 752:Generated_Source\PSoC4/CapSense_Filter.c **** void CapSense_InitializeIIR(uint32 widgetId, uint32 sensorId)
 753:Generated_Source\PSoC4/CapSense_Filter.c **** {
 754:Generated_Source\PSoC4/CapSense_Filter.c ****     CapSense_FLASH_WD_STRUCT const *ptrWidget = &CapSense_dsFlash.wdgtArray[widgetId];
 755:Generated_Source\PSoC4/CapSense_Filter.c ****     CapSense_RAM_SNS_STRUCT *ptrSensor = NULL;
 756:Generated_Source\PSoC4/CapSense_Filter.c ****     CapSense_PTR_FILTER_VARIANT ptrFilterHistObj;
 757:Generated_Source\PSoC4/CapSense_Filter.c **** 
 758:Generated_Source\PSoC4/CapSense_Filter.c ****     /* Find pointer to specified sensor object */
 759:Generated_Source\PSoC4/CapSense_Filter.c ****     ptrSensor = ptrWidget->ptr2SnsRam;
 760:Generated_Source\PSoC4/CapSense_Filter.c ****     ptrSensor = &ptrSensor[sensorId];
 761:Generated_Source\PSoC4/CapSense_Filter.c **** 
 762:Generated_Source\PSoC4/CapSense_Filter.c ****     /* Find pointer to specified filter sensor object */
 763:Generated_Source\PSoC4/CapSense_Filter.c ****     ptrFilterHistObj.ptr = ptrWidget->ptr2FltrHistory;
 764:Generated_Source\PSoC4/CapSense_Filter.c **** 
 765:Generated_Source\PSoC4/CapSense_Filter.c ****     if ((CapSense_WD_TYPE_ENUM)ptrWidget->wdgtType != CapSense_WD_PROXIMITY_E)
 766:Generated_Source\PSoC4/CapSense_Filter.c ****     {
 767:Generated_Source\PSoC4/CapSense_Filter.c ****         #if (CapSense_REGULAR_SENSOR_EN)
 768:Generated_Source\PSoC4/CapSense_Filter.c ****             ptrFilterHistObj.ptrRegular = &ptrFilterHistObj.ptrRegular[sensorId];
 769:Generated_Source\PSoC4/CapSense_Filter.c ****         #endif /* (CapSense_REGULAR_SENSOR_EN) */
 770:Generated_Source\PSoC4/CapSense_Filter.c ****     }
 771:Generated_Source\PSoC4/CapSense_Filter.c ****     else
 772:Generated_Source\PSoC4/CapSense_Filter.c ****     {
 773:Generated_Source\PSoC4/CapSense_Filter.c ****         #if (CapSense_PROXIMITY_SENSOR_EN)
 774:Generated_Source\PSoC4/CapSense_Filter.c ****             ptrFilterHistObj.ptrProx = &ptrFilterHistObj.ptrProx[sensorId];
 775:Generated_Source\PSoC4/CapSense_Filter.c ****         #endif /* (CapSense_PROXIMITY_SENSOR_EN) */
 776:Generated_Source\PSoC4/CapSense_Filter.c ****     }
 777:Generated_Source\PSoC4/CapSense_Filter.c **** 
 778:Generated_Source\PSoC4/CapSense_Filter.c ****     CapSense_InitializeIIRInternal(ptrFilterHistObj, ptrSensor, (uint32)ptrWidget->wdgtType);
 779:Generated_Source\PSoC4/CapSense_Filter.c **** }
 780:Generated_Source\PSoC4/CapSense_Filter.c **** 
 781:Generated_Source\PSoC4/CapSense_Filter.c **** 
 782:Generated_Source\PSoC4/CapSense_Filter.c **** /*******************************************************************************
 783:Generated_Source\PSoC4/CapSense_Filter.c **** * Function Name: CapSense_RunIIR
 784:Generated_Source\PSoC4/CapSense_Filter.c **** ****************************************************************************//**
ARM GAS  C:\Users\dell\AppData\Local\Temp\ccWEiAI7.s 			page 20


 785:Generated_Source\PSoC4/CapSense_Filter.c **** *
 786:Generated_Source\PSoC4/CapSense_Filter.c **** * \brief
 787:Generated_Source\PSoC4/CapSense_Filter.c **** *  Executes the IIR filter algorithm on a sensor indicated by an input
 788:Generated_Source\PSoC4/CapSense_Filter.c **** *  parameter.
 789:Generated_Source\PSoC4/CapSense_Filter.c **** *
 790:Generated_Source\PSoC4/CapSense_Filter.c **** * \details
 791:Generated_Source\PSoC4/CapSense_Filter.c **** *  Executes the IIR filter algorithm on a sensor indicated by an input
 792:Generated_Source\PSoC4/CapSense_Filter.c **** *  parameter.
 793:Generated_Source\PSoC4/CapSense_Filter.c **** *
 794:Generated_Source\PSoC4/CapSense_Filter.c **** * \param widgetId
 795:Generated_Source\PSoC4/CapSense_Filter.c **** *  Specifies the ID number of the widget.
 796:Generated_Source\PSoC4/CapSense_Filter.c **** *
 797:Generated_Source\PSoC4/CapSense_Filter.c **** * \param sensorId
 798:Generated_Source\PSoC4/CapSense_Filter.c **** *  Specifies the ID number of the sensor in the widget.
 799:Generated_Source\PSoC4/CapSense_Filter.c **** *
 800:Generated_Source\PSoC4/CapSense_Filter.c **** *******************************************************************************/
 801:Generated_Source\PSoC4/CapSense_Filter.c **** void CapSense_RunIIR(uint32 widgetId, uint32 sensorId)
 802:Generated_Source\PSoC4/CapSense_Filter.c **** {
 803:Generated_Source\PSoC4/CapSense_Filter.c ****     CapSense_FLASH_WD_STRUCT const *ptrWidget = &CapSense_dsFlash.wdgtArray[widgetId];
 804:Generated_Source\PSoC4/CapSense_Filter.c ****     CapSense_RAM_SNS_STRUCT *ptrSensor = NULL;
 805:Generated_Source\PSoC4/CapSense_Filter.c ****     CapSense_PTR_FILTER_VARIANT ptrFilterHistObj;
 806:Generated_Source\PSoC4/CapSense_Filter.c **** 
 807:Generated_Source\PSoC4/CapSense_Filter.c ****     /* Find pointer to specified sensor object */
 808:Generated_Source\PSoC4/CapSense_Filter.c ****     ptrSensor = ptrWidget->ptr2SnsRam;
 809:Generated_Source\PSoC4/CapSense_Filter.c ****     ptrSensor = &ptrSensor[sensorId];
 810:Generated_Source\PSoC4/CapSense_Filter.c **** 
 811:Generated_Source\PSoC4/CapSense_Filter.c ****     /* Find pointer to specified filter sensor object */
 812:Generated_Source\PSoC4/CapSense_Filter.c ****     ptrFilterHistObj.ptr = ptrWidget->ptr2FltrHistory;
 813:Generated_Source\PSoC4/CapSense_Filter.c **** 
 814:Generated_Source\PSoC4/CapSense_Filter.c ****     if ((CapSense_WD_TYPE_ENUM)ptrWidget->wdgtType != CapSense_WD_PROXIMITY_E)
 815:Generated_Source\PSoC4/CapSense_Filter.c ****     {
 816:Generated_Source\PSoC4/CapSense_Filter.c ****         #if (CapSense_REGULAR_SENSOR_EN)
 817:Generated_Source\PSoC4/CapSense_Filter.c ****             ptrFilterHistObj.ptrRegular = &ptrFilterHistObj.ptrRegular[sensorId];
 818:Generated_Source\PSoC4/CapSense_Filter.c ****         #endif /* (CapSense_REGULAR_SENSOR_EN) */
 819:Generated_Source\PSoC4/CapSense_Filter.c ****     }
 820:Generated_Source\PSoC4/CapSense_Filter.c ****     else
 821:Generated_Source\PSoC4/CapSense_Filter.c ****     {
 822:Generated_Source\PSoC4/CapSense_Filter.c ****         #if (CapSense_PROXIMITY_SENSOR_EN)
 823:Generated_Source\PSoC4/CapSense_Filter.c ****             ptrFilterHistObj.ptrProx = &ptrFilterHistObj.ptrProx[sensorId];
 824:Generated_Source\PSoC4/CapSense_Filter.c ****         #endif /* (CapSense_PROXIMITY_SENSOR_EN) */
 825:Generated_Source\PSoC4/CapSense_Filter.c ****     }
 826:Generated_Source\PSoC4/CapSense_Filter.c **** 
 827:Generated_Source\PSoC4/CapSense_Filter.c ****     CapSense_RunIIRInternal(ptrFilterHistObj, ptrSensor, (uint32)ptrWidget->wdgtType);
 828:Generated_Source\PSoC4/CapSense_Filter.c **** }
 829:Generated_Source\PSoC4/CapSense_Filter.c **** 
 830:Generated_Source\PSoC4/CapSense_Filter.c **** /*******************************************************************************
 831:Generated_Source\PSoC4/CapSense_Filter.c **** * Function Name: CapSense_InitializeIIRInternal
 832:Generated_Source\PSoC4/CapSense_Filter.c **** ****************************************************************************//**
 833:Generated_Source\PSoC4/CapSense_Filter.c **** *
 834:Generated_Source\PSoC4/CapSense_Filter.c **** * \brief
 835:Generated_Source\PSoC4/CapSense_Filter.c **** *  Initializes the IIR filter history.
 836:Generated_Source\PSoC4/CapSense_Filter.c **** *
 837:Generated_Source\PSoC4/CapSense_Filter.c **** * \details
 838:Generated_Source\PSoC4/CapSense_Filter.c **** *  Initializes the IIR filter history.
 839:Generated_Source\PSoC4/CapSense_Filter.c **** *
 840:Generated_Source\PSoC4/CapSense_Filter.c **** * \param ptrFilterHistObj
 841:Generated_Source\PSoC4/CapSense_Filter.c **** *  The pointer to the filter RAM object of the sensor.
ARM GAS  C:\Users\dell\AppData\Local\Temp\ccWEiAI7.s 			page 21


 842:Generated_Source\PSoC4/CapSense_Filter.c **** *
 843:Generated_Source\PSoC4/CapSense_Filter.c **** * \param ptrSensorObj
 844:Generated_Source\PSoC4/CapSense_Filter.c **** *  The pointer to the sensor RAM object of the sensor.
 845:Generated_Source\PSoC4/CapSense_Filter.c **** *
 846:Generated_Source\PSoC4/CapSense_Filter.c **** * \param wdType
 847:Generated_Source\PSoC4/CapSense_Filter.c **** *  Specifies the type of a widget.
 848:Generated_Source\PSoC4/CapSense_Filter.c **** *
 849:Generated_Source\PSoC4/CapSense_Filter.c **** *******************************************************************************/
 850:Generated_Source\PSoC4/CapSense_Filter.c **** void CapSense_InitializeIIRInternal(CapSense_PTR_FILTER_VARIANT ptrFilterHistObj,
 851:Generated_Source\PSoC4/CapSense_Filter.c ****                                             CapSense_RAM_SNS_STRUCT *ptrSensorObj, uint32 wdType)
 852:Generated_Source\PSoC4/CapSense_Filter.c **** {
 853:Generated_Source\PSoC4/CapSense_Filter.c ****     uint32 freqChannel;
 854:Generated_Source\PSoC4/CapSense_Filter.c **** 
 855:Generated_Source\PSoC4/CapSense_Filter.c ****     for(freqChannel = CapSense_NUM_SCAN_FREQS; freqChannel-- > 0u;)
 856:Generated_Source\PSoC4/CapSense_Filter.c ****     {
 857:Generated_Source\PSoC4/CapSense_Filter.c ****         if ((CapSense_WD_TYPE_ENUM)wdType != CapSense_WD_PROXIMITY_E)
 858:Generated_Source\PSoC4/CapSense_Filter.c ****         {
 859:Generated_Source\PSoC4/CapSense_Filter.c ****             #if (CapSense_REGULAR_SENSOR_EN && CapSense_REGULAR_RC_IIR_FILTER_EN)
 860:Generated_Source\PSoC4/CapSense_Filter.c ****                 #if (CapSense_REGULAR_IIR_RC_TYPE == CapSense_IIR_FILTER_PERFORMANCE)
 861:Generated_Source\PSoC4/CapSense_Filter.c ****                     ptrFilterHistObj.ptrRegular->regularChannel[freqChannel].iirHistory = ptrSensor
 862:Generated_Source\PSoC4/CapSense_Filter.c ****                     ptrFilterHistObj.ptrRegular->regularChannel[freqChannel].iirHistoryLow = 0u;
 863:Generated_Source\PSoC4/CapSense_Filter.c ****                 #else
 864:Generated_Source\PSoC4/CapSense_Filter.c ****                     ptrFilterHistObj.ptrRegular->regularChannel[freqChannel].iirHistory = ptrSensor
 865:Generated_Source\PSoC4/CapSense_Filter.c ****                 #endif /* (CapSense_REGULAR_IIR_RC_TYPE == CapSense_IIR_FILTER_PERFORMANCE) */
 866:Generated_Source\PSoC4/CapSense_Filter.c ****             #endif /* (CapSense_REGULAR_SENSOR_EN) */
 867:Generated_Source\PSoC4/CapSense_Filter.c ****         }
 868:Generated_Source\PSoC4/CapSense_Filter.c ****         else
 869:Generated_Source\PSoC4/CapSense_Filter.c ****         {
 870:Generated_Source\PSoC4/CapSense_Filter.c ****             #if (CapSense_PROXIMITY_SENSOR_EN && CapSense_PROX_RC_IIR_FILTER_EN)
 871:Generated_Source\PSoC4/CapSense_Filter.c ****                 #if (CapSense_PROX_IIR_RC_TYPE == CapSense_IIR_FILTER_PERFORMANCE)
 872:Generated_Source\PSoC4/CapSense_Filter.c ****                     ptrFilterHistObj.ptrProx->proxChannel[freqChannel].iirHistory = ptrSensorObj->r
 873:Generated_Source\PSoC4/CapSense_Filter.c ****                     ptrFilterHistObj.ptrProx->proxChannel[freqChannel].iirHistoryLow = 0u;
 874:Generated_Source\PSoC4/CapSense_Filter.c ****                 #else
 875:Generated_Source\PSoC4/CapSense_Filter.c ****                     ptrFilterHistObj.ptrProx->proxChannel[freqChannel].iirHistory = ptrSensorObj->r
 876:Generated_Source\PSoC4/CapSense_Filter.c ****                 #endif /* (CapSense_PROX_IIR_RC_TYPE == CapSense_IIR_FILTER_PERFORMANCE) */
 877:Generated_Source\PSoC4/CapSense_Filter.c ****             #endif /* (CapSense_PROX_SENSOR_EN) */
 878:Generated_Source\PSoC4/CapSense_Filter.c ****         }
 879:Generated_Source\PSoC4/CapSense_Filter.c ****     }
 880:Generated_Source\PSoC4/CapSense_Filter.c **** }
 881:Generated_Source\PSoC4/CapSense_Filter.c **** 
 882:Generated_Source\PSoC4/CapSense_Filter.c **** 
 883:Generated_Source\PSoC4/CapSense_Filter.c **** /*******************************************************************************
 884:Generated_Source\PSoC4/CapSense_Filter.c **** * Function Name: CapSense_RunIIRInternal
 885:Generated_Source\PSoC4/CapSense_Filter.c **** ****************************************************************************//**
 886:Generated_Source\PSoC4/CapSense_Filter.c **** *
 887:Generated_Source\PSoC4/CapSense_Filter.c **** * \brief
 888:Generated_Source\PSoC4/CapSense_Filter.c **** *  Run the IIR filter.
 889:Generated_Source\PSoC4/CapSense_Filter.c **** *
 890:Generated_Source\PSoC4/CapSense_Filter.c **** * \details
 891:Generated_Source\PSoC4/CapSense_Filter.c **** *  Run the IIR filter.
 892:Generated_Source\PSoC4/CapSense_Filter.c **** *
 893:Generated_Source\PSoC4/CapSense_Filter.c **** * \param ptrFilterHistObj
 894:Generated_Source\PSoC4/CapSense_Filter.c **** *  The pointer to the filter RAM object of the sensor.
 895:Generated_Source\PSoC4/CapSense_Filter.c **** *
 896:Generated_Source\PSoC4/CapSense_Filter.c **** * \param ptrSensorObj
 897:Generated_Source\PSoC4/CapSense_Filter.c **** *  The pointer to the sensor RAM object of the sensor.
 898:Generated_Source\PSoC4/CapSense_Filter.c **** *
ARM GAS  C:\Users\dell\AppData\Local\Temp\ccWEiAI7.s 			page 22


 899:Generated_Source\PSoC4/CapSense_Filter.c **** * \param wdType
 900:Generated_Source\PSoC4/CapSense_Filter.c **** *  Specifies the type of a widget.
 901:Generated_Source\PSoC4/CapSense_Filter.c **** *
 902:Generated_Source\PSoC4/CapSense_Filter.c **** *******************************************************************************/
 903:Generated_Source\PSoC4/CapSense_Filter.c **** void CapSense_RunIIRInternal(CapSense_PTR_FILTER_VARIANT ptrFilterHistObj,
 904:Generated_Source\PSoC4/CapSense_Filter.c ****                                      CapSense_RAM_SNS_STRUCT *ptrSensorObj, uint32 wdType)
 905:Generated_Source\PSoC4/CapSense_Filter.c **** {
 906:Generated_Source\PSoC4/CapSense_Filter.c ****     uint32 freqChannel;
 907:Generated_Source\PSoC4/CapSense_Filter.c ****     uint32 temp;
 908:Generated_Source\PSoC4/CapSense_Filter.c **** 
 909:Generated_Source\PSoC4/CapSense_Filter.c ****     for(freqChannel = CapSense_NUM_SCAN_FREQS; freqChannel-- > 0u;)
 910:Generated_Source\PSoC4/CapSense_Filter.c ****     {
 911:Generated_Source\PSoC4/CapSense_Filter.c ****         if ((CapSense_WD_TYPE_ENUM)wdType != CapSense_WD_PROXIMITY_E)
 912:Generated_Source\PSoC4/CapSense_Filter.c ****         {
 913:Generated_Source\PSoC4/CapSense_Filter.c ****             #if (CapSense_REGULAR_SENSOR_EN && CapSense_REGULAR_RC_IIR_FILTER_EN)
 914:Generated_Source\PSoC4/CapSense_Filter.c ****                 #if (CapSense_REGULAR_IIR_RC_TYPE == CapSense_IIR_FILTER_PERFORMANCE)
 915:Generated_Source\PSoC4/CapSense_Filter.c ****                     temp = ((uint32)ptrFilterHistObj.ptrRegular->regularChannel[freqChannel].iirHis
 916:Generated_Source\PSoC4/CapSense_Filter.c ****                     temp |= ptrFilterHistObj.ptrRegular->regularChannel[freqChannel].iirHistoryLow;
 917:Generated_Source\PSoC4/CapSense_Filter.c ****                     temp = CapSense_FtIIR1stOrder((uint32)ptrSensorObj->raw[freqChannel],
 918:Generated_Source\PSoC4/CapSense_Filter.c ****                                                         temp,
 919:Generated_Source\PSoC4/CapSense_Filter.c ****                                                         CapSense_REGULAR_IIR_RC_N,
 920:Generated_Source\PSoC4/CapSense_Filter.c ****                                                         CapSense_REGULAR_IIR_RC_SHIFT);
 921:Generated_Source\PSoC4/CapSense_Filter.c ****                     ptrFilterHistObj.ptrRegular->regularChannel[freqChannel].iirHistory = LO16(temp
 922:Generated_Source\PSoC4/CapSense_Filter.c ****                     ptrFilterHistObj.ptrRegular->regularChannel[freqChannel].iirHistoryLow = LO8(te
 923:Generated_Source\PSoC4/CapSense_Filter.c ****                     ptrSensorObj->raw[freqChannel] = LO16(temp >>CapSense_REGULAR_IIR_RC_SHIFT);
 924:Generated_Source\PSoC4/CapSense_Filter.c ****                 #else
 925:Generated_Source\PSoC4/CapSense_Filter.c ****                     temp =CapSense_FtIIR1stOrder((uint32)ptrSensorObj->raw[freqChannel],
 926:Generated_Source\PSoC4/CapSense_Filter.c ****                                                         (uint32)ptrFilterHistObj.ptrRegular->regula
 927:Generated_Source\PSoC4/CapSense_Filter.c ****                                                         CapSense_REGULAR_IIR_RC_N,
 928:Generated_Source\PSoC4/CapSense_Filter.c ****                                                         CapSense_REGULAR_IIR_RC_SHIFT);
 929:Generated_Source\PSoC4/CapSense_Filter.c ****                     ptrFilterHistObj.ptrRegular->regularChannel[freqChannel].iirHistory = LO16(temp
 930:Generated_Source\PSoC4/CapSense_Filter.c ****                     ptrSensorObj->raw[freqChannel] = LO16(temp >>CapSense_REGULAR_IIR_RC_SHIFT);
 931:Generated_Source\PSoC4/CapSense_Filter.c ****                 #endif /* (CapSense_REGULAR_IIR_RC_TYPE == CapSense_IIR_FILTER_PERFORMANCE) */
 932:Generated_Source\PSoC4/CapSense_Filter.c ****             #endif /* (CapSense_REGULAR_SENSOR_EN) */
 933:Generated_Source\PSoC4/CapSense_Filter.c ****         }
 934:Generated_Source\PSoC4/CapSense_Filter.c ****         else
 935:Generated_Source\PSoC4/CapSense_Filter.c ****         {
 936:Generated_Source\PSoC4/CapSense_Filter.c ****             #if (CapSense_PROXIMITY_SENSOR_EN && CapSense_PROX_RC_IIR_FILTER_EN)
 937:Generated_Source\PSoC4/CapSense_Filter.c ****                 #if (CapSense_PROX_IIR_RC_TYPE == CapSense_IIR_FILTER_PERFORMANCE)
 938:Generated_Source\PSoC4/CapSense_Filter.c ****                     temp =  ptrFilterHistObj.ptrProx->proxChannel[freqChannel].iirHistory << CapSen
 939:Generated_Source\PSoC4/CapSense_Filter.c ****                     temp |= ptrFilterHistObj.ptrProx->proxChannel[freqChannel].iirHistoryLow;
 940:Generated_Source\PSoC4/CapSense_Filter.c ****                     temp =CapSense_FtIIR1stOrder((uint32)ptrSensorObj->raw[freqChannel],
 941:Generated_Source\PSoC4/CapSense_Filter.c ****                                                         temp,
 942:Generated_Source\PSoC4/CapSense_Filter.c ****                                                         CapSense_PROX_IIR_RC_N,
 943:Generated_Source\PSoC4/CapSense_Filter.c ****                                                         CapSense_PROX_IIR_RC_SHIFT);
 944:Generated_Source\PSoC4/CapSense_Filter.c ****                     ptrFilterHistObj.ptrProx->proxChannel[freqChannel].iirHistory = LO16(temp >>Cap
 945:Generated_Source\PSoC4/CapSense_Filter.c ****                     ptrFilterHistObj.ptrProx->proxChannel[freqChannel].iirHistoryLow = LO8(temp);
 946:Generated_Source\PSoC4/CapSense_Filter.c ****                     ptrSensorObj->raw[freqChannel] = LO16(temp >>CapSense_PROX_IIR_RC_SHIFT);
 947:Generated_Source\PSoC4/CapSense_Filter.c ****                 #else
 948:Generated_Source\PSoC4/CapSense_Filter.c ****                     temp =CapSense_FtIIR1stOrder((uint32)ptrSensorObj->raw[freqChannel],
 949:Generated_Source\PSoC4/CapSense_Filter.c ****                                                         (uint32)ptrFilterHistObj.ptrProx->proxChann
 950:Generated_Source\PSoC4/CapSense_Filter.c ****                                                         CapSense_PROX_IIR_RC_N,
 951:Generated_Source\PSoC4/CapSense_Filter.c ****                                                         CapSense_PROX_IIR_RC_SHIFT);
 952:Generated_Source\PSoC4/CapSense_Filter.c ****                     ptrFilterHistObj.ptrProx->proxChannel[freqChannel].iirHistory = LO16(temp);
 953:Generated_Source\PSoC4/CapSense_Filter.c ****                     ptrSensorObj->raw[freqChannel] = LO16(temp >>CapSense_PROX_IIR_RC_SHIFT);
 954:Generated_Source\PSoC4/CapSense_Filter.c ****                 #endif /* (CapSense_PROX_IIR_RC_TYPE == CapSense_IIR_FILTER_PERFORMANCE) */
 955:Generated_Source\PSoC4/CapSense_Filter.c ****             #endif /* (CapSense_PROX_SENSOR_EN) */
ARM GAS  C:\Users\dell\AppData\Local\Temp\ccWEiAI7.s 			page 23


 956:Generated_Source\PSoC4/CapSense_Filter.c ****         }
 957:Generated_Source\PSoC4/CapSense_Filter.c ****     }
 958:Generated_Source\PSoC4/CapSense_Filter.c **** }
 959:Generated_Source\PSoC4/CapSense_Filter.c **** #endif /* #if (CapSense_REGULAR_RC_IIR_FILTER_EN || CapSense_PROX_RC_IIR_FILTER_EN) */
 960:Generated_Source\PSoC4/CapSense_Filter.c **** 
 961:Generated_Source\PSoC4/CapSense_Filter.c **** 
 962:Generated_Source\PSoC4/CapSense_Filter.c **** #if (CapSense_REGULAR_RC_MEDIAN_FILTER_EN || CapSense_PROX_RC_MEDIAN_FILTER_EN)
 963:Generated_Source\PSoC4/CapSense_Filter.c **** 
 964:Generated_Source\PSoC4/CapSense_Filter.c **** /*******************************************************************************
 965:Generated_Source\PSoC4/CapSense_Filter.c **** * Function Name: CapSense_InitializeMedian
 966:Generated_Source\PSoC4/CapSense_Filter.c **** ****************************************************************************//**
 967:Generated_Source\PSoC4/CapSense_Filter.c **** *
 968:Generated_Source\PSoC4/CapSense_Filter.c **** * \brief
 969:Generated_Source\PSoC4/CapSense_Filter.c **** *  Initializes the Median filter history.
 970:Generated_Source\PSoC4/CapSense_Filter.c **** *
 971:Generated_Source\PSoC4/CapSense_Filter.c **** * \details
 972:Generated_Source\PSoC4/CapSense_Filter.c **** *  Initializes the Median filter history.
 973:Generated_Source\PSoC4/CapSense_Filter.c **** *
 974:Generated_Source\PSoC4/CapSense_Filter.c **** * \param widgetId
 975:Generated_Source\PSoC4/CapSense_Filter.c **** *  Specifies the ID number of the widget.
 976:Generated_Source\PSoC4/CapSense_Filter.c **** *
 977:Generated_Source\PSoC4/CapSense_Filter.c **** * \param sensorId
 978:Generated_Source\PSoC4/CapSense_Filter.c **** *  Specifies the ID number of the sensor in the widget.
 979:Generated_Source\PSoC4/CapSense_Filter.c **** *
 980:Generated_Source\PSoC4/CapSense_Filter.c **** *******************************************************************************/
 981:Generated_Source\PSoC4/CapSense_Filter.c **** void CapSense_InitializeMedian(uint32 widgetId, uint32 sensorId)
 982:Generated_Source\PSoC4/CapSense_Filter.c **** {
 983:Generated_Source\PSoC4/CapSense_Filter.c ****     CapSense_FLASH_WD_STRUCT const *ptrWidget = &CapSense_dsFlash.wdgtArray[widgetId];
 984:Generated_Source\PSoC4/CapSense_Filter.c ****     CapSense_RAM_SNS_STRUCT *ptrSensor = NULL;
 985:Generated_Source\PSoC4/CapSense_Filter.c ****     CapSense_PTR_FILTER_VARIANT ptrFilterHistObj;
 986:Generated_Source\PSoC4/CapSense_Filter.c **** 
 987:Generated_Source\PSoC4/CapSense_Filter.c ****     /* Find pointer to specified sensor object */
 988:Generated_Source\PSoC4/CapSense_Filter.c ****     ptrSensor = ptrWidget->ptr2SnsRam;
 989:Generated_Source\PSoC4/CapSense_Filter.c ****     ptrSensor = &ptrSensor[sensorId];
 990:Generated_Source\PSoC4/CapSense_Filter.c **** 
 991:Generated_Source\PSoC4/CapSense_Filter.c ****     /* Find pointer to specified filter sensor object */
 992:Generated_Source\PSoC4/CapSense_Filter.c ****     ptrFilterHistObj.ptr = ptrWidget->ptr2FltrHistory;
 993:Generated_Source\PSoC4/CapSense_Filter.c **** 
 994:Generated_Source\PSoC4/CapSense_Filter.c ****     if ((CapSense_WD_TYPE_ENUM)ptrWidget->wdgtType != CapSense_WD_PROXIMITY_E)
 995:Generated_Source\PSoC4/CapSense_Filter.c ****     {
 996:Generated_Source\PSoC4/CapSense_Filter.c ****         #if (CapSense_REGULAR_SENSOR_EN)
 997:Generated_Source\PSoC4/CapSense_Filter.c ****             ptrFilterHistObj.ptrRegular = &ptrFilterHistObj.ptrRegular[sensorId];
 998:Generated_Source\PSoC4/CapSense_Filter.c ****         #endif /* (CapSense_REGULAR_SENSOR_EN) */
 999:Generated_Source\PSoC4/CapSense_Filter.c ****     }
1000:Generated_Source\PSoC4/CapSense_Filter.c ****     else
1001:Generated_Source\PSoC4/CapSense_Filter.c ****     {
1002:Generated_Source\PSoC4/CapSense_Filter.c ****         #if (CapSense_PROXIMITY_SENSOR_EN)
1003:Generated_Source\PSoC4/CapSense_Filter.c ****             ptrFilterHistObj.ptrProx = &ptrFilterHistObj.ptrProx[sensorId];
1004:Generated_Source\PSoC4/CapSense_Filter.c ****         #endif /* (CapSense_PROXIMITY_SENSOR_EN) */
1005:Generated_Source\PSoC4/CapSense_Filter.c ****     }
1006:Generated_Source\PSoC4/CapSense_Filter.c **** 
1007:Generated_Source\PSoC4/CapSense_Filter.c ****     CapSense_InitializeMedianInternal(ptrFilterHistObj, ptrSensor, (uint32)ptrWidget->wdgtType);
1008:Generated_Source\PSoC4/CapSense_Filter.c **** }
1009:Generated_Source\PSoC4/CapSense_Filter.c **** 
1010:Generated_Source\PSoC4/CapSense_Filter.c **** 
1011:Generated_Source\PSoC4/CapSense_Filter.c **** /*******************************************************************************
1012:Generated_Source\PSoC4/CapSense_Filter.c **** * Function Name: CapSense_RunMedian
ARM GAS  C:\Users\dell\AppData\Local\Temp\ccWEiAI7.s 			page 24


1013:Generated_Source\PSoC4/CapSense_Filter.c **** ****************************************************************************//**
1014:Generated_Source\PSoC4/CapSense_Filter.c **** *
1015:Generated_Source\PSoC4/CapSense_Filter.c **** * \brief
1016:Generated_Source\PSoC4/CapSense_Filter.c **** *  Executes the Median filter algorithm on a sensor indicated by an input
1017:Generated_Source\PSoC4/CapSense_Filter.c **** *  parameter.
1018:Generated_Source\PSoC4/CapSense_Filter.c **** *
1019:Generated_Source\PSoC4/CapSense_Filter.c **** * \details
1020:Generated_Source\PSoC4/CapSense_Filter.c **** *  Executes the Median filter algorithm on a sensor indicated by an input
1021:Generated_Source\PSoC4/CapSense_Filter.c **** *  parameter.
1022:Generated_Source\PSoC4/CapSense_Filter.c **** *
1023:Generated_Source\PSoC4/CapSense_Filter.c **** * \param widgetId
1024:Generated_Source\PSoC4/CapSense_Filter.c **** *  Specifies the ID number of the widget.
1025:Generated_Source\PSoC4/CapSense_Filter.c **** *
1026:Generated_Source\PSoC4/CapSense_Filter.c **** * \param sensorId
1027:Generated_Source\PSoC4/CapSense_Filter.c **** *  Specifies the ID number of the sensor in the widget.
1028:Generated_Source\PSoC4/CapSense_Filter.c **** *
1029:Generated_Source\PSoC4/CapSense_Filter.c **** *******************************************************************************/
1030:Generated_Source\PSoC4/CapSense_Filter.c **** void CapSense_RunMedian(uint32 widgetId, uint32 sensorId)
1031:Generated_Source\PSoC4/CapSense_Filter.c **** {
1032:Generated_Source\PSoC4/CapSense_Filter.c ****     CapSense_FLASH_WD_STRUCT const *ptrWidget = &CapSense_dsFlash.wdgtArray[widgetId];
1033:Generated_Source\PSoC4/CapSense_Filter.c ****     CapSense_RAM_SNS_STRUCT *ptrSensor = NULL;
1034:Generated_Source\PSoC4/CapSense_Filter.c ****     CapSense_PTR_FILTER_VARIANT ptrFilterHistObj;
1035:Generated_Source\PSoC4/CapSense_Filter.c **** 
1036:Generated_Source\PSoC4/CapSense_Filter.c ****     /* Find pointer to specified sensor object */
1037:Generated_Source\PSoC4/CapSense_Filter.c ****     ptrSensor = ptrWidget->ptr2SnsRam;
1038:Generated_Source\PSoC4/CapSense_Filter.c ****     ptrSensor = &ptrSensor[sensorId];
1039:Generated_Source\PSoC4/CapSense_Filter.c **** 
1040:Generated_Source\PSoC4/CapSense_Filter.c ****     /* Find pointer to specified filter sensor object */
1041:Generated_Source\PSoC4/CapSense_Filter.c ****     ptrFilterHistObj.ptr = ptrWidget->ptr2FltrHistory;
1042:Generated_Source\PSoC4/CapSense_Filter.c **** 
1043:Generated_Source\PSoC4/CapSense_Filter.c ****     if ((CapSense_WD_TYPE_ENUM)ptrWidget->wdgtType != CapSense_WD_PROXIMITY_E)
1044:Generated_Source\PSoC4/CapSense_Filter.c ****     {
1045:Generated_Source\PSoC4/CapSense_Filter.c ****         #if (CapSense_REGULAR_SENSOR_EN)
1046:Generated_Source\PSoC4/CapSense_Filter.c ****             ptrFilterHistObj.ptrRegular = &ptrFilterHistObj.ptrRegular[sensorId];
1047:Generated_Source\PSoC4/CapSense_Filter.c ****         #endif /* (CapSense_REGULAR_SENSOR_EN) */
1048:Generated_Source\PSoC4/CapSense_Filter.c ****     }
1049:Generated_Source\PSoC4/CapSense_Filter.c ****     else
1050:Generated_Source\PSoC4/CapSense_Filter.c ****     {
1051:Generated_Source\PSoC4/CapSense_Filter.c ****         #if (CapSense_PROXIMITY_SENSOR_EN)
1052:Generated_Source\PSoC4/CapSense_Filter.c ****             ptrFilterHistObj.ptrProx = &ptrFilterHistObj.ptrProx[sensorId];
1053:Generated_Source\PSoC4/CapSense_Filter.c ****         #endif /* (CapSense_PROXIMITY_SENSOR_EN) */
1054:Generated_Source\PSoC4/CapSense_Filter.c ****     }
1055:Generated_Source\PSoC4/CapSense_Filter.c **** 
1056:Generated_Source\PSoC4/CapSense_Filter.c ****     CapSense_RunMedianInternal(ptrFilterHistObj, ptrSensor, (uint32)ptrWidget->wdgtType);
1057:Generated_Source\PSoC4/CapSense_Filter.c **** }
1058:Generated_Source\PSoC4/CapSense_Filter.c **** 
1059:Generated_Source\PSoC4/CapSense_Filter.c **** 
1060:Generated_Source\PSoC4/CapSense_Filter.c **** /*******************************************************************************
1061:Generated_Source\PSoC4/CapSense_Filter.c **** * Function Name: CapSense_InitializeMedianInternal
1062:Generated_Source\PSoC4/CapSense_Filter.c **** ****************************************************************************//**
1063:Generated_Source\PSoC4/CapSense_Filter.c **** *
1064:Generated_Source\PSoC4/CapSense_Filter.c **** * \brief
1065:Generated_Source\PSoC4/CapSense_Filter.c **** *  Initializes the Median filter.
1066:Generated_Source\PSoC4/CapSense_Filter.c **** *
1067:Generated_Source\PSoC4/CapSense_Filter.c **** * \details
1068:Generated_Source\PSoC4/CapSense_Filter.c **** *  Initializes the Median filter.
1069:Generated_Source\PSoC4/CapSense_Filter.c **** *
ARM GAS  C:\Users\dell\AppData\Local\Temp\ccWEiAI7.s 			page 25


1070:Generated_Source\PSoC4/CapSense_Filter.c **** * \param ptrFilterHistObj
1071:Generated_Source\PSoC4/CapSense_Filter.c **** *  The pointer to the filter RAM object of the sensor.
1072:Generated_Source\PSoC4/CapSense_Filter.c **** *
1073:Generated_Source\PSoC4/CapSense_Filter.c **** * \param ptrSensorObj
1074:Generated_Source\PSoC4/CapSense_Filter.c **** *  The pointer to the sensor RAM object of the sensor.
1075:Generated_Source\PSoC4/CapSense_Filter.c **** *
1076:Generated_Source\PSoC4/CapSense_Filter.c **** * \param wdType
1077:Generated_Source\PSoC4/CapSense_Filter.c **** *  Specifies the type of a widget.
1078:Generated_Source\PSoC4/CapSense_Filter.c **** *
1079:Generated_Source\PSoC4/CapSense_Filter.c **** *******************************************************************************/
1080:Generated_Source\PSoC4/CapSense_Filter.c **** void CapSense_InitializeMedianInternal(CapSense_PTR_FILTER_VARIANT ptrFilterHistObj,
1081:Generated_Source\PSoC4/CapSense_Filter.c ****                                                CapSense_RAM_SNS_STRUCT *ptrSensorObj, uint32 wdType
1082:Generated_Source\PSoC4/CapSense_Filter.c **** {
1083:Generated_Source\PSoC4/CapSense_Filter.c ****     uint32 freqChannel;
1084:Generated_Source\PSoC4/CapSense_Filter.c **** 
1085:Generated_Source\PSoC4/CapSense_Filter.c ****     for(freqChannel = CapSense_NUM_SCAN_FREQS; freqChannel-- > 0u;)
1086:Generated_Source\PSoC4/CapSense_Filter.c ****     {
1087:Generated_Source\PSoC4/CapSense_Filter.c ****         if ((CapSense_WD_TYPE_ENUM)wdType != CapSense_WD_PROXIMITY_E)
1088:Generated_Source\PSoC4/CapSense_Filter.c ****         {
1089:Generated_Source\PSoC4/CapSense_Filter.c ****             #if (CapSense_REGULAR_SENSOR_EN && CapSense_REGULAR_RC_MEDIAN_FILTER_EN)
1090:Generated_Source\PSoC4/CapSense_Filter.c ****                 ptrFilterHistObj.ptrRegular->regularChannel[freqChannel].medHistory[0u] = ptrSensor
1091:Generated_Source\PSoC4/CapSense_Filter.c ****                 ptrFilterHistObj.ptrRegular->regularChannel[freqChannel].medHistory[1u] = ptrSensor
1092:Generated_Source\PSoC4/CapSense_Filter.c ****             #endif /* (CapSense_REGULAR_SENSOR_EN) */
1093:Generated_Source\PSoC4/CapSense_Filter.c ****         }
1094:Generated_Source\PSoC4/CapSense_Filter.c ****         else
1095:Generated_Source\PSoC4/CapSense_Filter.c ****         {
1096:Generated_Source\PSoC4/CapSense_Filter.c ****             #if (CapSense_PROXIMITY_SENSOR_EN && CapSense_PROX_RC_MEDIAN_FILTER_EN)
1097:Generated_Source\PSoC4/CapSense_Filter.c ****                 ptrFilterHistObj.ptrProx->proxChannel[freqChannel].medHistory[0u] = ptrSensorObj->r
1098:Generated_Source\PSoC4/CapSense_Filter.c ****                 ptrFilterHistObj.ptrProx->proxChannel[freqChannel].medHistory[1u] = ptrSensorObj->r
1099:Generated_Source\PSoC4/CapSense_Filter.c ****             #endif /* (CapSense_PROXIMITY_SENSOR_EN) */
1100:Generated_Source\PSoC4/CapSense_Filter.c ****         }
1101:Generated_Source\PSoC4/CapSense_Filter.c ****     }
1102:Generated_Source\PSoC4/CapSense_Filter.c **** }
1103:Generated_Source\PSoC4/CapSense_Filter.c **** 
1104:Generated_Source\PSoC4/CapSense_Filter.c **** 
1105:Generated_Source\PSoC4/CapSense_Filter.c **** /*******************************************************************************
1106:Generated_Source\PSoC4/CapSense_Filter.c **** * Function Name: CapSense_RunMedianInternal
1107:Generated_Source\PSoC4/CapSense_Filter.c **** ****************************************************************************//**
1108:Generated_Source\PSoC4/CapSense_Filter.c **** *
1109:Generated_Source\PSoC4/CapSense_Filter.c **** * \brief
1110:Generated_Source\PSoC4/CapSense_Filter.c **** *  Runs the Median filter.
1111:Generated_Source\PSoC4/CapSense_Filter.c **** *
1112:Generated_Source\PSoC4/CapSense_Filter.c **** * \details
1113:Generated_Source\PSoC4/CapSense_Filter.c **** *  Runs the Median filter.
1114:Generated_Source\PSoC4/CapSense_Filter.c **** *
1115:Generated_Source\PSoC4/CapSense_Filter.c **** * \param ptrFilterHistObj
1116:Generated_Source\PSoC4/CapSense_Filter.c **** *  The pointer to the filter RAM object of the sensor.
1117:Generated_Source\PSoC4/CapSense_Filter.c **** *
1118:Generated_Source\PSoC4/CapSense_Filter.c **** * \param ptrSensorObj
1119:Generated_Source\PSoC4/CapSense_Filter.c **** *  The pointer to the sensor RAM object of the sensor.
1120:Generated_Source\PSoC4/CapSense_Filter.c **** *
1121:Generated_Source\PSoC4/CapSense_Filter.c **** * \param wdType
1122:Generated_Source\PSoC4/CapSense_Filter.c **** *  Specifies the type of a widget.
1123:Generated_Source\PSoC4/CapSense_Filter.c **** *
1124:Generated_Source\PSoC4/CapSense_Filter.c **** *******************************************************************************/
1125:Generated_Source\PSoC4/CapSense_Filter.c **** void CapSense_RunMedianInternal(CapSense_PTR_FILTER_VARIANT ptrFilterHistObj,
1126:Generated_Source\PSoC4/CapSense_Filter.c ****                                         CapSense_RAM_SNS_STRUCT *ptrSensorObj, uint32 wdType)
ARM GAS  C:\Users\dell\AppData\Local\Temp\ccWEiAI7.s 			page 26


1127:Generated_Source\PSoC4/CapSense_Filter.c **** {
1128:Generated_Source\PSoC4/CapSense_Filter.c ****     uint32 freqChannel;
1129:Generated_Source\PSoC4/CapSense_Filter.c **** 
1130:Generated_Source\PSoC4/CapSense_Filter.c ****     #if ((CapSense_REGULAR_SENSOR_EN && CapSense_REGULAR_RC_MEDIAN_FILTER_EN) || \
1131:Generated_Source\PSoC4/CapSense_Filter.c ****          (CapSense_PROXIMITY_SENSOR_EN && CapSense_PROX_RC_MEDIAN_FILTER_EN))
1132:Generated_Source\PSoC4/CapSense_Filter.c ****         uint32 temp;
1133:Generated_Source\PSoC4/CapSense_Filter.c ****     #endif
1134:Generated_Source\PSoC4/CapSense_Filter.c **** 
1135:Generated_Source\PSoC4/CapSense_Filter.c ****     for(freqChannel = CapSense_NUM_SCAN_FREQS; freqChannel-- > 0u;)
1136:Generated_Source\PSoC4/CapSense_Filter.c ****     {
1137:Generated_Source\PSoC4/CapSense_Filter.c ****         if ((CapSense_WD_TYPE_ENUM)wdType != CapSense_WD_PROXIMITY_E)
1138:Generated_Source\PSoC4/CapSense_Filter.c ****         {
1139:Generated_Source\PSoC4/CapSense_Filter.c ****             #if (CapSense_REGULAR_SENSOR_EN && CapSense_REGULAR_RC_MEDIAN_FILTER_EN)
1140:Generated_Source\PSoC4/CapSense_Filter.c ****                 temp = CapSense_FtMedian((uint32)ptrSensorObj->raw[freqChannel],\
1141:Generated_Source\PSoC4/CapSense_Filter.c ****                                                  (uint32)ptrFilterHistObj.ptrRegular->regularChanne
1142:Generated_Source\PSoC4/CapSense_Filter.c ****                                                  (uint32)ptrFilterHistObj.ptrRegular->regularChanne
1143:Generated_Source\PSoC4/CapSense_Filter.c ****                 ptrFilterHistObj.ptrRegular->regularChannel[freqChannel].medHistory[1u] = \
1144:Generated_Source\PSoC4/CapSense_Filter.c ****                 ptrFilterHistObj.ptrRegular->regularChannel[freqChannel].medHistory[0u];
1145:Generated_Source\PSoC4/CapSense_Filter.c ****                 ptrFilterHistObj.ptrRegular->regularChannel[freqChannel].medHistory[0u] = ptrSensor
1146:Generated_Source\PSoC4/CapSense_Filter.c ****                 ptrSensorObj->raw[freqChannel] = LO16(temp);
1147:Generated_Source\PSoC4/CapSense_Filter.c ****             #endif /* (CapSense_REGULAR_SENSOR_EN) */
1148:Generated_Source\PSoC4/CapSense_Filter.c ****         }
1149:Generated_Source\PSoC4/CapSense_Filter.c ****         else
1150:Generated_Source\PSoC4/CapSense_Filter.c ****         {
1151:Generated_Source\PSoC4/CapSense_Filter.c ****             #if (CapSense_PROXIMITY_SENSOR_EN && CapSense_PROX_RC_MEDIAN_FILTER_EN)
1152:Generated_Source\PSoC4/CapSense_Filter.c ****                 temp = CapSense_FtMedian((uint32)ptrSensorObj->raw[freqChannel],\
1153:Generated_Source\PSoC4/CapSense_Filter.c ****                                                  (uint32)ptrFilterHistObj.ptrProx->proxChannel[freq
1154:Generated_Source\PSoC4/CapSense_Filter.c ****                                                  (uint32)ptrFilterHistObj.ptrProx->proxChannel[freq
1155:Generated_Source\PSoC4/CapSense_Filter.c ****                 ptrFilterHistObj.ptrProx->proxChannel[freqChannel].medHistory[1u] = \
1156:Generated_Source\PSoC4/CapSense_Filter.c ****                 ptrFilterHistObj.ptrProx->proxChannel[freqChannel].medHistory[0u];
1157:Generated_Source\PSoC4/CapSense_Filter.c ****                 ptrFilterHistObj.ptrProx->proxChannel[freqChannel].medHistory[0u] = ptrSensorObj->r
1158:Generated_Source\PSoC4/CapSense_Filter.c ****                 ptrSensorObj->raw[freqChannel] = LO16(temp);
1159:Generated_Source\PSoC4/CapSense_Filter.c ****             #endif /* (CapSense_PROXIMITY_SENSOR_EN) */
1160:Generated_Source\PSoC4/CapSense_Filter.c ****         }
1161:Generated_Source\PSoC4/CapSense_Filter.c ****     }
1162:Generated_Source\PSoC4/CapSense_Filter.c **** }
1163:Generated_Source\PSoC4/CapSense_Filter.c **** #endif /* (CapSense_REGULAR_RC_MEDIAN_FILTER_EN || CapSense_PROX_RC_MEDIAN_FILTER_EN) */
1164:Generated_Source\PSoC4/CapSense_Filter.c **** 
1165:Generated_Source\PSoC4/CapSense_Filter.c **** 
1166:Generated_Source\PSoC4/CapSense_Filter.c **** #if (CapSense_REGULAR_RC_AVERAGE_FILTER_EN || CapSense_PROX_RC_AVERAGE_FILTER_EN)
1167:Generated_Source\PSoC4/CapSense_Filter.c **** 
1168:Generated_Source\PSoC4/CapSense_Filter.c **** /*******************************************************************************
1169:Generated_Source\PSoC4/CapSense_Filter.c **** * Function Name: CapSense_InitializeAverage
1170:Generated_Source\PSoC4/CapSense_Filter.c **** ****************************************************************************//**
1171:Generated_Source\PSoC4/CapSense_Filter.c **** *
1172:Generated_Source\PSoC4/CapSense_Filter.c **** * \brief
1173:Generated_Source\PSoC4/CapSense_Filter.c **** *  Initializes the average filter history.
1174:Generated_Source\PSoC4/CapSense_Filter.c **** *
1175:Generated_Source\PSoC4/CapSense_Filter.c **** * \details
1176:Generated_Source\PSoC4/CapSense_Filter.c **** *  Initializes the average filter history.
1177:Generated_Source\PSoC4/CapSense_Filter.c **** *
1178:Generated_Source\PSoC4/CapSense_Filter.c **** * \param widgetId
1179:Generated_Source\PSoC4/CapSense_Filter.c **** *  Specifies the ID number of the widget.
1180:Generated_Source\PSoC4/CapSense_Filter.c **** *
1181:Generated_Source\PSoC4/CapSense_Filter.c **** * \param sensorId
1182:Generated_Source\PSoC4/CapSense_Filter.c **** *  Specifies the ID number of the sensor in the widget.
1183:Generated_Source\PSoC4/CapSense_Filter.c **** *
ARM GAS  C:\Users\dell\AppData\Local\Temp\ccWEiAI7.s 			page 27


1184:Generated_Source\PSoC4/CapSense_Filter.c **** *******************************************************************************/
1185:Generated_Source\PSoC4/CapSense_Filter.c **** void CapSense_InitializeAverage(uint32 widgetId, uint32 sensorId)
1186:Generated_Source\PSoC4/CapSense_Filter.c **** {
1187:Generated_Source\PSoC4/CapSense_Filter.c ****     CapSense_FLASH_WD_STRUCT const *ptrWidget = &CapSense_dsFlash.wdgtArray[widgetId];
1188:Generated_Source\PSoC4/CapSense_Filter.c ****     CapSense_RAM_SNS_STRUCT *ptrSensor = NULL;
1189:Generated_Source\PSoC4/CapSense_Filter.c ****     CapSense_PTR_FILTER_VARIANT ptrFilterHistObj;
1190:Generated_Source\PSoC4/CapSense_Filter.c **** 
1191:Generated_Source\PSoC4/CapSense_Filter.c ****     /* Find pointer to specified sensor object */
1192:Generated_Source\PSoC4/CapSense_Filter.c ****     ptrSensor = ptrWidget->ptr2SnsRam;
1193:Generated_Source\PSoC4/CapSense_Filter.c ****     ptrSensor = &ptrSensor[sensorId];
1194:Generated_Source\PSoC4/CapSense_Filter.c **** 
1195:Generated_Source\PSoC4/CapSense_Filter.c ****     /* Find pointer to specified filter sensor object */
1196:Generated_Source\PSoC4/CapSense_Filter.c ****     ptrFilterHistObj.ptr = ptrWidget->ptr2FltrHistory;
1197:Generated_Source\PSoC4/CapSense_Filter.c **** 
1198:Generated_Source\PSoC4/CapSense_Filter.c ****     if ((CapSense_WD_TYPE_ENUM)ptrWidget->wdgtType != CapSense_WD_PROXIMITY_E)
1199:Generated_Source\PSoC4/CapSense_Filter.c ****     {
1200:Generated_Source\PSoC4/CapSense_Filter.c ****         #if (CapSense_REGULAR_SENSOR_EN)
1201:Generated_Source\PSoC4/CapSense_Filter.c ****             ptrFilterHistObj.ptrRegular = &ptrFilterHistObj.ptrRegular[sensorId];
1202:Generated_Source\PSoC4/CapSense_Filter.c ****         #endif /* (CapSense_REGULAR_SENSOR_EN) */
1203:Generated_Source\PSoC4/CapSense_Filter.c ****     }
1204:Generated_Source\PSoC4/CapSense_Filter.c ****     else
1205:Generated_Source\PSoC4/CapSense_Filter.c ****     {
1206:Generated_Source\PSoC4/CapSense_Filter.c ****         #if (CapSense_PROXIMITY_SENSOR_EN)
1207:Generated_Source\PSoC4/CapSense_Filter.c ****             ptrFilterHistObj.ptrProx = &ptrFilterHistObj.ptrProx[sensorId];
1208:Generated_Source\PSoC4/CapSense_Filter.c ****         #endif /* (CapSense_PROXIMITY_SENSOR_EN) */
1209:Generated_Source\PSoC4/CapSense_Filter.c ****     }
1210:Generated_Source\PSoC4/CapSense_Filter.c **** 
1211:Generated_Source\PSoC4/CapSense_Filter.c ****     CapSense_InitializeAverageInternal(ptrFilterHistObj, ptrSensor, (uint32)ptrWidget->wdgtType);
1212:Generated_Source\PSoC4/CapSense_Filter.c **** }
1213:Generated_Source\PSoC4/CapSense_Filter.c **** 
1214:Generated_Source\PSoC4/CapSense_Filter.c **** 
1215:Generated_Source\PSoC4/CapSense_Filter.c **** /*******************************************************************************
1216:Generated_Source\PSoC4/CapSense_Filter.c **** * Function Name: CapSense_RunAverage
1217:Generated_Source\PSoC4/CapSense_Filter.c **** ****************************************************************************//**
1218:Generated_Source\PSoC4/CapSense_Filter.c **** *
1219:Generated_Source\PSoC4/CapSense_Filter.c **** * \brief
1220:Generated_Source\PSoC4/CapSense_Filter.c **** *  Executes the average filter algorithm on a sensor indicated by an input
1221:Generated_Source\PSoC4/CapSense_Filter.c **** *  parameter.
1222:Generated_Source\PSoC4/CapSense_Filter.c **** *
1223:Generated_Source\PSoC4/CapSense_Filter.c **** * \details
1224:Generated_Source\PSoC4/CapSense_Filter.c **** *  Executes the average filter algorithm on a sensor indicated by an input
1225:Generated_Source\PSoC4/CapSense_Filter.c **** *  parameter.
1226:Generated_Source\PSoC4/CapSense_Filter.c **** *
1227:Generated_Source\PSoC4/CapSense_Filter.c **** * \param widgetId
1228:Generated_Source\PSoC4/CapSense_Filter.c **** *  Specifies the ID number of the widget.
1229:Generated_Source\PSoC4/CapSense_Filter.c **** *
1230:Generated_Source\PSoC4/CapSense_Filter.c **** * \param sensorId
1231:Generated_Source\PSoC4/CapSense_Filter.c **** *  Specifies the ID number of the sensor in the widget.
1232:Generated_Source\PSoC4/CapSense_Filter.c **** *
1233:Generated_Source\PSoC4/CapSense_Filter.c **** *******************************************************************************/
1234:Generated_Source\PSoC4/CapSense_Filter.c **** void CapSense_RunAverage(uint32 widgetId, uint32 sensorId)
1235:Generated_Source\PSoC4/CapSense_Filter.c **** {
1236:Generated_Source\PSoC4/CapSense_Filter.c ****     CapSense_FLASH_WD_STRUCT const *ptrWidget = &CapSense_dsFlash.wdgtArray[widgetId];
1237:Generated_Source\PSoC4/CapSense_Filter.c ****     CapSense_RAM_SNS_STRUCT *ptrSensor = NULL;
1238:Generated_Source\PSoC4/CapSense_Filter.c ****     CapSense_PTR_FILTER_VARIANT ptrFilterHistObj;
1239:Generated_Source\PSoC4/CapSense_Filter.c **** 
1240:Generated_Source\PSoC4/CapSense_Filter.c ****     /* Find pointer to specified sensor object */
ARM GAS  C:\Users\dell\AppData\Local\Temp\ccWEiAI7.s 			page 28


1241:Generated_Source\PSoC4/CapSense_Filter.c ****     ptrSensor = ptrWidget->ptr2SnsRam;
1242:Generated_Source\PSoC4/CapSense_Filter.c ****     ptrSensor = &ptrSensor[sensorId];
1243:Generated_Source\PSoC4/CapSense_Filter.c **** 
1244:Generated_Source\PSoC4/CapSense_Filter.c ****     /* Find pointer to specified filter sensor object */
1245:Generated_Source\PSoC4/CapSense_Filter.c ****     ptrFilterHistObj.ptr = ptrWidget->ptr2FltrHistory;
1246:Generated_Source\PSoC4/CapSense_Filter.c **** 
1247:Generated_Source\PSoC4/CapSense_Filter.c ****     if ((CapSense_WD_TYPE_ENUM)ptrWidget->wdgtType != CapSense_WD_PROXIMITY_E)
1248:Generated_Source\PSoC4/CapSense_Filter.c ****     {
1249:Generated_Source\PSoC4/CapSense_Filter.c ****         #if (CapSense_REGULAR_SENSOR_EN)
1250:Generated_Source\PSoC4/CapSense_Filter.c ****             ptrFilterHistObj.ptrRegular = &ptrFilterHistObj.ptrRegular[sensorId];
1251:Generated_Source\PSoC4/CapSense_Filter.c ****         #endif /* (CapSense_REGULAR_SENSOR_EN) */
1252:Generated_Source\PSoC4/CapSense_Filter.c ****     }
1253:Generated_Source\PSoC4/CapSense_Filter.c ****     else
1254:Generated_Source\PSoC4/CapSense_Filter.c ****     {
1255:Generated_Source\PSoC4/CapSense_Filter.c ****         #if (CapSense_PROXIMITY_SENSOR_EN)
1256:Generated_Source\PSoC4/CapSense_Filter.c ****             ptrFilterHistObj.ptrProx = &ptrFilterHistObj.ptrProx[sensorId];
1257:Generated_Source\PSoC4/CapSense_Filter.c ****         #endif /* (CapSense_PROXIMITY_SENSOR_EN) */
1258:Generated_Source\PSoC4/CapSense_Filter.c ****     }
1259:Generated_Source\PSoC4/CapSense_Filter.c **** 
1260:Generated_Source\PSoC4/CapSense_Filter.c ****     CapSense_RunAverageInternal(ptrFilterHistObj, ptrSensor, (uint32)ptrWidget->wdgtType);
1261:Generated_Source\PSoC4/CapSense_Filter.c **** }
1262:Generated_Source\PSoC4/CapSense_Filter.c **** 
1263:Generated_Source\PSoC4/CapSense_Filter.c **** 
1264:Generated_Source\PSoC4/CapSense_Filter.c **** /*******************************************************************************
1265:Generated_Source\PSoC4/CapSense_Filter.c **** * Function Name: CapSense_InitializeAverageInternal
1266:Generated_Source\PSoC4/CapSense_Filter.c **** ****************************************************************************//**
1267:Generated_Source\PSoC4/CapSense_Filter.c **** *
1268:Generated_Source\PSoC4/CapSense_Filter.c **** * \brief
1269:Generated_Source\PSoC4/CapSense_Filter.c **** *  Initializes the average filter.
1270:Generated_Source\PSoC4/CapSense_Filter.c **** *
1271:Generated_Source\PSoC4/CapSense_Filter.c **** * \details
1272:Generated_Source\PSoC4/CapSense_Filter.c **** *  Initializes the average filter.
1273:Generated_Source\PSoC4/CapSense_Filter.c **** *
1274:Generated_Source\PSoC4/CapSense_Filter.c **** * \param ptrFilterHistObj
1275:Generated_Source\PSoC4/CapSense_Filter.c **** *  The pointer to the filter RAM object of the sensor.
1276:Generated_Source\PSoC4/CapSense_Filter.c **** *
1277:Generated_Source\PSoC4/CapSense_Filter.c **** * \param ptrSensorObj
1278:Generated_Source\PSoC4/CapSense_Filter.c **** *  The pointer to the sensor RAM object of the sensor.
1279:Generated_Source\PSoC4/CapSense_Filter.c **** *
1280:Generated_Source\PSoC4/CapSense_Filter.c **** * \param wdType
1281:Generated_Source\PSoC4/CapSense_Filter.c **** *  Specifies the type of a widget.
1282:Generated_Source\PSoC4/CapSense_Filter.c **** *
1283:Generated_Source\PSoC4/CapSense_Filter.c **** *******************************************************************************/
1284:Generated_Source\PSoC4/CapSense_Filter.c **** void CapSense_InitializeAverageInternal(CapSense_PTR_FILTER_VARIANT ptrFilterHistObj,\
1285:Generated_Source\PSoC4/CapSense_Filter.c ****                                                   CapSense_RAM_SNS_STRUCT *ptrSensorObj, uint32 wdT
1286:Generated_Source\PSoC4/CapSense_Filter.c **** {
 276              		.loc 1 1286 0
 277              		.cfi_startproc
 278              		@ args = 0, pretend = 0, frame = 0
 279              		@ frame_needed = 0, uses_anonymous_args = 0
 280              	.LVL35:
 281 0000 F0B5     		push	{r4, r5, r6, r7, lr}
 282              		.cfi_def_cfa_offset 20
 283              		.cfi_offset 4, -20
 284              		.cfi_offset 5, -16
 285              		.cfi_offset 6, -12
 286              		.cfi_offset 7, -8
ARM GAS  C:\Users\dell\AppData\Local\Temp\ccWEiAI7.s 			page 29


 287              		.cfi_offset 14, -4
 288              	.LVL36:
1287:Generated_Source\PSoC4/CapSense_Filter.c ****     uint32 freqChannel;
1288:Generated_Source\PSoC4/CapSense_Filter.c **** 
1289:Generated_Source\PSoC4/CapSense_Filter.c ****     for(freqChannel = CapSense_NUM_SCAN_FREQS; freqChannel-- > 0u;)
 289              		.loc 1 1289 0
 290 0002 0123     		movs	r3, #1
 291 0004 0EE0     		b	.L18
 292              	.LVL37:
 293              	.L20:
1290:Generated_Source\PSoC4/CapSense_Filter.c ****     {
1291:Generated_Source\PSoC4/CapSense_Filter.c ****         if ((CapSense_WD_TYPE_ENUM)wdType != CapSense_WD_PROXIMITY_E)
 294              		.loc 1 1291 0
 295 0006 FF23     		movs	r3, #255
 296 0008 1340     		ands	r3, r2
 297 000a 062B     		cmp	r3, #6
 298 000c 09D0     		beq	.L19
1292:Generated_Source\PSoC4/CapSense_Filter.c ****         {
1293:Generated_Source\PSoC4/CapSense_Filter.c ****             #if (CapSense_REGULAR_SENSOR_EN && CapSense_REGULAR_RC_AVERAGE_FILTER_EN)
1294:Generated_Source\PSoC4/CapSense_Filter.c ****                 ptrFilterHistObj.ptrRegular->regularChannel[freqChannel].avgHistory[0] = ptrSensorO
 299              		.loc 1 1294 0
 300 000e 6500     		lsls	r5, r4, #1
 301 0010 6F5A     		ldrh	r7, [r5, r1]
 302 0012 2E19     		adds	r6, r5, r4
 303 0014 7300     		lsls	r3, r6, #1
 304 0016 1F52     		strh	r7, [r3, r0]
1295:Generated_Source\PSoC4/CapSense_Filter.c ****                 #if (CapSense_REGULAR_AVERAGE_LEN == CapSense_AVERAGE_FILTER_LEN_4)
1296:Generated_Source\PSoC4/CapSense_Filter.c ****                     ptrFilterHistObj.ptrRegular->regularChannel[freqChannel].avgHistory[1u] = ptrSe
 305              		.loc 1 1296 0
 306 0018 6F5A     		ldrh	r7, [r5, r1]
 307 001a C318     		adds	r3, r0, r3
 308 001c 5F80     		strh	r7, [r3, #2]
1297:Generated_Source\PSoC4/CapSense_Filter.c ****                     ptrFilterHistObj.ptrRegular->regularChannel[freqChannel].avgHistory[2u] = ptrSe
 309              		.loc 1 1297 0
 310 001e 6D5A     		ldrh	r5, [r5, r1]
 311 0020 9D80     		strh	r5, [r3, #4]
 312              	.L19:
1286:Generated_Source\PSoC4/CapSense_Filter.c ****     uint32 freqChannel;
 313              		.loc 1 1286 0 discriminator 1
 314 0022 2300     		movs	r3, r4
 315              	.LVL38:
 316              	.L18:
1289:Generated_Source\PSoC4/CapSense_Filter.c ****     {
 317              		.loc 1 1289 0 discriminator 1
 318 0024 5C1E     		subs	r4, r3, #1
 319              	.LVL39:
 320 0026 002B     		cmp	r3, #0
 321 0028 EDD1     		bne	.L20
1298:Generated_Source\PSoC4/CapSense_Filter.c ****                 #endif /* CapSense_REGULAR_AVERAGE_LEN == CapSense_AVERAGE_FILTER_LEN_4 */
1299:Generated_Source\PSoC4/CapSense_Filter.c ****             #endif /* (CapSense_REGULAR_SENSOR_EN) */
1300:Generated_Source\PSoC4/CapSense_Filter.c ****         }
1301:Generated_Source\PSoC4/CapSense_Filter.c ****         else
1302:Generated_Source\PSoC4/CapSense_Filter.c ****         {
1303:Generated_Source\PSoC4/CapSense_Filter.c ****             #if (CapSense_PROXIMITY_SENSOR_EN && CapSense_PROX_RC_AVERAGE_FILTER_EN)
1304:Generated_Source\PSoC4/CapSense_Filter.c ****                 ptrFilterHistObj.ptrProx->proxChannel[freqChannel].avgHistory[0] = ptrSensorObj->ra
1305:Generated_Source\PSoC4/CapSense_Filter.c ****                     #if (CapSense_PROX_AVERAGE_LEN == CapSense_AVERAGE_FILTER_LEN_4)
1306:Generated_Source\PSoC4/CapSense_Filter.c ****                         ptrFilterHistObj.ptrProx->proxChannel[freqChannel].avgHistory[1u] = ptrSens
ARM GAS  C:\Users\dell\AppData\Local\Temp\ccWEiAI7.s 			page 30


1307:Generated_Source\PSoC4/CapSense_Filter.c ****                         ptrFilterHistObj.ptrProx->proxChannel[freqChannel].avgHistory[2u] = ptrSens
1308:Generated_Source\PSoC4/CapSense_Filter.c ****                     #endif /* CapSense_REGULAR_AVERAGE_LEN == CapSense_AVERAGE_FILTER_LEN_4 */
1309:Generated_Source\PSoC4/CapSense_Filter.c ****             #endif /* (CapSense_PROXIMITY_SENSOR_EN) */
1310:Generated_Source\PSoC4/CapSense_Filter.c ****         }
1311:Generated_Source\PSoC4/CapSense_Filter.c ****     }
1312:Generated_Source\PSoC4/CapSense_Filter.c **** }
 322              		.loc 1 1312 0
 323              		@ sp needed
 324              	.LVL40:
 325 002a F0BD     		pop	{r4, r5, r6, r7, pc}
 326              		.cfi_endproc
 327              	.LFE15:
 328              		.size	CapSense_InitializeAverageInternal, .-CapSense_InitializeAverageInternal
 329              		.section	.text.CapSense_InitializeWidgetFilter,"ax",%progbits
 330              		.align	2
 331              		.global	CapSense_InitializeWidgetFilter
 332              		.code	16
 333              		.thumb_func
 334              		.type	CapSense_InitializeWidgetFilter, %function
 335              	CapSense_InitializeWidgetFilter:
 336              	.LFB12:
 648:Generated_Source\PSoC4/CapSense_Filter.c ****     uint32 sensorId;
 337              		.loc 1 648 0
 338              		.cfi_startproc
 339              		@ args = 0, pretend = 0, frame = 0
 340              		@ frame_needed = 0, uses_anonymous_args = 0
 341              	.LVL41:
 342 0000 70B5     		push	{r4, r5, r6, lr}
 343              		.cfi_def_cfa_offset 16
 344              		.cfi_offset 4, -16
 345              		.cfi_offset 5, -12
 346              		.cfi_offset 6, -8
 347              		.cfi_offset 14, -4
 348 0002 0500     		movs	r5, r0
 349              	.LVL42:
 670:Generated_Source\PSoC4/CapSense_Filter.c **** 
 350              		.loc 1 670 0
 351 0004 C200     		lsls	r2, r0, #3
 352 0006 121A     		subs	r2, r2, r0
 353 0008 9300     		lsls	r3, r2, #2
 354 000a 0F4A     		ldr	r2, .L25
 355 000c D318     		adds	r3, r2, r3
 356 000e 1B8B     		ldrh	r3, [r3, #24]
 357              	.LVL43:
 672:Generated_Source\PSoC4/CapSense_Filter.c ****     {
 358              		.loc 1 672 0
 359 0010 16E0     		b	.L22
 360              	.LVL44:
 361              	.L24:
 675:Generated_Source\PSoC4/CapSense_Filter.c ****         ptrSensor = &ptrSensor[sensorId];
 362              		.loc 1 675 0
 363 0012 EA00     		lsls	r2, r5, #3
 364 0014 521B     		subs	r2, r2, r5
 365 0016 9300     		lsls	r3, r2, #2
 366 0018 0B4A     		ldr	r2, .L25
 367              	.LVL45:
 368 001a D318     		adds	r3, r2, r3
ARM GAS  C:\Users\dell\AppData\Local\Temp\ccWEiAI7.s 			page 31


 369              	.LVL46:
 676:Generated_Source\PSoC4/CapSense_Filter.c **** 
 370              		.loc 1 676 0
 371 001c A200     		lsls	r2, r4, #2
 372              	.LVL47:
 373 001e 1219     		adds	r2, r2, r4
 374 0020 5100     		lsls	r1, r2, #1
 375 0022 9A68     		ldr	r2, [r3, #8]
 376 0024 9446     		mov	ip, r2
 377 0026 6144     		add	r1, r1, ip
 378              	.LVL48:
 680:Generated_Source\PSoC4/CapSense_Filter.c ****         #endif
 379              		.loc 1 680 0
 380 0028 DE68     		ldr	r6, [r3, #12]
 381 002a 3000     		movs	r0, r6
 382              	.LVL49:
 689:Generated_Source\PSoC4/CapSense_Filter.c ****         {
 383              		.loc 1 689 0
 384 002c 9A7E     		ldrb	r2, [r3, #26]
 385 002e 062A     		cmp	r2, #6
 386 0030 03D0     		beq	.L23
 694:Generated_Source\PSoC4/CapSense_Filter.c ****             #endif
 387              		.loc 1 694 0
 388 0032 6300     		lsls	r3, r4, #1
 389 0034 1B19     		adds	r3, r3, r4
 390 0036 5800     		lsls	r0, r3, #1
 391 0038 3018     		adds	r0, r6, r0
 392              	.L23:
 715:Generated_Source\PSoC4/CapSense_Filter.c ****         #endif /* (CapSense_REGULAR_RC_AVERAGE_FILTER_EN || CapSense_PROX_RC_AVERAGE_FILTER_EN) */
 393              		.loc 1 715 0
 394 003a FFF7FEFF 		bl	CapSense_InitializeAverageInternal
 395              	.LVL50:
 672:Generated_Source\PSoC4/CapSense_Filter.c ****     {
 396              		.loc 1 672 0
 397 003e 2300     		movs	r3, r4
 398              	.LVL51:
 399              	.L22:
 672:Generated_Source\PSoC4/CapSense_Filter.c ****     {
 400              		.loc 1 672 0 is_stmt 0 discriminator 1
 401 0040 5C1E     		subs	r4, r3, #1
 402              	.LVL52:
 403 0042 002B     		cmp	r3, #0
 404 0044 E5D1     		bne	.L24
 730:Generated_Source\PSoC4/CapSense_Filter.c **** #endif /* ((CapSense_ENABLE == CapSense_RC_FILTER_EN) || \
 405              		.loc 1 730 0 is_stmt 1
 406              		@ sp needed
 407              	.LVL53:
 408              	.LVL54:
 409 0046 70BD     		pop	{r4, r5, r6, pc}
 410              	.L26:
 411              		.align	2
 412              	.L25:
 413 0048 00000000 		.word	CapSense_dsFlash
 414              		.cfi_endproc
 415              	.LFE12:
 416              		.size	CapSense_InitializeWidgetFilter, .-CapSense_InitializeWidgetFilter
 417              		.section	.text.CapSense_InitializeAllFilters,"ax",%progbits
ARM GAS  C:\Users\dell\AppData\Local\Temp\ccWEiAI7.s 			page 32


 418              		.align	2
 419              		.global	CapSense_InitializeAllFilters
 420              		.code	16
 421              		.thumb_func
 422              		.type	CapSense_InitializeAllFilters, %function
 423              	CapSense_InitializeAllFilters:
 424              	.LFB11:
 618:Generated_Source\PSoC4/CapSense_Filter.c ****     uint32 widgetId;
 425              		.loc 1 618 0
 426              		.cfi_startproc
 427              		@ args = 0, pretend = 0, frame = 0
 428              		@ frame_needed = 0, uses_anonymous_args = 0
 429 0000 10B5     		push	{r4, lr}
 430              		.cfi_def_cfa_offset 8
 431              		.cfi_offset 4, -8
 432              		.cfi_offset 14, -4
 433              	.LVL55:
 621:Generated_Source\PSoC4/CapSense_Filter.c ****     {
 434              		.loc 1 621 0
 435 0002 0423     		movs	r3, #4
 436 0004 03E0     		b	.L28
 437              	.LVL56:
 438              	.L29:
 623:Generated_Source\PSoC4/CapSense_Filter.c ****     }
 439              		.loc 1 623 0
 440 0006 2000     		movs	r0, r4
 441 0008 FFF7FEFF 		bl	CapSense_InitializeWidgetFilter
 442              	.LVL57:
 621:Generated_Source\PSoC4/CapSense_Filter.c ****     {
 443              		.loc 1 621 0
 444 000c 2300     		movs	r3, r4
 445              	.LVL58:
 446              	.L28:
 621:Generated_Source\PSoC4/CapSense_Filter.c ****     {
 447              		.loc 1 621 0 is_stmt 0 discriminator 1
 448 000e 5C1E     		subs	r4, r3, #1
 449              	.LVL59:
 450 0010 002B     		cmp	r3, #0
 451 0012 F8D1     		bne	.L29
 625:Generated_Source\PSoC4/CapSense_Filter.c **** 
 452              		.loc 1 625 0 is_stmt 1
 453              		@ sp needed
 454              	.LVL60:
 455 0014 10BD     		pop	{r4, pc}
 456              		.cfi_endproc
 457              	.LFE11:
 458              		.size	CapSense_InitializeAllFilters, .-CapSense_InitializeAllFilters
 459 0016 C046     		.section	.text.CapSense_FtInitialize,"ax",%progbits
 460              		.align	2
 461              		.global	CapSense_FtInitialize
 462              		.code	16
 463              		.thumb_func
 464              		.type	CapSense_FtInitialize, %function
 465              	CapSense_FtInitialize:
 466              	.LFB1:
  63:Generated_Source\PSoC4/CapSense_Filter.c ****     #if ((CapSense_ENABLE == CapSense_RC_FILTER_EN) || \
 467              		.loc 1 63 0
ARM GAS  C:\Users\dell\AppData\Local\Temp\ccWEiAI7.s 			page 33


 468              		.cfi_startproc
 469              		@ args = 0, pretend = 0, frame = 0
 470              		@ frame_needed = 0, uses_anonymous_args = 0
 471 0000 10B5     		push	{r4, lr}
 472              		.cfi_def_cfa_offset 8
 473              		.cfi_offset 4, -8
 474              		.cfi_offset 14, -4
  66:Generated_Source\PSoC4/CapSense_Filter.c ****     #endif /* ((CapSense_ENABLE == CapSense_RC_FILTER_EN) || \
 475              		.loc 1 66 0
 476 0002 FFF7FEFF 		bl	CapSense_InitializeAllFilters
 477              	.LVL61:
  69:Generated_Source\PSoC4/CapSense_Filter.c **** 
 478              		.loc 1 69 0
 479              		@ sp needed
 480 0006 10BD     		pop	{r4, pc}
 481              		.cfi_endproc
 482              	.LFE1:
 483              		.size	CapSense_FtInitialize, .-CapSense_FtInitialize
 484              		.section	.text.CapSense_InitializeAverage,"ax",%progbits
 485              		.align	2
 486              		.global	CapSense_InitializeAverage
 487              		.code	16
 488              		.thumb_func
 489              		.type	CapSense_InitializeAverage, %function
 490              	CapSense_InitializeAverage:
 491              	.LFB13:
1186:Generated_Source\PSoC4/CapSense_Filter.c ****     CapSense_FLASH_WD_STRUCT const *ptrWidget = &CapSense_dsFlash.wdgtArray[widgetId];
 492              		.loc 1 1186 0
 493              		.cfi_startproc
 494              		@ args = 0, pretend = 0, frame = 0
 495              		@ frame_needed = 0, uses_anonymous_args = 0
 496              	.LVL62:
 497 0000 B0B5     		push	{r4, r5, r7, lr}
 498              		.cfi_def_cfa_offset 16
 499              		.cfi_offset 4, -16
 500              		.cfi_offset 5, -12
 501              		.cfi_offset 7, -8
 502              		.cfi_offset 14, -4
 503 0002 0B00     		movs	r3, r1
 504              	.LVL63:
1192:Generated_Source\PSoC4/CapSense_Filter.c ****     ptrSensor = &ptrSensor[sensorId];
 505              		.loc 1 1192 0
 506 0004 0D4F     		ldr	r7, .L33
 507 0006 C200     		lsls	r2, r0, #3
 508 0008 111A     		subs	r1, r2, r0
 509              	.LVL64:
 510 000a 8C00     		lsls	r4, r1, #2
 511 000c 3C19     		adds	r4, r7, r4
 512              	.LVL65:
1193:Generated_Source\PSoC4/CapSense_Filter.c **** 
 513              		.loc 1 1193 0
 514 000e 9D00     		lsls	r5, r3, #2
 515 0010 ED18     		adds	r5, r5, r3
 516 0012 6900     		lsls	r1, r5, #1
 517 0014 A568     		ldr	r5, [r4, #8]
 518 0016 AC46     		mov	ip, r5
 519 0018 6144     		add	r1, r1, ip
ARM GAS  C:\Users\dell\AppData\Local\Temp\ccWEiAI7.s 			page 34


 520              	.LVL66:
1196:Generated_Source\PSoC4/CapSense_Filter.c **** 
 521              		.loc 1 1196 0
 522 001a E568     		ldr	r5, [r4, #12]
 523 001c 2C00     		movs	r4, r5
 524              	.LVL67:
1198:Generated_Source\PSoC4/CapSense_Filter.c ****     {
 525              		.loc 1 1198 0
 526 001e 121A     		subs	r2, r2, r0
 527 0020 9000     		lsls	r0, r2, #2
 528              	.LVL68:
 529 0022 3818     		adds	r0, r7, r0
 530 0024 827E     		ldrb	r2, [r0, #26]
 531 0026 062A     		cmp	r2, #6
 532 0028 03D0     		beq	.L32
1201:Generated_Source\PSoC4/CapSense_Filter.c ****         #endif /* (CapSense_REGULAR_SENSOR_EN) */
 533              		.loc 1 1201 0
 534 002a 5800     		lsls	r0, r3, #1
 535 002c C318     		adds	r3, r0, r3
 536              	.LVL69:
 537 002e 5C00     		lsls	r4, r3, #1
 538 0030 2C19     		adds	r4, r5, r4
 539              	.L32:
 540              	.LVL70:
1211:Generated_Source\PSoC4/CapSense_Filter.c **** }
 541              		.loc 1 1211 0
 542 0032 2000     		movs	r0, r4
 543 0034 FFF7FEFF 		bl	CapSense_InitializeAverageInternal
 544              	.LVL71:
1212:Generated_Source\PSoC4/CapSense_Filter.c **** 
 545              		.loc 1 1212 0
 546              		@ sp needed
 547              	.LVL72:
 548              	.LVL73:
 549 0038 B0BD     		pop	{r4, r5, r7, pc}
 550              	.L34:
 551 003a C046     		.align	2
 552              	.L33:
 553 003c 00000000 		.word	CapSense_dsFlash
 554              		.cfi_endproc
 555              	.LFE13:
 556              		.size	CapSense_InitializeAverage, .-CapSense_InitializeAverage
 557              		.section	.text.CapSense_RunAverageInternal,"ax",%progbits
 558              		.align	2
 559              		.global	CapSense_RunAverageInternal
 560              		.code	16
 561              		.thumb_func
 562              		.type	CapSense_RunAverageInternal, %function
 563              	CapSense_RunAverageInternal:
 564              	.LFB16:
1313:Generated_Source\PSoC4/CapSense_Filter.c **** 
1314:Generated_Source\PSoC4/CapSense_Filter.c **** 
1315:Generated_Source\PSoC4/CapSense_Filter.c **** /*******************************************************************************
1316:Generated_Source\PSoC4/CapSense_Filter.c **** * Function Name: CapSense_RunAverageInternal
1317:Generated_Source\PSoC4/CapSense_Filter.c **** ****************************************************************************//**
1318:Generated_Source\PSoC4/CapSense_Filter.c **** *
1319:Generated_Source\PSoC4/CapSense_Filter.c **** * \brief
ARM GAS  C:\Users\dell\AppData\Local\Temp\ccWEiAI7.s 			page 35


1320:Generated_Source\PSoC4/CapSense_Filter.c **** *  Runs the average filter.
1321:Generated_Source\PSoC4/CapSense_Filter.c **** *
1322:Generated_Source\PSoC4/CapSense_Filter.c **** * \details
1323:Generated_Source\PSoC4/CapSense_Filter.c **** *  Runs the average filter.
1324:Generated_Source\PSoC4/CapSense_Filter.c **** *
1325:Generated_Source\PSoC4/CapSense_Filter.c **** * \param ptrFilterHistObj
1326:Generated_Source\PSoC4/CapSense_Filter.c **** *  The pointer to the filter RAM object of the sensor.
1327:Generated_Source\PSoC4/CapSense_Filter.c **** *
1328:Generated_Source\PSoC4/CapSense_Filter.c **** * \param ptrSensorObj
1329:Generated_Source\PSoC4/CapSense_Filter.c **** *  The pointer to the sensor RAM object of the sensor.
1330:Generated_Source\PSoC4/CapSense_Filter.c **** *
1331:Generated_Source\PSoC4/CapSense_Filter.c **** * \param wdType
1332:Generated_Source\PSoC4/CapSense_Filter.c **** *  Specifies the type of a widget.
1333:Generated_Source\PSoC4/CapSense_Filter.c **** *
1334:Generated_Source\PSoC4/CapSense_Filter.c **** *******************************************************************************/
1335:Generated_Source\PSoC4/CapSense_Filter.c **** void CapSense_RunAverageInternal(CapSense_PTR_FILTER_VARIANT ptrFilterHistObj,\
1336:Generated_Source\PSoC4/CapSense_Filter.c ****                                            CapSense_RAM_SNS_STRUCT *ptrSensorObj, uint32 wdType)
1337:Generated_Source\PSoC4/CapSense_Filter.c **** {
 565              		.loc 1 1337 0
 566              		.cfi_startproc
 567              		@ args = 0, pretend = 0, frame = 0
 568              		@ frame_needed = 0, uses_anonymous_args = 0
 569              	.LVL74:
 570 0000 F0B5     		push	{r4, r5, r6, r7, lr}
 571              		.cfi_def_cfa_offset 20
 572              		.cfi_offset 4, -20
 573              		.cfi_offset 5, -16
 574              		.cfi_offset 6, -12
 575              		.cfi_offset 7, -8
 576              		.cfi_offset 14, -4
 577              	.LVL75:
1338:Generated_Source\PSoC4/CapSense_Filter.c ****     uint32 freqChannel;
1339:Generated_Source\PSoC4/CapSense_Filter.c ****     uint32 temp;
1340:Generated_Source\PSoC4/CapSense_Filter.c **** 
1341:Generated_Source\PSoC4/CapSense_Filter.c ****     for(freqChannel = CapSense_NUM_SCAN_FREQS; freqChannel-- > 0u;)
 578              		.loc 1 1341 0
 579 0002 0124     		movs	r4, #1
 580 0004 20E0     		b	.L36
 581              	.LVL76:
 582              	.L38:
1342:Generated_Source\PSoC4/CapSense_Filter.c ****     {
1343:Generated_Source\PSoC4/CapSense_Filter.c ****         if ((CapSense_WD_TYPE_ENUM)wdType != CapSense_WD_PROXIMITY_E)
 583              		.loc 1 1343 0
 584 0006 FF24     		movs	r4, #255
 585 0008 1440     		ands	r4, r2
 586 000a 062C     		cmp	r4, #6
 587 000c 1BD0     		beq	.L37
1344:Generated_Source\PSoC4/CapSense_Filter.c ****         {
1345:Generated_Source\PSoC4/CapSense_Filter.c ****             #if (CapSense_REGULAR_SENSOR_EN && CapSense_REGULAR_RC_AVERAGE_FILTER_EN)
1346:Generated_Source\PSoC4/CapSense_Filter.c ****                 #if (CapSense_REGULAR_AVERAGE_LEN == CapSense_AVERAGE_FILTER_LEN_2)
1347:Generated_Source\PSoC4/CapSense_Filter.c ****                     temp = ((uint32)ptrSensorObj->raw[freqChannel] +
1348:Generated_Source\PSoC4/CapSense_Filter.c ****                             (uint32)ptrFilterHistObj.ptrRegular->regularChannel[freqChannel].avgHis
1349:Generated_Source\PSoC4/CapSense_Filter.c ****                     ptrFilterHistObj.ptrRegular->regularChannel[freqChannel].avgHistory[0] = ptrSen
1350:Generated_Source\PSoC4/CapSense_Filter.c ****                     ptrSensorObj->raw[freqChannel] = LO16(temp);
1351:Generated_Source\PSoC4/CapSense_Filter.c ****                 #else
1352:Generated_Source\PSoC4/CapSense_Filter.c ****                     temp = ((uint32)ptrSensorObj->raw[freqChannel] +
 588              		.loc 1 1352 0
ARM GAS  C:\Users\dell\AppData\Local\Temp\ccWEiAI7.s 			page 36


 589 000e 5C00     		lsls	r4, r3, #1
 590 0010 665A     		ldrh	r6, [r4, r1]
1353:Generated_Source\PSoC4/CapSense_Filter.c ****                             (uint32)ptrFilterHistObj.ptrRegular->regularChannel[freqChannel].avgHis
 591              		.loc 1 1353 0
 592 0012 E718     		adds	r7, r4, r3
 593 0014 7D00     		lsls	r5, r7, #1
 594 0016 2D5A     		ldrh	r5, [r5, r0]
1352:Generated_Source\PSoC4/CapSense_Filter.c ****                             (uint32)ptrFilterHistObj.ptrRegular->regularChannel[freqChannel].avgHis
 595              		.loc 1 1352 0
 596 0018 7619     		adds	r6, r6, r5
1354:Generated_Source\PSoC4/CapSense_Filter.c ****                             (uint32)ptrFilterHistObj.ptrRegular->regularChannel[freqChannel].avgHis
 597              		.loc 1 1354 0
 598 001a E718     		adds	r7, r4, r3
 599 001c 7D00     		lsls	r5, r7, #1
 600 001e 4519     		adds	r5, r0, r5
 601 0020 6F88     		ldrh	r7, [r5, #2]
 602 0022 BC46     		mov	ip, r7
1353:Generated_Source\PSoC4/CapSense_Filter.c ****                             (uint32)ptrFilterHistObj.ptrRegular->regularChannel[freqChannel].avgHis
 603              		.loc 1 1353 0
 604 0024 6644     		add	r6, r6, ip
1355:Generated_Source\PSoC4/CapSense_Filter.c ****                             (uint32)ptrFilterHistObj.ptrRegular->regularChannel[freqChannel].avgHis
 605              		.loc 1 1355 0
 606 0026 AF88     		ldrh	r7, [r5, #4]
1354:Generated_Source\PSoC4/CapSense_Filter.c ****                             (uint32)ptrFilterHistObj.ptrRegular->regularChannel[freqChannel].avgHis
 607              		.loc 1 1354 0
 608 0028 F619     		adds	r6, r6, r7
1352:Generated_Source\PSoC4/CapSense_Filter.c ****                             (uint32)ptrFilterHistObj.ptrRegular->regularChannel[freqChannel].avgHis
 609              		.loc 1 1352 0
 610 002a B608     		lsrs	r6, r6, #2
 611              	.LVL77:
1356:Generated_Source\PSoC4/CapSense_Filter.c **** 
1357:Generated_Source\PSoC4/CapSense_Filter.c ****                     ptrFilterHistObj.ptrRegular->regularChannel[freqChannel].avgHistory[2u] =
 612              		.loc 1 1357 0
 613 002c 6746     		mov	r7, ip
 614 002e AF80     		strh	r7, [r5, #4]
1358:Generated_Source\PSoC4/CapSense_Filter.c ****                     ptrFilterHistObj.ptrRegular->regularChannel[freqChannel].avgHistory[1u];
1359:Generated_Source\PSoC4/CapSense_Filter.c ****                     ptrFilterHistObj.ptrRegular->regularChannel[freqChannel].avgHistory[1u] =
1360:Generated_Source\PSoC4/CapSense_Filter.c ****                     ptrFilterHistObj.ptrRegular->regularChannel[freqChannel].avgHistory[0];
 615              		.loc 1 1360 0
 616 0030 E718     		adds	r7, r4, r3
 617 0032 7F00     		lsls	r7, r7, #1
 618 0034 3F5A     		ldrh	r7, [r7, r0]
1359:Generated_Source\PSoC4/CapSense_Filter.c ****                     ptrFilterHistObj.ptrRegular->regularChannel[freqChannel].avgHistory[0];
 619              		.loc 1 1359 0
 620 0036 6F80     		strh	r7, [r5, #2]
1361:Generated_Source\PSoC4/CapSense_Filter.c ****                     ptrFilterHistObj.ptrRegular->regularChannel[freqChannel].avgHistory[0] = ptrSen
 621              		.loc 1 1361 0
 622 0038 655A     		ldrh	r5, [r4, r1]
 623 003a AC46     		mov	ip, r5
 624 003c E718     		adds	r7, r4, r3
 625 003e 7D00     		lsls	r5, r7, #1
 626 0040 6746     		mov	r7, ip
 627 0042 2F52     		strh	r7, [r5, r0]
1362:Generated_Source\PSoC4/CapSense_Filter.c ****                     ptrSensorObj->raw[freqChannel] = LO16(temp);
 628              		.loc 1 1362 0
 629 0044 0E53     		strh	r6, [r1, r4]
 630              	.LVL78:
ARM GAS  C:\Users\dell\AppData\Local\Temp\ccWEiAI7.s 			page 37


 631              	.L37:
1337:Generated_Source\PSoC4/CapSense_Filter.c ****     uint32 freqChannel;
 632              		.loc 1 1337 0 discriminator 1
 633 0046 1C00     		movs	r4, r3
 634              	.LVL79:
 635              	.L36:
1341:Generated_Source\PSoC4/CapSense_Filter.c ****     {
 636              		.loc 1 1341 0 discriminator 1
 637 0048 631E     		subs	r3, r4, #1
 638              	.LVL80:
 639 004a 002C     		cmp	r4, #0
 640 004c DBD1     		bne	.L38
1363:Generated_Source\PSoC4/CapSense_Filter.c ****                 #endif /* CapSense_REGULAR_AVERAGE_LEN == CapSense_AVERAGE_FILTER_LEN_4 */
1364:Generated_Source\PSoC4/CapSense_Filter.c ****             #endif /* (CapSense_REGULAR_SENSOR_EN) */
1365:Generated_Source\PSoC4/CapSense_Filter.c ****         }
1366:Generated_Source\PSoC4/CapSense_Filter.c ****         else
1367:Generated_Source\PSoC4/CapSense_Filter.c ****         {
1368:Generated_Source\PSoC4/CapSense_Filter.c ****             #if (CapSense_PROXIMITY_SENSOR_EN && CapSense_PROX_RC_AVERAGE_FILTER_EN)
1369:Generated_Source\PSoC4/CapSense_Filter.c ****                 #if (CapSense_PROX_AVERAGE_LEN == CapSense_AVERAGE_FILTER_LEN_2)
1370:Generated_Source\PSoC4/CapSense_Filter.c ****                     temp = ((uint32)ptrSensorObj->raw[freqChannel] +
1371:Generated_Source\PSoC4/CapSense_Filter.c ****                             (uint32)ptrFilterHistObj.ptrProx->proxChannel[freqChannel].avgHistory[0
1372:Generated_Source\PSoC4/CapSense_Filter.c ****                     ptrFilterHistObj.ptrProx->proxChannel[freqChannel].avgHistory[0] = ptrSensorObj
1373:Generated_Source\PSoC4/CapSense_Filter.c ****                     ptrSensorObj->raw[freqChannel] = LO16(temp);
1374:Generated_Source\PSoC4/CapSense_Filter.c ****                 #else
1375:Generated_Source\PSoC4/CapSense_Filter.c ****                     temp = ((uint32)ptrSensorObj->raw[freqChannel] +
1376:Generated_Source\PSoC4/CapSense_Filter.c ****                             (uint32)ptrFilterHistObj.ptrProx->proxChannel[freqChannel].avgHistory[0
1377:Generated_Source\PSoC4/CapSense_Filter.c ****                             (uint32)ptrFilterHistObj.ptrProx->proxChannel[freqChannel].avgHistory[1
1378:Generated_Source\PSoC4/CapSense_Filter.c ****                             (uint32)ptrFilterHistObj.ptrProx->proxChannel[freqChannel].avgHistory[2
1379:Generated_Source\PSoC4/CapSense_Filter.c **** 
1380:Generated_Source\PSoC4/CapSense_Filter.c ****                     ptrFilterHistObj.ptrProx->proxChannel[freqChannel].avgHistory[2u] =
1381:Generated_Source\PSoC4/CapSense_Filter.c ****                     ptrFilterHistObj.ptrProx->proxChannel[freqChannel].avgHistory[1u];
1382:Generated_Source\PSoC4/CapSense_Filter.c ****                     ptrFilterHistObj.ptrProx->proxChannel[freqChannel].avgHistory[1u] =
1383:Generated_Source\PSoC4/CapSense_Filter.c ****                     ptrFilterHistObj.ptrProx->proxChannel[freqChannel].avgHistory[0];
1384:Generated_Source\PSoC4/CapSense_Filter.c ****                     ptrFilterHistObj.ptrProx->proxChannel[freqChannel].avgHistory[0] = ptrSensorObj
1385:Generated_Source\PSoC4/CapSense_Filter.c ****                     ptrSensorObj->raw[freqChannel] = LO16(temp);
1386:Generated_Source\PSoC4/CapSense_Filter.c ****                 #endif /* CapSense_PROX_AVERAGE_LEN == CapSense_AVERAGE_FILTER_LEN_4 */
1387:Generated_Source\PSoC4/CapSense_Filter.c ****             #endif /* (CapSense_PROXIMITY_SENSOR_EN) */
1388:Generated_Source\PSoC4/CapSense_Filter.c ****         }
1389:Generated_Source\PSoC4/CapSense_Filter.c ****     }
1390:Generated_Source\PSoC4/CapSense_Filter.c **** }
 641              		.loc 1 1390 0
 642              		@ sp needed
 643 004e F0BD     		pop	{r4, r5, r6, r7, pc}
 644              		.cfi_endproc
 645              	.LFE16:
 646              		.size	CapSense_RunAverageInternal, .-CapSense_RunAverageInternal
 647              		.section	.text.CapSense_RunAverage,"ax",%progbits
 648              		.align	2
 649              		.global	CapSense_RunAverage
 650              		.code	16
 651              		.thumb_func
 652              		.type	CapSense_RunAverage, %function
 653              	CapSense_RunAverage:
 654              	.LFB14:
1235:Generated_Source\PSoC4/CapSense_Filter.c ****     CapSense_FLASH_WD_STRUCT const *ptrWidget = &CapSense_dsFlash.wdgtArray[widgetId];
 655              		.loc 1 1235 0
 656              		.cfi_startproc
ARM GAS  C:\Users\dell\AppData\Local\Temp\ccWEiAI7.s 			page 38


 657              		@ args = 0, pretend = 0, frame = 0
 658              		@ frame_needed = 0, uses_anonymous_args = 0
 659              	.LVL81:
 660 0000 B0B5     		push	{r4, r5, r7, lr}
 661              		.cfi_def_cfa_offset 16
 662              		.cfi_offset 4, -16
 663              		.cfi_offset 5, -12
 664              		.cfi_offset 7, -8
 665              		.cfi_offset 14, -4
 666 0002 0B00     		movs	r3, r1
 667              	.LVL82:
1241:Generated_Source\PSoC4/CapSense_Filter.c ****     ptrSensor = &ptrSensor[sensorId];
 668              		.loc 1 1241 0
 669 0004 0D4F     		ldr	r7, .L41
 670 0006 C200     		lsls	r2, r0, #3
 671 0008 111A     		subs	r1, r2, r0
 672              	.LVL83:
 673 000a 8C00     		lsls	r4, r1, #2
 674 000c 3C19     		adds	r4, r7, r4
 675              	.LVL84:
1242:Generated_Source\PSoC4/CapSense_Filter.c **** 
 676              		.loc 1 1242 0
 677 000e 9D00     		lsls	r5, r3, #2
 678 0010 ED18     		adds	r5, r5, r3
 679 0012 6900     		lsls	r1, r5, #1
 680 0014 A568     		ldr	r5, [r4, #8]
 681 0016 AC46     		mov	ip, r5
 682 0018 6144     		add	r1, r1, ip
 683              	.LVL85:
1245:Generated_Source\PSoC4/CapSense_Filter.c **** 
 684              		.loc 1 1245 0
 685 001a E568     		ldr	r5, [r4, #12]
 686 001c 2C00     		movs	r4, r5
 687              	.LVL86:
1247:Generated_Source\PSoC4/CapSense_Filter.c ****     {
 688              		.loc 1 1247 0
 689 001e 121A     		subs	r2, r2, r0
 690 0020 9000     		lsls	r0, r2, #2
 691              	.LVL87:
 692 0022 3818     		adds	r0, r7, r0
 693 0024 827E     		ldrb	r2, [r0, #26]
 694 0026 062A     		cmp	r2, #6
 695 0028 03D0     		beq	.L40
1250:Generated_Source\PSoC4/CapSense_Filter.c ****         #endif /* (CapSense_REGULAR_SENSOR_EN) */
 696              		.loc 1 1250 0
 697 002a 5800     		lsls	r0, r3, #1
 698 002c C318     		adds	r3, r0, r3
 699              	.LVL88:
 700 002e 5C00     		lsls	r4, r3, #1
 701 0030 2C19     		adds	r4, r5, r4
 702              	.L40:
 703              	.LVL89:
1260:Generated_Source\PSoC4/CapSense_Filter.c **** }
 704              		.loc 1 1260 0
 705 0032 2000     		movs	r0, r4
 706 0034 FFF7FEFF 		bl	CapSense_RunAverageInternal
 707              	.LVL90:
ARM GAS  C:\Users\dell\AppData\Local\Temp\ccWEiAI7.s 			page 39


1261:Generated_Source\PSoC4/CapSense_Filter.c **** 
 708              		.loc 1 1261 0
 709              		@ sp needed
 710              	.LVL91:
 711              	.LVL92:
 712 0038 B0BD     		pop	{r4, r5, r7, pc}
 713              	.L42:
 714 003a C046     		.align	2
 715              	.L41:
 716 003c 00000000 		.word	CapSense_dsFlash
 717              		.cfi_endproc
 718              	.LFE14:
 719              		.size	CapSense_RunAverage, .-CapSense_RunAverage
 720              		.section	.text.CapSense_FtRunEnabledFiltersInternal,"ax",%progbits
 721              		.align	2
 722              		.global	CapSense_FtRunEnabledFiltersInternal
 723              		.code	16
 724              		.thumb_func
 725              		.type	CapSense_FtRunEnabledFiltersInternal, %function
 726              	CapSense_FtRunEnabledFiltersInternal:
 727              	.LFB18:
1391:Generated_Source\PSoC4/CapSense_Filter.c **** #endif /* (CapSense_REGULAR_RC_AVERAGE_FILTER_EN || CapSense_PROX_RC_AVERAGE_FILTER_EN) */
1392:Generated_Source\PSoC4/CapSense_Filter.c **** 
1393:Generated_Source\PSoC4/CapSense_Filter.c **** #if (CapSense_ENABLE == CapSense_ALP_FILTER_EN)
1394:Generated_Source\PSoC4/CapSense_Filter.c **** /*******************************************************************************
1395:Generated_Source\PSoC4/CapSense_Filter.c **** * Function Name: CapSense_InitializeALP
1396:Generated_Source\PSoC4/CapSense_Filter.c **** ****************************************************************************//**
1397:Generated_Source\PSoC4/CapSense_Filter.c **** *
1398:Generated_Source\PSoC4/CapSense_Filter.c **** * \brief
1399:Generated_Source\PSoC4/CapSense_Filter.c **** *  Initializes the ALP filter history.
1400:Generated_Source\PSoC4/CapSense_Filter.c **** *
1401:Generated_Source\PSoC4/CapSense_Filter.c **** * \details
1402:Generated_Source\PSoC4/CapSense_Filter.c **** *  Initializes the ALP filter history.
1403:Generated_Source\PSoC4/CapSense_Filter.c **** *
1404:Generated_Source\PSoC4/CapSense_Filter.c **** * \param widgetId
1405:Generated_Source\PSoC4/CapSense_Filter.c **** *  Specifies the ID number of the widget.
1406:Generated_Source\PSoC4/CapSense_Filter.c **** *
1407:Generated_Source\PSoC4/CapSense_Filter.c **** * \param sensorId
1408:Generated_Source\PSoC4/CapSense_Filter.c **** *  Specifies the ID number of the sensor in the widget.
1409:Generated_Source\PSoC4/CapSense_Filter.c **** *
1410:Generated_Source\PSoC4/CapSense_Filter.c **** *******************************************************************************/
1411:Generated_Source\PSoC4/CapSense_Filter.c **** void CapSense_InitializeALP(uint32 widgetId, uint32 sensorId)
1412:Generated_Source\PSoC4/CapSense_Filter.c **** {
1413:Generated_Source\PSoC4/CapSense_Filter.c ****     CapSense_FLASH_WD_STRUCT const *ptrWidget = &CapSense_dsFlash.wdgtArray[widgetId];
1414:Generated_Source\PSoC4/CapSense_Filter.c ****     CapSense_RAM_SNS_STRUCT *ptrSensor = NULL;
1415:Generated_Source\PSoC4/CapSense_Filter.c ****     CapSense_PTR_FILTER_VARIANT ptrFilterHistObj;
1416:Generated_Source\PSoC4/CapSense_Filter.c **** 
1417:Generated_Source\PSoC4/CapSense_Filter.c ****     /* Find pointer to specified sensor object */
1418:Generated_Source\PSoC4/CapSense_Filter.c ****     ptrSensor = ptrWidget->ptr2SnsRam;
1419:Generated_Source\PSoC4/CapSense_Filter.c ****     ptrSensor = &ptrSensor[sensorId];
1420:Generated_Source\PSoC4/CapSense_Filter.c **** 
1421:Generated_Source\PSoC4/CapSense_Filter.c ****     /* Find pointer to specified filter sensor object */
1422:Generated_Source\PSoC4/CapSense_Filter.c ****     ptrFilterHistObj.ptr = ptrWidget->ptr2FltrHistory;
1423:Generated_Source\PSoC4/CapSense_Filter.c ****     ptrFilterHistObj.ptrAlp = &ptrFilterHistObj.ptrAlp[sensorId];
1424:Generated_Source\PSoC4/CapSense_Filter.c ****     CapSense_InitializeALPInternal(ptrFilterHistObj, ptrSensor, (uint32)ptrWidget->wdgtType);
1425:Generated_Source\PSoC4/CapSense_Filter.c **** }
1426:Generated_Source\PSoC4/CapSense_Filter.c **** 
ARM GAS  C:\Users\dell\AppData\Local\Temp\ccWEiAI7.s 			page 40


1427:Generated_Source\PSoC4/CapSense_Filter.c **** 
1428:Generated_Source\PSoC4/CapSense_Filter.c **** /*******************************************************************************
1429:Generated_Source\PSoC4/CapSense_Filter.c **** * Function Name: CapSense_RunALP
1430:Generated_Source\PSoC4/CapSense_Filter.c **** ****************************************************************************//**
1431:Generated_Source\PSoC4/CapSense_Filter.c **** *
1432:Generated_Source\PSoC4/CapSense_Filter.c **** * \brief
1433:Generated_Source\PSoC4/CapSense_Filter.c **** *  Executes the ALP filter algorithm on a sensor indicated by an input
1434:Generated_Source\PSoC4/CapSense_Filter.c **** *  parameter.
1435:Generated_Source\PSoC4/CapSense_Filter.c **** *
1436:Generated_Source\PSoC4/CapSense_Filter.c **** * \details
1437:Generated_Source\PSoC4/CapSense_Filter.c **** *  Executes the ALP filter algorithm on a sensor indicated by an input
1438:Generated_Source\PSoC4/CapSense_Filter.c **** *  parameter.
1439:Generated_Source\PSoC4/CapSense_Filter.c **** *
1440:Generated_Source\PSoC4/CapSense_Filter.c **** * \param widgetId
1441:Generated_Source\PSoC4/CapSense_Filter.c **** *  Specifies the ID number of the widget.
1442:Generated_Source\PSoC4/CapSense_Filter.c **** *
1443:Generated_Source\PSoC4/CapSense_Filter.c **** * \param sensorId
1444:Generated_Source\PSoC4/CapSense_Filter.c **** *  Specifies the ID number of the sensor in the widget.
1445:Generated_Source\PSoC4/CapSense_Filter.c **** *
1446:Generated_Source\PSoC4/CapSense_Filter.c **** *******************************************************************************/
1447:Generated_Source\PSoC4/CapSense_Filter.c **** void CapSense_RunALP(uint32 widgetId, uint32 sensorId)
1448:Generated_Source\PSoC4/CapSense_Filter.c **** {
1449:Generated_Source\PSoC4/CapSense_Filter.c ****     CapSense_FLASH_WD_STRUCT const *ptrWidget = &CapSense_dsFlash.wdgtArray[widgetId];
1450:Generated_Source\PSoC4/CapSense_Filter.c ****     CapSense_RAM_SNS_STRUCT *ptrSensor = NULL;
1451:Generated_Source\PSoC4/CapSense_Filter.c ****     CapSense_PTR_FILTER_VARIANT ptrFilterHistObj;
1452:Generated_Source\PSoC4/CapSense_Filter.c ****     ALP_FLTR_CONFIG_STRUCT alpFilterConfig;
1453:Generated_Source\PSoC4/CapSense_Filter.c ****     ALP_FLTR_CONFIG_STRUCT *ptrAlpFilterConfig = &alpFilterConfig;
1454:Generated_Source\PSoC4/CapSense_Filter.c ****     CapSense_RAM_WD_BASE_STRUCT *ptrRamWidget = ptrWidget->ptr2WdgtRam;
1455:Generated_Source\PSoC4/CapSense_Filter.c **** 
1456:Generated_Source\PSoC4/CapSense_Filter.c ****     /* Find pointer to specified sensor object */
1457:Generated_Source\PSoC4/CapSense_Filter.c ****     ptrSensor = ptrWidget->ptr2SnsRam;
1458:Generated_Source\PSoC4/CapSense_Filter.c ****     ptrSensor = &ptrSensor[sensorId];
1459:Generated_Source\PSoC4/CapSense_Filter.c **** 
1460:Generated_Source\PSoC4/CapSense_Filter.c ****     ptrAlpFilterConfig->configParam0 = ptrRamWidget->alpOnTh;
1461:Generated_Source\PSoC4/CapSense_Filter.c ****     ptrAlpFilterConfig->configParam1 = ptrRamWidget->alpOffTh;
1462:Generated_Source\PSoC4/CapSense_Filter.c ****     ptrAlpFilterConfig->configParam2 = ptrRamWidget->fingerTh;
1463:Generated_Source\PSoC4/CapSense_Filter.c ****     ptrAlpFilterConfig->configParam3 = ptrRamWidget->noiseTh;
1464:Generated_Source\PSoC4/CapSense_Filter.c ****     ptrAlpFilterConfig->configParam4 = ptrRamWidget->hysteresis;
1465:Generated_Source\PSoC4/CapSense_Filter.c **** 
1466:Generated_Source\PSoC4/CapSense_Filter.c ****     /* Find pointer to specified filter sensor object */
1467:Generated_Source\PSoC4/CapSense_Filter.c ****     ptrFilterHistObj.ptr = ptrWidget->ptr2FltrHistory;
1468:Generated_Source\PSoC4/CapSense_Filter.c ****     ptrFilterHistObj.ptrAlp = &ptrFilterHistObj.ptrAlp[sensorId];
1469:Generated_Source\PSoC4/CapSense_Filter.c **** 
1470:Generated_Source\PSoC4/CapSense_Filter.c ****     if ((CapSense_WD_TYPE_ENUM)ptrWidget->wdgtType != CapSense_WD_PROXIMITY_E)
1471:Generated_Source\PSoC4/CapSense_Filter.c ****     {
1472:Generated_Source\PSoC4/CapSense_Filter.c ****         #if (CapSense_REGULAR_SENSOR_EN)
1473:Generated_Source\PSoC4/CapSense_Filter.c ****             ptrAlpFilterConfig->configParam5 = CapSense_REGULAR_RC_ALP_FILTER_COEFF;
1474:Generated_Source\PSoC4/CapSense_Filter.c ****         #endif /* (CapSense_REGULAR_SENSOR_EN) */
1475:Generated_Source\PSoC4/CapSense_Filter.c ****     }
1476:Generated_Source\PSoC4/CapSense_Filter.c ****     else
1477:Generated_Source\PSoC4/CapSense_Filter.c ****     {
1478:Generated_Source\PSoC4/CapSense_Filter.c ****         #if (CapSense_PROXIMITY_SENSOR_EN)
1479:Generated_Source\PSoC4/CapSense_Filter.c ****             ptrAlpFilterConfig->configParam5 = CapSense_PROX_RC_ALP_FILTER_COEFF;
1480:Generated_Source\PSoC4/CapSense_Filter.c ****         #endif /* (CapSense_PROXIMITY_SENSOR_EN) */
1481:Generated_Source\PSoC4/CapSense_Filter.c ****     }
1482:Generated_Source\PSoC4/CapSense_Filter.c ****     CapSense_RunALPInternal(ptrFilterHistObj, ptrAlpFilterConfig, ptrSensor, (uint32)ptrWidget->wdg
1483:Generated_Source\PSoC4/CapSense_Filter.c **** }
ARM GAS  C:\Users\dell\AppData\Local\Temp\ccWEiAI7.s 			page 41


1484:Generated_Source\PSoC4/CapSense_Filter.c **** 
1485:Generated_Source\PSoC4/CapSense_Filter.c **** 
1486:Generated_Source\PSoC4/CapSense_Filter.c **** /*******************************************************************************
1487:Generated_Source\PSoC4/CapSense_Filter.c **** * Function Name: CapSense_InitializeALPInternal
1488:Generated_Source\PSoC4/CapSense_Filter.c **** ****************************************************************************//**
1489:Generated_Source\PSoC4/CapSense_Filter.c **** *
1490:Generated_Source\PSoC4/CapSense_Filter.c **** * \brief
1491:Generated_Source\PSoC4/CapSense_Filter.c **** *  Initializes the ALP filter.
1492:Generated_Source\PSoC4/CapSense_Filter.c **** *
1493:Generated_Source\PSoC4/CapSense_Filter.c **** * \details
1494:Generated_Source\PSoC4/CapSense_Filter.c **** *  Initializes the ALP filter.
1495:Generated_Source\PSoC4/CapSense_Filter.c **** *
1496:Generated_Source\PSoC4/CapSense_Filter.c **** * \param ptrFilterHistObj
1497:Generated_Source\PSoC4/CapSense_Filter.c **** *  The pointer to the filter RAM object of the sensor.
1498:Generated_Source\PSoC4/CapSense_Filter.c **** *
1499:Generated_Source\PSoC4/CapSense_Filter.c **** * \param ptrSensorObj
1500:Generated_Source\PSoC4/CapSense_Filter.c **** *  The pointer to the sensor RAM object of the sensor.
1501:Generated_Source\PSoC4/CapSense_Filter.c **** *
1502:Generated_Source\PSoC4/CapSense_Filter.c **** * \param wdType
1503:Generated_Source\PSoC4/CapSense_Filter.c **** *  Specifies the type of a widget.
1504:Generated_Source\PSoC4/CapSense_Filter.c **** *
1505:Generated_Source\PSoC4/CapSense_Filter.c **** *
1506:Generated_Source\PSoC4/CapSense_Filter.c **** *******************************************************************************/
1507:Generated_Source\PSoC4/CapSense_Filter.c **** void CapSense_InitializeALPInternal(CapSense_PTR_FILTER_VARIANT ptrFilterHistObj,
1508:Generated_Source\PSoC4/CapSense_Filter.c ****                                             CapSense_RAM_SNS_STRUCT *ptrSensorObj,
1509:Generated_Source\PSoC4/CapSense_Filter.c ****                                             uint32 wdType)
1510:Generated_Source\PSoC4/CapSense_Filter.c **** {
1511:Generated_Source\PSoC4/CapSense_Filter.c ****     uint32 freqChannel;
1512:Generated_Source\PSoC4/CapSense_Filter.c **** 
1513:Generated_Source\PSoC4/CapSense_Filter.c ****     for(freqChannel = CapSense_NUM_SCAN_FREQS; freqChannel-- > 0u;)
1514:Generated_Source\PSoC4/CapSense_Filter.c ****     {
1515:Generated_Source\PSoC4/CapSense_Filter.c ****         if ((CapSense_WD_TYPE_ENUM)wdType != CapSense_WD_PROXIMITY_E)
1516:Generated_Source\PSoC4/CapSense_Filter.c ****         {
1517:Generated_Source\PSoC4/CapSense_Filter.c ****             #if (CapSense_REGULAR_SENSOR_EN && CapSense_REGULAR_RC_ALP_FILTER_EN)
1518:Generated_Source\PSoC4/CapSense_Filter.c ****                 ALP_Initialize(&ptrFilterHistObj.ptrAlp->channel[freqChannel], &ptrSensorObj->raw[f
1519:Generated_Source\PSoC4/CapSense_Filter.c ****             #endif
1520:Generated_Source\PSoC4/CapSense_Filter.c ****         }
1521:Generated_Source\PSoC4/CapSense_Filter.c ****         else
1522:Generated_Source\PSoC4/CapSense_Filter.c ****         {
1523:Generated_Source\PSoC4/CapSense_Filter.c ****             #if (CapSense_PROXIMITY_SENSOR_EN && CapSense_PROX_RC_ALP_FILTER_EN)
1524:Generated_Source\PSoC4/CapSense_Filter.c ****                 ALP_Initialize(&ptrFilterHistObj.ptrAlp->channel[freqChannel], &ptrSensorObj->raw[f
1525:Generated_Source\PSoC4/CapSense_Filter.c ****             #endif
1526:Generated_Source\PSoC4/CapSense_Filter.c ****         }
1527:Generated_Source\PSoC4/CapSense_Filter.c ****     }
1528:Generated_Source\PSoC4/CapSense_Filter.c **** }
1529:Generated_Source\PSoC4/CapSense_Filter.c **** 
1530:Generated_Source\PSoC4/CapSense_Filter.c **** /*******************************************************************************
1531:Generated_Source\PSoC4/CapSense_Filter.c **** * Function Name: CapSense_ConfigRunALPInternal
1532:Generated_Source\PSoC4/CapSense_Filter.c **** ****************************************************************************//**
1533:Generated_Source\PSoC4/CapSense_Filter.c **** *
1534:Generated_Source\PSoC4/CapSense_Filter.c **** * \brief
1535:Generated_Source\PSoC4/CapSense_Filter.c **** *  Prepares ALP configuration structure and runs the filter.
1536:Generated_Source\PSoC4/CapSense_Filter.c **** *
1537:Generated_Source\PSoC4/CapSense_Filter.c **** * \details
1538:Generated_Source\PSoC4/CapSense_Filter.c **** *  Prepares ALP configuration structure and runs the filter.
1539:Generated_Source\PSoC4/CapSense_Filter.c **** *
1540:Generated_Source\PSoC4/CapSense_Filter.c **** * \param ptrFilterHistObj
ARM GAS  C:\Users\dell\AppData\Local\Temp\ccWEiAI7.s 			page 42


1541:Generated_Source\PSoC4/CapSense_Filter.c **** *  The pointer to the filter RAM object of the sensor.
1542:Generated_Source\PSoC4/CapSense_Filter.c **** *
1543:Generated_Source\PSoC4/CapSense_Filter.c **** * \param ptrRamWdgt
1544:Generated_Source\PSoC4/CapSense_Filter.c **** *  The pointer to the RAM widget object.
1545:Generated_Source\PSoC4/CapSense_Filter.c **** *
1546:Generated_Source\PSoC4/CapSense_Filter.c **** * \param ptrSensorObj
1547:Generated_Source\PSoC4/CapSense_Filter.c **** *  The pointer to the sensor RAM object of the sensor.
1548:Generated_Source\PSoC4/CapSense_Filter.c **** *
1549:Generated_Source\PSoC4/CapSense_Filter.c **** * \param wdType
1550:Generated_Source\PSoC4/CapSense_Filter.c **** *  Specifies the type of a widget.
1551:Generated_Source\PSoC4/CapSense_Filter.c **** *
1552:Generated_Source\PSoC4/CapSense_Filter.c **** *******************************************************************************/
1553:Generated_Source\PSoC4/CapSense_Filter.c **** void CapSense_ConfigRunALPInternal(CapSense_PTR_FILTER_VARIANT ptrFilterHistObj,
1554:Generated_Source\PSoC4/CapSense_Filter.c ****                                     CapSense_RAM_WD_BASE_STRUCT *ptrRamWdgt,
1555:Generated_Source\PSoC4/CapSense_Filter.c ****                                     CapSense_RAM_SNS_STRUCT *ptrSensorObj,
1556:Generated_Source\PSoC4/CapSense_Filter.c ****                                     uint32 wdType)
1557:Generated_Source\PSoC4/CapSense_Filter.c **** {
1558:Generated_Source\PSoC4/CapSense_Filter.c ****     ALP_FLTR_CONFIG_STRUCT alpFilterConfig;
1559:Generated_Source\PSoC4/CapSense_Filter.c **** 
1560:Generated_Source\PSoC4/CapSense_Filter.c ****     alpFilterConfig.configParam0 = ptrRamWdgt->alpOnTh;
1561:Generated_Source\PSoC4/CapSense_Filter.c ****     alpFilterConfig.configParam1 = ptrRamWdgt->alpOffTh;
1562:Generated_Source\PSoC4/CapSense_Filter.c ****     alpFilterConfig.configParam2 = ptrRamWdgt->fingerTh;
1563:Generated_Source\PSoC4/CapSense_Filter.c ****     alpFilterConfig.configParam3 = ptrRamWdgt->noiseTh;
1564:Generated_Source\PSoC4/CapSense_Filter.c ****     alpFilterConfig.configParam4 = ptrRamWdgt->hysteresis;
1565:Generated_Source\PSoC4/CapSense_Filter.c **** 
1566:Generated_Source\PSoC4/CapSense_Filter.c ****     CapSense_RunALPInternal(ptrFilterHistObj, &alpFilterConfig, ptrSensorObj, wdType);
1567:Generated_Source\PSoC4/CapSense_Filter.c **** }
1568:Generated_Source\PSoC4/CapSense_Filter.c **** 
1569:Generated_Source\PSoC4/CapSense_Filter.c **** /*******************************************************************************
1570:Generated_Source\PSoC4/CapSense_Filter.c **** * Function Name: CapSense_RunALPInternal
1571:Generated_Source\PSoC4/CapSense_Filter.c **** ****************************************************************************//**
1572:Generated_Source\PSoC4/CapSense_Filter.c **** *
1573:Generated_Source\PSoC4/CapSense_Filter.c **** * \brief
1574:Generated_Source\PSoC4/CapSense_Filter.c **** *  Runs the ALP filter.
1575:Generated_Source\PSoC4/CapSense_Filter.c **** *
1576:Generated_Source\PSoC4/CapSense_Filter.c **** * \details
1577:Generated_Source\PSoC4/CapSense_Filter.c **** *  Runs the ALP filter.
1578:Generated_Source\PSoC4/CapSense_Filter.c **** *
1579:Generated_Source\PSoC4/CapSense_Filter.c **** * \param ptrFilterHistObj
1580:Generated_Source\PSoC4/CapSense_Filter.c **** *  The pointer to the filter RAM object of the sensor.
1581:Generated_Source\PSoC4/CapSense_Filter.c **** *
1582:Generated_Source\PSoC4/CapSense_Filter.c **** * \param ptrAlpFilterConfig
1583:Generated_Source\PSoC4/CapSense_Filter.c **** *  The pointer to the filter configuration object of the sensor.
1584:Generated_Source\PSoC4/CapSense_Filter.c **** *
1585:Generated_Source\PSoC4/CapSense_Filter.c **** * \param ptrSensorObj
1586:Generated_Source\PSoC4/CapSense_Filter.c **** *  The pointer to the sensor RAM object of the sensor.
1587:Generated_Source\PSoC4/CapSense_Filter.c **** *
1588:Generated_Source\PSoC4/CapSense_Filter.c **** * \param wdType
1589:Generated_Source\PSoC4/CapSense_Filter.c **** *  Specifies the type of a widget.
1590:Generated_Source\PSoC4/CapSense_Filter.c **** *
1591:Generated_Source\PSoC4/CapSense_Filter.c **** *******************************************************************************/
1592:Generated_Source\PSoC4/CapSense_Filter.c **** void CapSense_RunALPInternal(CapSense_PTR_FILTER_VARIANT ptrFilterHistObj,
1593:Generated_Source\PSoC4/CapSense_Filter.c ****                                     ALP_FLTR_CONFIG_STRUCT *ptrAlpFilterConfig,
1594:Generated_Source\PSoC4/CapSense_Filter.c ****                                     CapSense_RAM_SNS_STRUCT *ptrSensorObj,
1595:Generated_Source\PSoC4/CapSense_Filter.c ****                                     uint32 wdType)
1596:Generated_Source\PSoC4/CapSense_Filter.c **** {
1597:Generated_Source\PSoC4/CapSense_Filter.c ****     uint32 freqChannel;
ARM GAS  C:\Users\dell\AppData\Local\Temp\ccWEiAI7.s 			page 43


1598:Generated_Source\PSoC4/CapSense_Filter.c **** 
1599:Generated_Source\PSoC4/CapSense_Filter.c ****     for(freqChannel = CapSense_NUM_SCAN_FREQS; freqChannel-- > 0u;)
1600:Generated_Source\PSoC4/CapSense_Filter.c ****     {
1601:Generated_Source\PSoC4/CapSense_Filter.c ****         if ((CapSense_WD_TYPE_ENUM)wdType != CapSense_WD_PROXIMITY_E)
1602:Generated_Source\PSoC4/CapSense_Filter.c ****         {
1603:Generated_Source\PSoC4/CapSense_Filter.c ****             #if (CapSense_REGULAR_SENSOR_EN && CapSense_REGULAR_RC_ALP_FILTER_EN)
1604:Generated_Source\PSoC4/CapSense_Filter.c ****                 ptrAlpFilterConfig->configParam5 = CapSense_REGULAR_RC_ALP_FILTER_COEFF;
1605:Generated_Source\PSoC4/CapSense_Filter.c ****                 ALP_Run(&ptrFilterHistObj.ptrAlp->channel[freqChannel], ptrAlpFilterConfig, &ptrSen
1606:Generated_Source\PSoC4/CapSense_Filter.c ****             #endif
1607:Generated_Source\PSoC4/CapSense_Filter.c ****         }
1608:Generated_Source\PSoC4/CapSense_Filter.c ****         else
1609:Generated_Source\PSoC4/CapSense_Filter.c ****         {
1610:Generated_Source\PSoC4/CapSense_Filter.c ****             #if (CapSense_PROXIMITY_SENSOR_EN && CapSense_PROX_RC_ALP_FILTER_EN)
1611:Generated_Source\PSoC4/CapSense_Filter.c ****                 ptrAlpFilterConfig->configParam5 = CapSense_PROX_RC_ALP_FILTER_COEFF;
1612:Generated_Source\PSoC4/CapSense_Filter.c ****                 ALP_Run(&ptrFilterHistObj.ptrAlp->channel[freqChannel], ptrAlpFilterConfig, &ptrSen
1613:Generated_Source\PSoC4/CapSense_Filter.c ****             #endif
1614:Generated_Source\PSoC4/CapSense_Filter.c ****         }
1615:Generated_Source\PSoC4/CapSense_Filter.c ****     }
1616:Generated_Source\PSoC4/CapSense_Filter.c **** }
1617:Generated_Source\PSoC4/CapSense_Filter.c **** #endif /* (CapSense_ENABLE == CapSense_ALP_FILTER_EN) */
1618:Generated_Source\PSoC4/CapSense_Filter.c **** 
1619:Generated_Source\PSoC4/CapSense_Filter.c **** #if (CapSense_ENABLE == CapSense_RC_FILTER_EN)
1620:Generated_Source\PSoC4/CapSense_Filter.c **** /*******************************************************************************
1621:Generated_Source\PSoC4/CapSense_Filter.c **** * Function Name: CapSense_FtRunEnabledFilters
1622:Generated_Source\PSoC4/CapSense_Filter.c **** ****************************************************************************//**
1623:Generated_Source\PSoC4/CapSense_Filter.c **** *
1624:Generated_Source\PSoC4/CapSense_Filter.c **** * \brief
1625:Generated_Source\PSoC4/CapSense_Filter.c **** *  Runs all enabled filters.
1626:Generated_Source\PSoC4/CapSense_Filter.c **** *
1627:Generated_Source\PSoC4/CapSense_Filter.c **** * \details
1628:Generated_Source\PSoC4/CapSense_Filter.c **** *  Runs all enabled filters.
1629:Generated_Source\PSoC4/CapSense_Filter.c **** *
1630:Generated_Source\PSoC4/CapSense_Filter.c **** * \param widgetId
1631:Generated_Source\PSoC4/CapSense_Filter.c **** *  Specifies the ID number of a widget to update the IIR filter history.
1632:Generated_Source\PSoC4/CapSense_Filter.c **** *
1633:Generated_Source\PSoC4/CapSense_Filter.c **** * \param sensorId
1634:Generated_Source\PSoC4/CapSense_Filter.c **** *  Specifies the ID number of a sensor in the widget to update the IIR
1635:Generated_Source\PSoC4/CapSense_Filter.c **** *  filter history.
1636:Generated_Source\PSoC4/CapSense_Filter.c **** *
1637:Generated_Source\PSoC4/CapSense_Filter.c **** *******************************************************************************/
1638:Generated_Source\PSoC4/CapSense_Filter.c **** void CapSense_FtRunEnabledFilters(uint32 widgetId, uint32 sensorId)
1639:Generated_Source\PSoC4/CapSense_Filter.c **** {
1640:Generated_Source\PSoC4/CapSense_Filter.c ****     CapSense_FLASH_WD_STRUCT const *ptrWidget = &CapSense_dsFlash.wdgtArray[widgetId];
1641:Generated_Source\PSoC4/CapSense_Filter.c ****     CapSense_RAM_SNS_STRUCT *ptrSensor = NULL;
1642:Generated_Source\PSoC4/CapSense_Filter.c ****     CapSense_PTR_FILTER_VARIANT ptrFilterHistObj;
1643:Generated_Source\PSoC4/CapSense_Filter.c **** 
1644:Generated_Source\PSoC4/CapSense_Filter.c ****     /* Find pointer to specified sensor object */
1645:Generated_Source\PSoC4/CapSense_Filter.c ****     ptrSensor = ptrWidget->ptr2SnsRam;
1646:Generated_Source\PSoC4/CapSense_Filter.c ****     ptrSensor = &ptrSensor[sensorId];
1647:Generated_Source\PSoC4/CapSense_Filter.c **** 
1648:Generated_Source\PSoC4/CapSense_Filter.c ****     /* Find pointer to specified filter sensor object */
1649:Generated_Source\PSoC4/CapSense_Filter.c ****     ptrFilterHistObj.ptr = ptrWidget->ptr2FltrHistory;
1650:Generated_Source\PSoC4/CapSense_Filter.c **** 
1651:Generated_Source\PSoC4/CapSense_Filter.c ****     if ((CapSense_WD_TYPE_ENUM)ptrWidget->wdgtType != CapSense_WD_PROXIMITY_E)
1652:Generated_Source\PSoC4/CapSense_Filter.c ****     {
1653:Generated_Source\PSoC4/CapSense_Filter.c ****         #if (0u != CapSense_REGULAR_RC_ALP_FILTER_EN)
1654:Generated_Source\PSoC4/CapSense_Filter.c ****             ptrFilterHistObj.ptr = &ptrFilterHistObj.ptrAlp[sensorId];
ARM GAS  C:\Users\dell\AppData\Local\Temp\ccWEiAI7.s 			page 44


1655:Generated_Source\PSoC4/CapSense_Filter.c ****         #elif (0u != CapSense_REGULAR_RC_FILTER_EN)
1656:Generated_Source\PSoC4/CapSense_Filter.c ****             ptrFilterHistObj.ptr = &ptrFilterHistObj.ptrRegular[sensorId];
1657:Generated_Source\PSoC4/CapSense_Filter.c ****         #endif
1658:Generated_Source\PSoC4/CapSense_Filter.c ****     }
1659:Generated_Source\PSoC4/CapSense_Filter.c ****     else
1660:Generated_Source\PSoC4/CapSense_Filter.c ****     {
1661:Generated_Source\PSoC4/CapSense_Filter.c ****         #if (0u != CapSense_PROX_RC_ALP_FILTER_EN)
1662:Generated_Source\PSoC4/CapSense_Filter.c ****             ptrFilterHistObj.ptr = &ptrFilterHistObj.ptrAlp[sensorId];
1663:Generated_Source\PSoC4/CapSense_Filter.c ****         #elif (0u != CapSense_PROX_RC_FILTER_EN)
1664:Generated_Source\PSoC4/CapSense_Filter.c ****             ptrFilterHistObj.ptr = &ptrFilterHistObj.ptrProx[sensorId];
1665:Generated_Source\PSoC4/CapSense_Filter.c ****         #endif
1666:Generated_Source\PSoC4/CapSense_Filter.c ****     }
1667:Generated_Source\PSoC4/CapSense_Filter.c **** 
1668:Generated_Source\PSoC4/CapSense_Filter.c ****     CapSense_FtRunEnabledFiltersInternal(ptrFilterHistObj, ptrSensor, (uint32)ptrWidget->wdgtType);
1669:Generated_Source\PSoC4/CapSense_Filter.c ****     #if (CapSense_ALP_FILTER_EN)
1670:Generated_Source\PSoC4/CapSense_Filter.c ****         CapSense_ConfigRunALPInternal(ptrFilterHistObj, ptrWidget->ptr2WdgtRam, ptrSensor, (uint32)
1671:Generated_Source\PSoC4/CapSense_Filter.c ****     #endif
1672:Generated_Source\PSoC4/CapSense_Filter.c **** }
1673:Generated_Source\PSoC4/CapSense_Filter.c **** 
1674:Generated_Source\PSoC4/CapSense_Filter.c **** 
1675:Generated_Source\PSoC4/CapSense_Filter.c **** /*******************************************************************************
1676:Generated_Source\PSoC4/CapSense_Filter.c **** * Function Name: CapSense_FtRunEnabledFiltersInternal
1677:Generated_Source\PSoC4/CapSense_Filter.c **** ****************************************************************************//**
1678:Generated_Source\PSoC4/CapSense_Filter.c **** *
1679:Generated_Source\PSoC4/CapSense_Filter.c **** * \brief
1680:Generated_Source\PSoC4/CapSense_Filter.c **** *  Runs all enabled filters.
1681:Generated_Source\PSoC4/CapSense_Filter.c **** *
1682:Generated_Source\PSoC4/CapSense_Filter.c **** * \details
1683:Generated_Source\PSoC4/CapSense_Filter.c **** *  Runs all enabled filters.
1684:Generated_Source\PSoC4/CapSense_Filter.c **** *
1685:Generated_Source\PSoC4/CapSense_Filter.c **** * \param ptrFilterHistObj
1686:Generated_Source\PSoC4/CapSense_Filter.c **** *  The pointer to the filter RAM object of the sensor.
1687:Generated_Source\PSoC4/CapSense_Filter.c **** *
1688:Generated_Source\PSoC4/CapSense_Filter.c **** * \param ptrSensorObj
1689:Generated_Source\PSoC4/CapSense_Filter.c **** *  The pointer to the sensor RAM object of the sensor.
1690:Generated_Source\PSoC4/CapSense_Filter.c **** *
1691:Generated_Source\PSoC4/CapSense_Filter.c **** * \param wdType
1692:Generated_Source\PSoC4/CapSense_Filter.c **** *  Specifies the type of a widget.
1693:Generated_Source\PSoC4/CapSense_Filter.c **** *
1694:Generated_Source\PSoC4/CapSense_Filter.c **** *******************************************************************************/
1695:Generated_Source\PSoC4/CapSense_Filter.c **** void CapSense_FtRunEnabledFiltersInternal(CapSense_PTR_FILTER_VARIANT ptrFilterHistObj,
1696:Generated_Source\PSoC4/CapSense_Filter.c ****                                                   CapSense_RAM_SNS_STRUCT *ptrSensorObj, uint32 wdT
1697:Generated_Source\PSoC4/CapSense_Filter.c **** {
 728              		.loc 1 1697 0
 729              		.cfi_startproc
 730              		@ args = 0, pretend = 0, frame = 0
 731              		@ frame_needed = 0, uses_anonymous_args = 0
 732              	.LVL93:
 733 0000 10B5     		push	{r4, lr}
 734              		.cfi_def_cfa_offset 8
 735              		.cfi_offset 4, -8
 736              		.cfi_offset 14, -4
1698:Generated_Source\PSoC4/CapSense_Filter.c ****     #if (CapSense_REGULAR_RC_MEDIAN_FILTER_EN || CapSense_PROX_RC_MEDIAN_FILTER_EN)
1699:Generated_Source\PSoC4/CapSense_Filter.c ****         CapSense_RunMedianInternal(ptrFilterHistObj, ptrSensorObj, wdType);
1700:Generated_Source\PSoC4/CapSense_Filter.c ****     #endif /* (CapSense_REGULAR_RC_MEDIAN_FILTER_EN || CapSense_PROX_RC_MEDIAN_FILTER_EN) */
1701:Generated_Source\PSoC4/CapSense_Filter.c **** 
1702:Generated_Source\PSoC4/CapSense_Filter.c ****     #if (CapSense_REGULAR_RC_IIR_FILTER_EN || CapSense_PROX_RC_IIR_FILTER_EN)
ARM GAS  C:\Users\dell\AppData\Local\Temp\ccWEiAI7.s 			page 45


1703:Generated_Source\PSoC4/CapSense_Filter.c ****         CapSense_RunIIRInternal(ptrFilterHistObj, ptrSensorObj, wdType);
1704:Generated_Source\PSoC4/CapSense_Filter.c ****     #endif /* (CapSense_REGULAR_RC_IIR_FILTER_EN || CapSense_PROX_RC_IIR_FILTER_EN) */
1705:Generated_Source\PSoC4/CapSense_Filter.c **** 
1706:Generated_Source\PSoC4/CapSense_Filter.c ****     #if (CapSense_REGULAR_RC_AVERAGE_FILTER_EN || CapSense_PROX_RC_AVERAGE_FILTER_EN)
1707:Generated_Source\PSoC4/CapSense_Filter.c ****         CapSense_RunAverageInternal(ptrFilterHistObj, ptrSensorObj, wdType);
 737              		.loc 1 1707 0
 738 0002 FFF7FEFF 		bl	CapSense_RunAverageInternal
 739              	.LVL94:
1708:Generated_Source\PSoC4/CapSense_Filter.c ****     #endif /* (CapSense_REGULAR_RC_AVERAGE_FILTER_EN || CapSense_PROX_RC_AVERAGE_FILTER_EN) */
1709:Generated_Source\PSoC4/CapSense_Filter.c **** }
 740              		.loc 1 1709 0
 741              		@ sp needed
 742 0006 10BD     		pop	{r4, pc}
 743              		.cfi_endproc
 744              	.LFE18:
 745              		.size	CapSense_FtRunEnabledFiltersInternal, .-CapSense_FtRunEnabledFiltersInternal
 746              		.section	.text.CapSense_FtRunEnabledFilters,"ax",%progbits
 747              		.align	2
 748              		.global	CapSense_FtRunEnabledFilters
 749              		.code	16
 750              		.thumb_func
 751              		.type	CapSense_FtRunEnabledFilters, %function
 752              	CapSense_FtRunEnabledFilters:
 753              	.LFB17:
1639:Generated_Source\PSoC4/CapSense_Filter.c ****     CapSense_FLASH_WD_STRUCT const *ptrWidget = &CapSense_dsFlash.wdgtArray[widgetId];
 754              		.loc 1 1639 0
 755              		.cfi_startproc
 756              		@ args = 0, pretend = 0, frame = 0
 757              		@ frame_needed = 0, uses_anonymous_args = 0
 758              	.LVL95:
 759 0000 B0B5     		push	{r4, r5, r7, lr}
 760              		.cfi_def_cfa_offset 16
 761              		.cfi_offset 4, -16
 762              		.cfi_offset 5, -12
 763              		.cfi_offset 7, -8
 764              		.cfi_offset 14, -4
 765 0002 0B00     		movs	r3, r1
 766              	.LVL96:
1645:Generated_Source\PSoC4/CapSense_Filter.c ****     ptrSensor = &ptrSensor[sensorId];
 767              		.loc 1 1645 0
 768 0004 0D4F     		ldr	r7, .L46
 769 0006 C200     		lsls	r2, r0, #3
 770 0008 111A     		subs	r1, r2, r0
 771              	.LVL97:
 772 000a 8C00     		lsls	r4, r1, #2
 773 000c 3C19     		adds	r4, r7, r4
 774              	.LVL98:
1646:Generated_Source\PSoC4/CapSense_Filter.c **** 
 775              		.loc 1 1646 0
 776 000e 9D00     		lsls	r5, r3, #2
 777 0010 ED18     		adds	r5, r5, r3
 778 0012 6900     		lsls	r1, r5, #1
 779 0014 A568     		ldr	r5, [r4, #8]
 780 0016 AC46     		mov	ip, r5
 781 0018 6144     		add	r1, r1, ip
 782              	.LVL99:
1649:Generated_Source\PSoC4/CapSense_Filter.c **** 
ARM GAS  C:\Users\dell\AppData\Local\Temp\ccWEiAI7.s 			page 46


 783              		.loc 1 1649 0
 784 001a E568     		ldr	r5, [r4, #12]
 785 001c 2C00     		movs	r4, r5
 786              	.LVL100:
1651:Generated_Source\PSoC4/CapSense_Filter.c ****     {
 787              		.loc 1 1651 0
 788 001e 121A     		subs	r2, r2, r0
 789 0020 9000     		lsls	r0, r2, #2
 790              	.LVL101:
 791 0022 3818     		adds	r0, r7, r0
 792 0024 827E     		ldrb	r2, [r0, #26]
 793 0026 062A     		cmp	r2, #6
 794 0028 03D0     		beq	.L45
1656:Generated_Source\PSoC4/CapSense_Filter.c ****         #endif
 795              		.loc 1 1656 0
 796 002a 5800     		lsls	r0, r3, #1
 797 002c C318     		adds	r3, r0, r3
 798              	.LVL102:
 799 002e 5C00     		lsls	r4, r3, #1
 800 0030 2C19     		adds	r4, r5, r4
 801              	.L45:
 802              	.LVL103:
1668:Generated_Source\PSoC4/CapSense_Filter.c ****     #if (CapSense_ALP_FILTER_EN)
 803              		.loc 1 1668 0
 804 0032 2000     		movs	r0, r4
 805 0034 FFF7FEFF 		bl	CapSense_FtRunEnabledFiltersInternal
 806              	.LVL104:
1672:Generated_Source\PSoC4/CapSense_Filter.c **** 
 807              		.loc 1 1672 0
 808              		@ sp needed
 809              	.LVL105:
 810              	.LVL106:
 811 0038 B0BD     		pop	{r4, r5, r7, pc}
 812              	.L47:
 813 003a C046     		.align	2
 814              	.L46:
 815 003c 00000000 		.word	CapSense_dsFlash
 816              		.cfi_endproc
 817              	.LFE17:
 818              		.size	CapSense_FtRunEnabledFilters, .-CapSense_FtRunEnabledFilters
 819              		.section	.text.CapSense_FtIIR1stOrder,"ax",%progbits
 820              		.align	2
 821              		.global	CapSense_FtIIR1stOrder
 822              		.code	16
 823              		.thumb_func
 824              		.type	CapSense_FtIIR1stOrder, %function
 825              	CapSense_FtIIR1stOrder:
 826              	.LFB19:
1710:Generated_Source\PSoC4/CapSense_Filter.c **** #endif /* (CapSense_ENABLE == CapSense_RC_FILTER_EN) */
1711:Generated_Source\PSoC4/CapSense_Filter.c **** 
1712:Generated_Source\PSoC4/CapSense_Filter.c **** 
1713:Generated_Source\PSoC4/CapSense_Filter.c **** #if (0u != (CapSense_CSD_AUTOTUNE & CapSense_CSD_SS_TH_EN))
1714:Generated_Source\PSoC4/CapSense_Filter.c **** /*******************************************************************************
1715:Generated_Source\PSoC4/CapSense_Filter.c **** * Function Name: CapSense_RunNoiseEnvelope
1716:Generated_Source\PSoC4/CapSense_Filter.c **** ****************************************************************************//**
1717:Generated_Source\PSoC4/CapSense_Filter.c **** *
1718:Generated_Source\PSoC4/CapSense_Filter.c **** * \brief
ARM GAS  C:\Users\dell\AppData\Local\Temp\ccWEiAI7.s 			page 47


1719:Generated_Source\PSoC4/CapSense_Filter.c **** *  Executes the noise envelope  filter algorithm on a sensor indicated by
1720:Generated_Source\PSoC4/CapSense_Filter.c **** *  an input parameter to measure the pk-to-pk noise in the sensor raw count.
1721:Generated_Source\PSoC4/CapSense_Filter.c **** *
1722:Generated_Source\PSoC4/CapSense_Filter.c **** * \details
1723:Generated_Source\PSoC4/CapSense_Filter.c **** *  Executes the noise envelope  filter algorithm on a sensor indicated by
1724:Generated_Source\PSoC4/CapSense_Filter.c **** *  an input parameter to measure the pk-to-pk noise in the sensor raw count.
1725:Generated_Source\PSoC4/CapSense_Filter.c **** *
1726:Generated_Source\PSoC4/CapSense_Filter.c **** * \param widgetId
1727:Generated_Source\PSoC4/CapSense_Filter.c **** *  Specifies the ID number of the widget.
1728:Generated_Source\PSoC4/CapSense_Filter.c **** *
1729:Generated_Source\PSoC4/CapSense_Filter.c **** * \param sensorId
1730:Generated_Source\PSoC4/CapSense_Filter.c **** *  Specifies the ID number of the sensor in the widget.
1731:Generated_Source\PSoC4/CapSense_Filter.c **** *
1732:Generated_Source\PSoC4/CapSense_Filter.c **** *******************************************************************************/
1733:Generated_Source\PSoC4/CapSense_Filter.c **** void CapSense_RunNoiseEnvelope(uint32 widgetId, uint32 sensorId)
1734:Generated_Source\PSoC4/CapSense_Filter.c **** {
1735:Generated_Source\PSoC4/CapSense_Filter.c ****     CapSense_FLASH_WD_STRUCT const *ptrWidget = &CapSense_dsFlash.wdgtArray[widgetId];
1736:Generated_Source\PSoC4/CapSense_Filter.c ****     CapSense_RAM_WD_BASE_STRUCT *ptrWidgetRam = ptrWidget->ptr2WdgtRam;
1737:Generated_Source\PSoC4/CapSense_Filter.c ****     CapSense_RAM_SNS_STRUCT *ptrSensor = NULL;
1738:Generated_Source\PSoC4/CapSense_Filter.c ****     SMARTSENSE_CSD_NOISE_ENVELOPE_STRUCT *ptrNoiseEnvelope = NULL;
1739:Generated_Source\PSoC4/CapSense_Filter.c **** 
1740:Generated_Source\PSoC4/CapSense_Filter.c ****     /* Find pointer to specified sensor object */
1741:Generated_Source\PSoC4/CapSense_Filter.c ****     ptrSensor = ptrWidget->ptr2SnsRam;
1742:Generated_Source\PSoC4/CapSense_Filter.c ****     ptrSensor = &ptrSensor[sensorId];
1743:Generated_Source\PSoC4/CapSense_Filter.c **** 
1744:Generated_Source\PSoC4/CapSense_Filter.c ****     /* Find pointer to specified filter sensor object */
1745:Generated_Source\PSoC4/CapSense_Filter.c ****     ptrNoiseEnvelope = ptrWidget->ptr2NoiseEnvlp;
1746:Generated_Source\PSoC4/CapSense_Filter.c ****     ptrNoiseEnvelope = &ptrNoiseEnvelope[sensorId];
1747:Generated_Source\PSoC4/CapSense_Filter.c **** 
1748:Generated_Source\PSoC4/CapSense_Filter.c ****     SmartSense_RunNoiseEnvelope(ptrSensor->raw[0u], ptrWidgetRam->sigPFC, ptrNoiseEnvelope);
1749:Generated_Source\PSoC4/CapSense_Filter.c **** }
1750:Generated_Source\PSoC4/CapSense_Filter.c **** 
1751:Generated_Source\PSoC4/CapSense_Filter.c **** 
1752:Generated_Source\PSoC4/CapSense_Filter.c **** /*******************************************************************************
1753:Generated_Source\PSoC4/CapSense_Filter.c **** * Function Name: CapSense_InitializeNoiseEnvelope
1754:Generated_Source\PSoC4/CapSense_Filter.c **** ****************************************************************************//**
1755:Generated_Source\PSoC4/CapSense_Filter.c **** *
1756:Generated_Source\PSoC4/CapSense_Filter.c **** * \brief
1757:Generated_Source\PSoC4/CapSense_Filter.c **** *  Initializes the noise-envelope filter
1758:Generated_Source\PSoC4/CapSense_Filter.c **** *
1759:Generated_Source\PSoC4/CapSense_Filter.c **** * \details
1760:Generated_Source\PSoC4/CapSense_Filter.c **** *  Initializes the noise-envelope filter
1761:Generated_Source\PSoC4/CapSense_Filter.c **** *
1762:Generated_Source\PSoC4/CapSense_Filter.c **** * \param widgetId
1763:Generated_Source\PSoC4/CapSense_Filter.c **** *  Specifies the ID number of the widget.
1764:Generated_Source\PSoC4/CapSense_Filter.c **** *
1765:Generated_Source\PSoC4/CapSense_Filter.c **** * \param sensorId
1766:Generated_Source\PSoC4/CapSense_Filter.c **** *  Specifies the ID number of the sensor in the widget.
1767:Generated_Source\PSoC4/CapSense_Filter.c **** *
1768:Generated_Source\PSoC4/CapSense_Filter.c **** *******************************************************************************/
1769:Generated_Source\PSoC4/CapSense_Filter.c **** void CapSense_InitializeNoiseEnvelope(uint32 widgetId, uint32 sensorId)
1770:Generated_Source\PSoC4/CapSense_Filter.c **** {
1771:Generated_Source\PSoC4/CapSense_Filter.c ****     CapSense_FLASH_WD_STRUCT const *ptrWidget = &CapSense_dsFlash.wdgtArray[widgetId];
1772:Generated_Source\PSoC4/CapSense_Filter.c ****     CapSense_RAM_WD_BASE_STRUCT *ptrWidgetRam = ptrWidget->ptr2WdgtRam;
1773:Generated_Source\PSoC4/CapSense_Filter.c ****     CapSense_RAM_SNS_STRUCT *ptrSensor = NULL;
1774:Generated_Source\PSoC4/CapSense_Filter.c ****     SMARTSENSE_CSD_NOISE_ENVELOPE_STRUCT *ptrNoiseEnvelope = NULL;
1775:Generated_Source\PSoC4/CapSense_Filter.c **** 
ARM GAS  C:\Users\dell\AppData\Local\Temp\ccWEiAI7.s 			page 48


1776:Generated_Source\PSoC4/CapSense_Filter.c ****     /* Find pointer to specified sensor object */
1777:Generated_Source\PSoC4/CapSense_Filter.c ****     ptrSensor = ptrWidget->ptr2SnsRam;
1778:Generated_Source\PSoC4/CapSense_Filter.c ****     ptrSensor = &ptrSensor[sensorId];
1779:Generated_Source\PSoC4/CapSense_Filter.c **** 
1780:Generated_Source\PSoC4/CapSense_Filter.c ****     /* Find pointer to specified filter sensor object */
1781:Generated_Source\PSoC4/CapSense_Filter.c ****     ptrNoiseEnvelope = ptrWidget->ptr2NoiseEnvlp;
1782:Generated_Source\PSoC4/CapSense_Filter.c ****     ptrNoiseEnvelope = &ptrNoiseEnvelope[sensorId];
1783:Generated_Source\PSoC4/CapSense_Filter.c **** 
1784:Generated_Source\PSoC4/CapSense_Filter.c ****     SmartSense_InitializeNoiseEnvelope(ptrSensor->raw[0u], ptrWidgetRam->sigPFC, ptrNoiseEnvelope);
1785:Generated_Source\PSoC4/CapSense_Filter.c **** }
1786:Generated_Source\PSoC4/CapSense_Filter.c **** #endif /* (0u != (CapSense_CSD_AUTOTUNE & CapSense_CSD_SS_TH_EN)) */
1787:Generated_Source\PSoC4/CapSense_Filter.c **** 
1788:Generated_Source\PSoC4/CapSense_Filter.c **** 
1789:Generated_Source\PSoC4/CapSense_Filter.c **** #if (CapSense_POS_MEDIAN_FILTER_EN || CapSense_REGULAR_RC_MEDIAN_FILTER_EN || CapSense_PROX_RC_MEDI
1790:Generated_Source\PSoC4/CapSense_Filter.c **** /*******************************************************************************
1791:Generated_Source\PSoC4/CapSense_Filter.c **** * Function Name: CapSense_FtMedian
1792:Generated_Source\PSoC4/CapSense_Filter.c **** ****************************************************************************//**
1793:Generated_Source\PSoC4/CapSense_Filter.c **** *
1794:Generated_Source\PSoC4/CapSense_Filter.c **** * \brief
1795:Generated_Source\PSoC4/CapSense_Filter.c **** *  Return the median value from the three passed arguments.
1796:Generated_Source\PSoC4/CapSense_Filter.c **** *
1797:Generated_Source\PSoC4/CapSense_Filter.c **** * \details
1798:Generated_Source\PSoC4/CapSense_Filter.c **** *  Return the median value from the three passed arguments.
1799:Generated_Source\PSoC4/CapSense_Filter.c **** *
1800:Generated_Source\PSoC4/CapSense_Filter.c **** * \param x1
1801:Generated_Source\PSoC4/CapSense_Filter.c **** *  The first value to be compared.
1802:Generated_Source\PSoC4/CapSense_Filter.c **** *
1803:Generated_Source\PSoC4/CapSense_Filter.c **** * \param x2
1804:Generated_Source\PSoC4/CapSense_Filter.c **** *  The second value to be compared.
1805:Generated_Source\PSoC4/CapSense_Filter.c **** *
1806:Generated_Source\PSoC4/CapSense_Filter.c **** * \param x3
1807:Generated_Source\PSoC4/CapSense_Filter.c **** *  The third value to be compared.
1808:Generated_Source\PSoC4/CapSense_Filter.c **** *
1809:Generated_Source\PSoC4/CapSense_Filter.c **** * \return
1810:Generated_Source\PSoC4/CapSense_Filter.c **** *  Returns the median value of input arguments.
1811:Generated_Source\PSoC4/CapSense_Filter.c **** *
1812:Generated_Source\PSoC4/CapSense_Filter.c **** *******************************************************************************/
1813:Generated_Source\PSoC4/CapSense_Filter.c **** uint32 CapSense_FtMedian(uint32 x1, uint32 x2, uint32 x3)
1814:Generated_Source\PSoC4/CapSense_Filter.c **** {
1815:Generated_Source\PSoC4/CapSense_Filter.c ****     uint32 tmp;
1816:Generated_Source\PSoC4/CapSense_Filter.c **** 
1817:Generated_Source\PSoC4/CapSense_Filter.c ****     if (x1 > x2)
1818:Generated_Source\PSoC4/CapSense_Filter.c ****     {
1819:Generated_Source\PSoC4/CapSense_Filter.c ****         tmp = x2;
1820:Generated_Source\PSoC4/CapSense_Filter.c ****         x2 = x1;
1821:Generated_Source\PSoC4/CapSense_Filter.c ****         x1 = tmp;
1822:Generated_Source\PSoC4/CapSense_Filter.c ****     }
1823:Generated_Source\PSoC4/CapSense_Filter.c **** 
1824:Generated_Source\PSoC4/CapSense_Filter.c ****     if (x2 > x3)
1825:Generated_Source\PSoC4/CapSense_Filter.c ****     {
1826:Generated_Source\PSoC4/CapSense_Filter.c ****         x2 = x3;
1827:Generated_Source\PSoC4/CapSense_Filter.c ****     }
1828:Generated_Source\PSoC4/CapSense_Filter.c **** 
1829:Generated_Source\PSoC4/CapSense_Filter.c ****     return ((x1 > x2) ? x1 : x2);
1830:Generated_Source\PSoC4/CapSense_Filter.c **** }
1831:Generated_Source\PSoC4/CapSense_Filter.c **** #endif /*CapSense_POS_MEDIAN_FILTER_EN || CapSense_REGULAR_RC_MEDIAN_FILTER_EN || CapSense_PROX_RC_
1832:Generated_Source\PSoC4/CapSense_Filter.c **** 
ARM GAS  C:\Users\dell\AppData\Local\Temp\ccWEiAI7.s 			page 49


1833:Generated_Source\PSoC4/CapSense_Filter.c **** 
1834:Generated_Source\PSoC4/CapSense_Filter.c **** /*******************************************************************************
1835:Generated_Source\PSoC4/CapSense_Filter.c **** * Function Name: CapSense_FtIIR1stOrder
1836:Generated_Source\PSoC4/CapSense_Filter.c **** ****************************************************************************//**
1837:Generated_Source\PSoC4/CapSense_Filter.c **** *
1838:Generated_Source\PSoC4/CapSense_Filter.c **** * \brief
1839:Generated_Source\PSoC4/CapSense_Filter.c **** *  Return the filtered data by the IIR 1-st order algorithm
1840:Generated_Source\PSoC4/CapSense_Filter.c **** *
1841:Generated_Source\PSoC4/CapSense_Filter.c **** * \details
1842:Generated_Source\PSoC4/CapSense_Filter.c **** *  Return the filtered data by the IIR 1-st order algorithm
1843:Generated_Source\PSoC4/CapSense_Filter.c **** *
1844:Generated_Source\PSoC4/CapSense_Filter.c **** * \param input
1845:Generated_Source\PSoC4/CapSense_Filter.c **** *  The data to be filtered.
1846:Generated_Source\PSoC4/CapSense_Filter.c **** *
1847:Generated_Source\PSoC4/CapSense_Filter.c **** * \param prevOutput
1848:Generated_Source\PSoC4/CapSense_Filter.c **** *  The previous filtered data.
1849:Generated_Source\PSoC4/CapSense_Filter.c **** *
1850:Generated_Source\PSoC4/CapSense_Filter.c **** * \param n
1851:Generated_Source\PSoC4/CapSense_Filter.c **** *  The IIR filter coefficient (n/256).
1852:Generated_Source\PSoC4/CapSense_Filter.c **** *
1853:Generated_Source\PSoC4/CapSense_Filter.c **** * \param shift
1854:Generated_Source\PSoC4/CapSense_Filter.c **** *  The parameter is used to shift input data to have free LSB
1855:Generated_Source\PSoC4/CapSense_Filter.c **** *  bits for a fraction storage of the filter output calculation.
1856:Generated_Source\PSoC4/CapSense_Filter.c **** *
1857:Generated_Source\PSoC4/CapSense_Filter.c **** * \return
1858:Generated_Source\PSoC4/CapSense_Filter.c **** *  Returns the filtered data.
1859:Generated_Source\PSoC4/CapSense_Filter.c **** *
1860:Generated_Source\PSoC4/CapSense_Filter.c **** *******************************************************************************/
1861:Generated_Source\PSoC4/CapSense_Filter.c **** uint32 CapSense_FtIIR1stOrder(uint32 input, uint32 prevOutput, uint32 n, uint32 shift)
1862:Generated_Source\PSoC4/CapSense_Filter.c **** {
 827              		.loc 1 1862 0
 828              		.cfi_startproc
 829              		@ args = 0, pretend = 0, frame = 0
 830              		@ frame_needed = 0, uses_anonymous_args = 0
 831              		@ link register save eliminated.
 832              	.LVL107:
1863:Generated_Source\PSoC4/CapSense_Filter.c ****     uint32 filteredOutput;
1864:Generated_Source\PSoC4/CapSense_Filter.c **** 
1865:Generated_Source\PSoC4/CapSense_Filter.c ****     /*
1866:Generated_Source\PSoC4/CapSense_Filter.c ****     * n - IIR filter coefficient (n/256)
1867:Generated_Source\PSoC4/CapSense_Filter.c ****     * shift - Used to shift input data to have free LSB bits
1868:Generated_Source\PSoC4/CapSense_Filter.c ****     * for fraction storage of filter output calculation
1869:Generated_Source\PSoC4/CapSense_Filter.c ****     */
1870:Generated_Source\PSoC4/CapSense_Filter.c ****     filteredOutput = ((n * (input << shift)) + ((CapSense_IIR_COEFFICIENT_K - n) * prevOutput)) >> 
 833              		.loc 1 1870 0
 834 0000 9840     		lsls	r0, r0, r3
 835              	.LVL108:
 836 0002 5043     		muls	r0, r2
 837 0004 8023     		movs	r3, #128
 838              	.LVL109:
 839 0006 5B00     		lsls	r3, r3, #1
 840 0008 9A1A     		subs	r2, r3, r2
 841              	.LVL110:
 842 000a 5143     		muls	r1, r2
 843              	.LVL111:
 844 000c 4018     		adds	r0, r0, r1
 845 000e 000A     		lsrs	r0, r0, #8
ARM GAS  C:\Users\dell\AppData\Local\Temp\ccWEiAI7.s 			page 50


 846              	.LVL112:
1871:Generated_Source\PSoC4/CapSense_Filter.c **** 
1872:Generated_Source\PSoC4/CapSense_Filter.c ****     /* Shift operation of output will be done in upper level API if needed */
1873:Generated_Source\PSoC4/CapSense_Filter.c ****     return filteredOutput;
1874:Generated_Source\PSoC4/CapSense_Filter.c **** }
 847              		.loc 1 1874 0
 848              		@ sp needed
 849 0010 7047     		bx	lr
 850              		.cfi_endproc
 851              	.LFE19:
 852              		.size	CapSense_FtIIR1stOrder, .-CapSense_FtIIR1stOrder
 853 0012 C046     		.section	.text.CapSense_FtUpdateBaseline,"ax",%progbits
 854              		.align	2
 855              		.global	CapSense_FtUpdateBaseline
 856              		.code	16
 857              		.thumb_func
 858              		.type	CapSense_FtUpdateBaseline, %function
 859              	CapSense_FtUpdateBaseline:
 860              	.LFB5:
 259:Generated_Source\PSoC4/CapSense_Filter.c ****     uint32 sign;
 861              		.loc 1 259 0
 862              		.cfi_startproc
 863              		@ args = 0, pretend = 0, frame = 8
 864              		@ frame_needed = 0, uses_anonymous_args = 0
 865              	.LVL113:
 866 0000 F0B5     		push	{r4, r5, r6, r7, lr}
 867              		.cfi_def_cfa_offset 20
 868              		.cfi_offset 4, -20
 869              		.cfi_offset 5, -16
 870              		.cfi_offset 6, -12
 871              		.cfi_offset 7, -8
 872              		.cfi_offset 14, -4
 873 0002 4746     		mov	r7, r8
 874 0004 80B4     		push	{r7}
 875              		.cfi_def_cfa_offset 24
 876              		.cfi_offset 8, -24
 877 0006 82B0     		sub	sp, sp, #8
 878              		.cfi_def_cfa_offset 32
 879 0008 0700     		movs	r7, r0
 880 000a 0E00     		movs	r6, r1
 881 000c 0192     		str	r2, [sp, #4]
 882              	.LVL114:
 271:Generated_Source\PSoC4/CapSense_Filter.c ****     {
 883              		.loc 1 271 0
 884 000e 0123     		movs	r3, #1
 885 0010 3EE0     		b	.L50
 886              	.LVL115:
 887              	.L57:
 283:Generated_Source\PSoC4/CapSense_Filter.c ****         {
 888              		.loc 1 283 0
 889 0012 6300     		lsls	r3, r4, #1
 890 0014 985B     		ldrh	r0, [r3, r6]
 891 0016 F318     		adds	r3, r6, r3
 892 0018 5988     		ldrh	r1, [r3, #2]
 893 001a 8842     		cmp	r0, r1
 894 001c 05D3     		bcc	.L51
 285:Generated_Source\PSoC4/CapSense_Filter.c ****             sign = 1u;
ARM GAS  C:\Users\dell\AppData\Local\Temp\ccWEiAI7.s 			page 51


 895              		.loc 1 285 0
 896 001e 431A     		subs	r3, r0, r1
 897              	.LVL116:
 287:Generated_Source\PSoC4/CapSense_Filter.c ****         }
 898              		.loc 1 287 0
 899 0020 3219     		adds	r2, r6, r4
 900 0022 0025     		movs	r5, #0
 901 0024 1572     		strb	r5, [r2, #8]
 286:Generated_Source\PSoC4/CapSense_Filter.c ****             ptrSensor->negBslnRstCnt[freqChannel] = 0u;
 902              		.loc 1 286 0
 903 0026 0122     		movs	r2, #1
 904 0028 01E0     		b	.L52
 905              	.LVL117:
 906              	.L51:
 291:Generated_Source\PSoC4/CapSense_Filter.c ****             sign = 0u;
 907              		.loc 1 291 0
 908 002a 0B1A     		subs	r3, r1, r0
 909              	.LVL118:
 292:Generated_Source\PSoC4/CapSense_Filter.c ****         }
 910              		.loc 1 292 0
 911 002c 0022     		movs	r2, #0
 912              	.LVL119:
 913              	.L52:
 296:Generated_Source\PSoC4/CapSense_Filter.c ****         {
 914              		.loc 1 296 0
 915 002e 002A     		cmp	r2, #0
 916 0030 11D1     		bne	.L53
 296:Generated_Source\PSoC4/CapSense_Filter.c ****         {
 917              		.loc 1 296 0 is_stmt 0 discriminator 1
 918 0032 7D79     		ldrb	r5, [r7, #5]
 919 0034 AB42     		cmp	r3, r5
 920 0036 0ED9     		bls	.L53
 298:Generated_Source\PSoC4/CapSense_Filter.c ****             {
 921              		.loc 1 298 0 is_stmt 1
 922 0038 3319     		adds	r3, r6, r4
 923              	.LVL120:
 924 003a 1B7A     		ldrb	r3, [r3, #8]
 925 003c 3A7A     		ldrb	r2, [r7, #8]
 926              	.LVL121:
 927 003e 9342     		cmp	r3, r2
 928 0040 05D3     		bcc	.L54
 300:Generated_Source\PSoC4/CapSense_Filter.c ****             }
 929              		.loc 1 300 0
 930 0042 2200     		movs	r2, r4
 931 0044 0199     		ldr	r1, [sp, #4]
 932 0046 3000     		movs	r0, r6
 933 0048 FFF7FEFF 		bl	CapSense_FtInitializeBaselineChannel
 934              	.LVL122:
 935 004c 1FE0     		b	.L55
 936              	.L54:
 304:Generated_Source\PSoC4/CapSense_Filter.c ****             }
 937              		.loc 1 304 0
 938 004e 3219     		adds	r2, r6, r4
 939 0050 0133     		adds	r3, r3, #1
 940 0052 1372     		strb	r3, [r2, #8]
 941 0054 1BE0     		b	.L55
 942              	.LVL123:
ARM GAS  C:\Users\dell\AppData\Local\Temp\ccWEiAI7.s 			page 52


 943              	.L53:
 311:Generated_Source\PSoC4/CapSense_Filter.c ****                     ((difference < (uint32) ptrWidgetRam->nNoiseTh) && (sign == 0u)))
 944              		.loc 1 311 0
 945 0056 3D79     		ldrb	r5, [r7, #4]
 946 0058 AB42     		cmp	r3, r5
 947 005a 04D9     		bls	.L56
 312:Generated_Source\PSoC4/CapSense_Filter.c ****                 {
 948              		.loc 1 312 0 discriminator 1
 949 005c 7D79     		ldrb	r5, [r7, #5]
 311:Generated_Source\PSoC4/CapSense_Filter.c ****                     ((difference < (uint32) ptrWidgetRam->nNoiseTh) && (sign == 0u)))
 950              		.loc 1 311 0 discriminator 1
 951 005e AB42     		cmp	r3, r5
 952 0060 15D2     		bcs	.L55
 312:Generated_Source\PSoC4/CapSense_Filter.c ****                 {
 953              		.loc 1 312 0
 954 0062 002A     		cmp	r2, #0
 955 0064 13D1     		bne	.L55
 956              	.L56:
 318:Generated_Source\PSoC4/CapSense_Filter.c ****                 {
 957              		.loc 1 318 0
 958 0066 FF23     		movs	r3, #255
 959              	.LVL124:
 960 0068 019A     		ldr	r2, [sp, #4]
 961              	.LVL125:
 962 006a 1340     		ands	r3, r2
 963 006c 062B     		cmp	r3, #6
 964 006e 0ED0     		beq	.L55
 322:Generated_Source\PSoC4/CapSense_Filter.c ****                             history |= ptrSensor->bslnExt[freqChannel];
 965              		.loc 1 322 0
 966 0070 0902     		lsls	r1, r1, #8
 967              	.LVL126:
 323:Generated_Source\PSoC4/CapSense_Filter.c ****                         #else
 968              		.loc 1 323 0
 969 0072 3319     		adds	r3, r6, r4
 970 0074 9846     		mov	r8, r3
 971 0076 1B79     		ldrb	r3, [r3, #4]
 972 0078 1943     		orrs	r1, r3
 973              	.LVL127:
 334:Generated_Source\PSoC4/CapSense_Filter.c ****                                         (uint32)ptrSensor->raw[freqChannel],
 974              		.loc 1 334 0
 975 007a 0823     		movs	r3, #8
 976 007c 0122     		movs	r2, #1
 977 007e FFF7FEFF 		bl	CapSense_FtIIR1stOrder
 978              	.LVL128:
 340:Generated_Source\PSoC4/CapSense_Filter.c ****                             ptrSensor->bslnExt[freqChannel] = LO8(history);
 979              		.loc 1 340 0
 980 0082 020A     		lsrs	r2, r0, #8
 981 0084 6300     		lsls	r3, r4, #1
 982 0086 F318     		adds	r3, r6, r3
 983 0088 5A80     		strh	r2, [r3, #2]
 341:Generated_Source\PSoC4/CapSense_Filter.c ****                         #else
 984              		.loc 1 341 0
 985 008a 4346     		mov	r3, r8
 986 008c 1871     		strb	r0, [r3, #4]
 987              	.LVL129:
 988              	.L55:
 989 008e 2300     		movs	r3, r4
ARM GAS  C:\Users\dell\AppData\Local\Temp\ccWEiAI7.s 			page 53


 990              	.LVL130:
 991              	.L50:
 271:Generated_Source\PSoC4/CapSense_Filter.c ****     {
 992              		.loc 1 271 0 discriminator 1
 993 0090 5C1E     		subs	r4, r3, #1
 994              	.LVL131:
 995 0092 002B     		cmp	r3, #0
 996 0094 BDD1     		bne	.L57
 398:Generated_Source\PSoC4/CapSense_Filter.c **** 
 997              		.loc 1 398 0
 998 0096 0020     		movs	r0, #0
 999 0098 02B0     		add	sp, sp, #8
 1000              		@ sp needed
 1001              	.LVL132:
 1002              	.LVL133:
 1003              	.LVL134:
 1004 009a 04BC     		pop	{r2}
 1005 009c 9046     		mov	r8, r2
 1006 009e F0BD     		pop	{r4, r5, r6, r7, pc}
 1007              		.cfi_endproc
 1008              	.LFE5:
 1009              		.size	CapSense_FtUpdateBaseline, .-CapSense_FtUpdateBaseline
 1010              		.section	.text.CapSense_UpdateSensorBaseline,"ax",%progbits
 1011              		.align	2
 1012              		.global	CapSense_UpdateSensorBaseline
 1013              		.code	16
 1014              		.thumb_func
 1015              		.type	CapSense_UpdateSensorBaseline, %function
 1016              	CapSense_UpdateSensorBaseline:
 1017              	.LFB4:
 201:Generated_Source\PSoC4/CapSense_Filter.c ****     uint32 result = CYRET_SUCCESS;
 1018              		.loc 1 201 0
 1019              		.cfi_startproc
 1020              		@ args = 0, pretend = 0, frame = 0
 1021              		@ frame_needed = 0, uses_anonymous_args = 0
 1022              	.LVL135:
 1023 0000 70B5     		push	{r4, r5, r6, lr}
 1024              		.cfi_def_cfa_offset 16
 1025              		.cfi_offset 4, -16
 1026              		.cfi_offset 5, -12
 1027              		.cfi_offset 6, -8
 1028              		.cfi_offset 14, -4
 1029              	.LVL136:
 206:Generated_Source\PSoC4/CapSense_Filter.c **** 
 1030              		.loc 1 206 0
 1031 0002 094D     		ldr	r5, .L59
 1032 0004 C300     		lsls	r3, r0, #3
 1033 0006 1C1A     		subs	r4, r3, r0
 1034 0008 A200     		lsls	r2, r4, #2
 1035 000a AA18     		adds	r2, r5, r2
 1036 000c 5468     		ldr	r4, [r2, #4]
 1037              	.LVL137:
 209:Generated_Source\PSoC4/CapSense_Filter.c ****     ptrSensor = &ptrSensor[sensorId];
 1038              		.loc 1 209 0
 1039 000e 9668     		ldr	r6, [r2, #8]
 1040              	.LVL138:
 210:Generated_Source\PSoC4/CapSense_Filter.c ****     result = CapSense_FtUpdateBaseline(ptrWidgetRam, ptrSensor, (uint32)ptrWidget->wdgtType);
ARM GAS  C:\Users\dell\AppData\Local\Temp\ccWEiAI7.s 			page 54


 1041              		.loc 1 210 0
 1042 0010 8A00     		lsls	r2, r1, #2
 1043 0012 5218     		adds	r2, r2, r1
 1044 0014 5100     		lsls	r1, r2, #1
 1045              	.LVL139:
 1046 0016 7118     		adds	r1, r6, r1
 1047              	.LVL140:
 211:Generated_Source\PSoC4/CapSense_Filter.c **** 
 1048              		.loc 1 211 0
 1049 0018 1B1A     		subs	r3, r3, r0
 1050 001a 9A00     		lsls	r2, r3, #2
 1051 001c AA18     		adds	r2, r5, r2
 1052 001e 927E     		ldrb	r2, [r2, #26]
 1053 0020 2000     		movs	r0, r4
 1054              	.LVL141:
 1055 0022 FFF7FEFF 		bl	CapSense_FtUpdateBaseline
 1056              	.LVL142:
 222:Generated_Source\PSoC4/CapSense_Filter.c **** 
 1057              		.loc 1 222 0
 1058              		@ sp needed
 1059              	.LVL143:
 1060              	.LVL144:
 1061              	.LVL145:
 1062 0026 70BD     		pop	{r4, r5, r6, pc}
 1063              	.L60:
 1064              		.align	2
 1065              	.L59:
 1066 0028 00000000 		.word	CapSense_dsFlash
 1067              		.cfi_endproc
 1068              	.LFE4:
 1069              		.size	CapSense_UpdateSensorBaseline, .-CapSense_UpdateSensorBaseline
 1070              		.section	.text.CapSense_UpdateWidgetBaseline,"ax",%progbits
 1071              		.align	2
 1072              		.global	CapSense_UpdateWidgetBaseline
 1073              		.code	16
 1074              		.thumb_func
 1075              		.type	CapSense_UpdateWidgetBaseline, %function
 1076              	CapSense_UpdateWidgetBaseline:
 1077              	.LFB3:
 144:Generated_Source\PSoC4/CapSense_Filter.c ****     uint32 sensorId;
 1078              		.loc 1 144 0
 1079              		.cfi_startproc
 1080              		@ args = 0, pretend = 0, frame = 0
 1081              		@ frame_needed = 0, uses_anonymous_args = 0
 1082              	.LVL146:
 1083 0000 70B5     		push	{r4, r5, r6, lr}
 1084              		.cfi_def_cfa_offset 16
 1085              		.cfi_offset 4, -16
 1086              		.cfi_offset 5, -12
 1087              		.cfi_offset 6, -8
 1088              		.cfi_offset 14, -4
 1089 0002 0600     		movs	r6, r0
 1090              	.LVL147:
 152:Generated_Source\PSoC4/CapSense_Filter.c **** 
 1091              		.loc 1 152 0
 1092 0004 C200     		lsls	r2, r0, #3
 1093 0006 121A     		subs	r2, r2, r0
ARM GAS  C:\Users\dell\AppData\Local\Temp\ccWEiAI7.s 			page 55


 1094 0008 9300     		lsls	r3, r2, #2
 1095 000a 084A     		ldr	r2, .L64
 1096 000c D318     		adds	r3, r2, r3
 1097 000e 1B8B     		ldrh	r3, [r3, #24]
 1098              	.LVL148:
 149:Generated_Source\PSoC4/CapSense_Filter.c **** 
 1099              		.loc 1 149 0
 1100 0010 0025     		movs	r5, #0
 154:Generated_Source\PSoC4/CapSense_Filter.c ****     {
 1101              		.loc 1 154 0
 1102 0012 05E0     		b	.L62
 1103              	.LVL149:
 1104              	.L63:
 156:Generated_Source\PSoC4/CapSense_Filter.c ****     }
 1105              		.loc 1 156 0
 1106 0014 2100     		movs	r1, r4
 1107 0016 3000     		movs	r0, r6
 1108 0018 FFF7FEFF 		bl	CapSense_UpdateSensorBaseline
 1109              	.LVL150:
 1110 001c 0543     		orrs	r5, r0
 1111              	.LVL151:
 154:Generated_Source\PSoC4/CapSense_Filter.c ****     {
 1112              		.loc 1 154 0
 1113 001e 2300     		movs	r3, r4
 1114              	.LVL152:
 1115              	.L62:
 154:Generated_Source\PSoC4/CapSense_Filter.c ****     {
 1116              		.loc 1 154 0 is_stmt 0 discriminator 1
 1117 0020 5C1E     		subs	r4, r3, #1
 1118              	.LVL153:
 1119 0022 002B     		cmp	r3, #0
 1120 0024 F6D1     		bne	.L63
 160:Generated_Source\PSoC4/CapSense_Filter.c **** 
 1121              		.loc 1 160 0 is_stmt 1
 1122 0026 2800     		movs	r0, r5
 1123              		@ sp needed
 1124              	.LVL154:
 1125              	.LVL155:
 1126              	.LVL156:
 1127 0028 70BD     		pop	{r4, r5, r6, pc}
 1128              	.L65:
 1129 002a C046     		.align	2
 1130              	.L64:
 1131 002c 00000000 		.word	CapSense_dsFlash
 1132              		.cfi_endproc
 1133              	.LFE3:
 1134              		.size	CapSense_UpdateWidgetBaseline, .-CapSense_UpdateWidgetBaseline
 1135              		.section	.text.CapSense_UpdateAllBaselines,"ax",%progbits
 1136              		.align	2
 1137              		.global	CapSense_UpdateAllBaselines
 1138              		.code	16
 1139              		.thumb_func
 1140              		.type	CapSense_UpdateAllBaselines, %function
 1141              	CapSense_UpdateAllBaselines:
 1142              	.LFB2:
  98:Generated_Source\PSoC4/CapSense_Filter.c ****     uint32 widgetId;
 1143              		.loc 1 98 0
ARM GAS  C:\Users\dell\AppData\Local\Temp\ccWEiAI7.s 			page 56


 1144              		.cfi_startproc
 1145              		@ args = 0, pretend = 0, frame = 0
 1146              		@ frame_needed = 0, uses_anonymous_args = 0
 1147 0000 70B5     		push	{r4, r5, r6, lr}
 1148              		.cfi_def_cfa_offset 16
 1149              		.cfi_offset 4, -16
 1150              		.cfi_offset 5, -12
 1151              		.cfi_offset 6, -8
 1152              		.cfi_offset 14, -4
 1153              	.LVL157:
 100:Generated_Source\PSoC4/CapSense_Filter.c **** 
 1154              		.loc 1 100 0
 1155 0002 0025     		movs	r5, #0
 102:Generated_Source\PSoC4/CapSense_Filter.c ****     {
 1156              		.loc 1 102 0
 1157 0004 0423     		movs	r3, #4
 1158 0006 04E0     		b	.L67
 1159              	.LVL158:
 1160              	.L68:
 104:Generated_Source\PSoC4/CapSense_Filter.c ****     }
 1161              		.loc 1 104 0
 1162 0008 2000     		movs	r0, r4
 1163 000a FFF7FEFF 		bl	CapSense_UpdateWidgetBaseline
 1164              	.LVL159:
 1165 000e 0543     		orrs	r5, r0
 1166              	.LVL160:
 102:Generated_Source\PSoC4/CapSense_Filter.c ****     {
 1167              		.loc 1 102 0
 1168 0010 2300     		movs	r3, r4
 1169              	.LVL161:
 1170              	.L67:
 102:Generated_Source\PSoC4/CapSense_Filter.c ****     {
 1171              		.loc 1 102 0 is_stmt 0 discriminator 1
 1172 0012 5C1E     		subs	r4, r3, #1
 1173              	.LVL162:
 1174 0014 002B     		cmp	r3, #0
 1175 0016 F7D1     		bne	.L68
 108:Generated_Source\PSoC4/CapSense_Filter.c **** 
 1176              		.loc 1 108 0 is_stmt 1
 1177 0018 2800     		movs	r0, r5
 1178              		@ sp needed
 1179              	.LVL163:
 1180              	.LVL164:
 1181 001a 70BD     		pop	{r4, r5, r6, pc}
 1182              		.cfi_endproc
 1183              	.LFE2:
 1184              		.size	CapSense_UpdateAllBaselines, .-CapSense_UpdateAllBaselines
 1185              		.text
 1186              	.Letext0:
 1187              		.file 2 "Generated_Source\\PSoC4\\cytypes.h"
 1188              		.file 3 "Generated_Source\\PSoC4\\CapSense_Configuration.h"
 1189              		.file 4 "Generated_Source\\PSoC4\\CapSense_Structure.h"