ARM GAS  C:\Users\dell\AppData\Local\Temp\ccmzUbMt.s 			page 1


   1              		.syntax unified
   2              		.cpu cortex-m0plus
   3              		.fpu softvfp
   4              		.eabi_attribute 20, 1
   5              		.eabi_attribute 21, 1
   6              		.eabi_attribute 23, 3
   7              		.eabi_attribute 24, 1
   8              		.eabi_attribute 25, 1
   9              		.eabi_attribute 26, 1
  10              		.eabi_attribute 30, 1
  11              		.eabi_attribute 34, 0
  12              		.eabi_attribute 18, 4
  13              		.thumb
  14              		.syntax unified
  15              		.file	"sys.c"
  16              		.text
  17              	.Ltext0:
  18              		.cfi_sections	.debug_frame
  19              		.section	.text.enableTestInd,"ax",%progbits
  20              		.align	2
  21              		.code	16
  22              		.thumb_func
  23              		.type	enableTestInd, %function
  24              	enableTestInd:
  25              	.LFB36:
  26              		.file 1 "sys.c"
   1:sys.c         **** /* ========================================
   2:sys.c         ****  *
   3:sys.c         ****  * Copyright YOUR COMPANY, THE YEAR
   4:sys.c         ****  * All Rights Reserved
   5:sys.c         ****  * UNPUBLISHED, LICENSED SOFTWARE.
   6:sys.c         ****  *
   7:sys.c         ****  * CONFIDENTIAL AND PROPRIETARY INFORMATION
   8:sys.c         ****  * WHICH IS THE PROPERTY OF your company.
   9:sys.c         ****  *
  10:sys.c         ****  * ========================================
  11:sys.c         **** */
  12:sys.c         **** #include "sys.h"
  13:sys.c         **** #define IGNORE_ALL_LED 1
  14:sys.c         **** 
  15:sys.c         **** #define THOI_GIAN_TU_KHOA  (30000)   //30s
  16:sys.c         **** #define THOI_GIAN_CHO_NUOC (3*60000) // 3p
  17:sys.c         **** static struct ledStatus_t
  18:sys.c         **** {
  19:sys.c         ****     uint8_t ro;
  20:sys.c         ****     uint8_t cold;
  21:sys.c         ****     uint8_t hot;
  22:sys.c         ****     uint8_t lock;
  23:sys.c         **** } ledStt = {LED_RESET, LED_RESET, LED_RESET, LED_SET};
  24:sys.c         **** 
  25:sys.c         **** static uint8_t lockStatus = LOCK;
  26:sys.c         **** static bool dangLayNuoc = false;
  27:sys.c         **** static uint32_t thoiGianLayNuoc = 0;
  28:sys.c         **** static uint32_t thoiGianChoKhoaPhim = 0;
  29:sys.c         **** static bool autoLock = false;
  30:sys.c         **** 
  31:sys.c         **** volatile bool enteringTestMode = false;
ARM GAS  C:\Users\dell\AppData\Local\Temp\ccmzUbMt.s 			page 2


  32:sys.c         **** 
  33:sys.c         **** static void Beep(void)
  34:sys.c         **** {
  35:sys.c         ****     BUZZ_ON;
  36:sys.c         ****     CyDelay(100);
  37:sys.c         ****     BUZZ_OFF;
  38:sys.c         **** }
  39:sys.c         **** 
  40:sys.c         **** static bool ledLOCKIsBlink = false;
  41:sys.c         **** static bool lockBlinkOnOff = false;
  42:sys.c         **** static uint32_t ledLOCKBinkTime = 0;
  43:sys.c         **** static void ledLOCKBlinkProcess(void)
  44:sys.c         **** {
  45:sys.c         ****     if(ledLOCKIsBlink && elapstime(g_SysTime, ledLOCKBinkTime) > 1000)
  46:sys.c         ****     {
  47:sys.c         ****         if(lockBlinkOnOff == false) { LED_LOCK_ON; lockBlinkOnOff = true; }     
  48:sys.c         ****         else { LED_LOCK_OFF; lockBlinkOnOff = false; }            
  49:sys.c         ****         ledLOCKBinkTime = g_SysTime;
  50:sys.c         ****     }
  51:sys.c         **** }
  52:sys.c         **** 
  53:sys.c         **** static void enableTestInd(void)
  54:sys.c         **** {
  27              		.loc 1 54 0
  28              		.cfi_startproc
  29              		@ args = 0, pretend = 0, frame = 0
  30              		@ frame_needed = 0, uses_anonymous_args = 0
  31              		@ link register save eliminated.
  55:sys.c         ****     ledLOCKIsBlink = true;
  32              		.loc 1 55 0
  33 0000 034B     		ldr	r3, .L2
  34 0002 0122     		movs	r2, #1
  35 0004 1A70     		strb	r2, [r3]
  56:sys.c         ****     ledLOCKBinkTime = g_SysTime;
  36              		.loc 1 56 0
  37 0006 034A     		ldr	r2, .L2+4
  38 0008 1268     		ldr	r2, [r2]
  39 000a 5A60     		str	r2, [r3, #4]
  57:sys.c         **** }
  40              		.loc 1 57 0
  41              		@ sp needed
  42 000c 7047     		bx	lr
  43              	.L3:
  44 000e C046     		.align	2
  45              	.L2:
  46 0010 00000000 		.word	.LANCHOR0
  47 0014 00000000 		.word	g_SysTime
  48              		.cfi_endproc
  49              	.LFE36:
  50              		.size	enableTestInd, .-enableTestInd
  51              		.section	.text.SwitchState,"ax",%progbits
  52              		.align	2
  53              		.code	16
  54              		.thumb_func
  55              		.type	SwitchState, %function
  56              	SwitchState:
  57              	.LFB46:
ARM GAS  C:\Users\dell\AppData\Local\Temp\ccmzUbMt.s 			page 3


  58:sys.c         **** 
  59:sys.c         **** static void disableTestInd(void)
  60:sys.c         **** {
  61:sys.c         ****     ledLOCKIsBlink = false;
  62:sys.c         ****     LED_LOCK_ON;
  63:sys.c         **** }
  64:sys.c         **** 
  65:sys.c         **** static bool ledHOTIsBlink = false;
  66:sys.c         **** static bool hotBlinkOnOff = false;
  67:sys.c         **** static uint32_t ledHOTBinkTime = 0;
  68:sys.c         **** static void ledHOTBlinkProcess(void)
  69:sys.c         **** {
  70:sys.c         ****     if(ledHOTIsBlink && elapstime(g_SysTime, ledHOTBinkTime) > 300)
  71:sys.c         ****     {
  72:sys.c         ****         if(hotBlinkOnOff == false) { LED_HOT_ON; hotBlinkOnOff = true; }     
  73:sys.c         ****         else { LED_HOT_OFF; hotBlinkOnOff = false; }            
  74:sys.c         ****         ledHOTBinkTime = g_SysTime;
  75:sys.c         ****     }
  76:sys.c         **** }
  77:sys.c         **** 
  78:sys.c         **** static bool ledROIsBlink = false;
  79:sys.c         **** static bool roBlinkOnOff = false;
  80:sys.c         **** static uint32_t ledROBinkTime = 0;
  81:sys.c         **** static void ledROBlinkProcess(void)
  82:sys.c         **** {
  83:sys.c         ****     if(ledROIsBlink && elapstime(g_SysTime, ledROBinkTime) > 300)
  84:sys.c         ****     {
  85:sys.c         ****         if(roBlinkOnOff == false) { LED_RO_ON; roBlinkOnOff = true; }
  86:sys.c         ****         else { LED_RO_OFF; roBlinkOnOff = false; }
  87:sys.c         ****         ledROBinkTime = g_SysTime;
  88:sys.c         ****     }
  89:sys.c         **** }
  90:sys.c         **** 
  91:sys.c         **** static bool ledCOLDIsBlink = false;
  92:sys.c         **** static bool coldBlinkOnOff = false;
  93:sys.c         **** static uint32_t ledCOLDBinkTime = 0;
  94:sys.c         **** static void ledCOLDBlinkProcess(void)
  95:sys.c         **** {
  96:sys.c         ****     if(ledCOLDIsBlink && elapstime(g_SysTime, ledCOLDBinkTime) > 300)
  97:sys.c         ****     {
  98:sys.c         ****         if(coldBlinkOnOff == false) { LED_COLD_ON; coldBlinkOnOff = true; }
  99:sys.c         ****         else { LED_COLD_OFF; coldBlinkOnOff = false;}              
 100:sys.c         ****         ledCOLDBinkTime = g_SysTime;
 101:sys.c         ****     }
 102:sys.c         **** }
 103:sys.c         **** 
 104:sys.c         **** static void ledBlinkProcess(void)
 105:sys.c         **** {
 106:sys.c         ****     ledLOCKBlinkProcess();
 107:sys.c         ****     ledHOTBlinkProcess();
 108:sys.c         ****     ledROBlinkProcess();
 109:sys.c         ****     ledCOLDBlinkProcess();
 110:sys.c         **** }
 111:sys.c         **** 
 112:sys.c         **** static void Lay_nuoc_RO(void)
 113:sys.c         **** {
 114:sys.c         ****     dangLayNuoc = true;
ARM GAS  C:\Users\dell\AppData\Local\Temp\ccmzUbMt.s 			page 4


 115:sys.c         ****     thoiGianLayNuoc = g_SysTime;
 116:sys.c         ****     VL1_ON;
 117:sys.c         ****     VL2_OFF;
 118:sys.c         ****     VL3_OFF;
 119:sys.c         ****     ledROIsBlink = true;
 120:sys.c         ****     ledROBinkTime = g_SysTime;
 121:sys.c         **** //    thoiGianChoKhoaPhim = g_SysTime;
 122:sys.c         **** }
 123:sys.c         **** 
 124:sys.c         **** static void Lay_nuoc_COLD(void)
 125:sys.c         **** {    
 126:sys.c         ****     dangLayNuoc = true;
 127:sys.c         ****     thoiGianLayNuoc = g_SysTime;
 128:sys.c         ****     VL1_OFF;
 129:sys.c         ****     VL2_ON;
 130:sys.c         ****     VL3_OFF;
 131:sys.c         ****     ledCOLDIsBlink = true;
 132:sys.c         ****     ledCOLDBinkTime = g_SysTime;
 133:sys.c         **** //    thoiGianChoKhoaPhim = g_SysTime;
 134:sys.c         **** }
 135:sys.c         **** 
 136:sys.c         **** static void Lay_nuoc_HOT(void)
 137:sys.c         **** {
 138:sys.c         ****     dangLayNuoc = true;
 139:sys.c         ****     thoiGianLayNuoc = g_SysTime;
 140:sys.c         ****     VL1_OFF;
 141:sys.c         ****     VL2_OFF;
 142:sys.c         ****     VL3_ON;
 143:sys.c         ****     ledHOTIsBlink = true;
 144:sys.c         ****     ledHOTBinkTime = g_SysTime;
 145:sys.c         ****     autoLock = false;
 146:sys.c         **** }
 147:sys.c         **** 
 148:sys.c         **** static void Lay_nuoc_All(void)
 149:sys.c         **** {
 150:sys.c         ****     dangLayNuoc = true;
 151:sys.c         ****     thoiGianLayNuoc = g_SysTime;
 152:sys.c         ****     VL1_ON;
 153:sys.c         ****     VL2_ON;
 154:sys.c         ****     VL3_ON;
 155:sys.c         ****     ledROIsBlink = true;
 156:sys.c         ****     ledCOLDIsBlink = true;
 157:sys.c         ****     ledHOTIsBlink = true;
 158:sys.c         ****     ledROBinkTime = g_SysTime;
 159:sys.c         ****     ledCOLDBinkTime = g_SysTime;
 160:sys.c         ****     ledHOTBinkTime = g_SysTime;
 161:sys.c         **** }
 162:sys.c         **** 
 163:sys.c         **** static void SwitchState(uint8_t status)
 164:sys.c         **** {
  58              		.loc 1 164 0
  59              		.cfi_startproc
  60              		@ args = 0, pretend = 0, frame = 0
  61              		@ frame_needed = 0, uses_anonymous_args = 0
  62              	.LVL0:
  63 0000 10B5     		push	{r4, lr}
  64              		.cfi_def_cfa_offset 8
ARM GAS  C:\Users\dell\AppData\Local\Temp\ccmzUbMt.s 			page 5


  65              		.cfi_offset 4, -8
  66              		.cfi_offset 14, -4
  67 0002 041E     		subs	r4, r0, #0
 165:sys.c         ****     if(status == LOCK)
  68              		.loc 1 165 0
  69 0004 06D1     		bne	.L5
 166:sys.c         ****     {
 167:sys.c         ****         LOG_INFO("switch to lock\n");
 168:sys.c         **** //        LED_RO_OFF;    
 169:sys.c         **** //        LED_COLD_OFF;
 170:sys.c         **** //        LED_HOT_OFF;
 171:sys.c         **** //#if (IGNORE_ALL_LED==0)
 172:sys.c         ****         LED_LOCK_ON;
  70              		.loc 1 172 0
  71 0006 0020     		movs	r0, #0
  72              	.LVL1:
  73 0008 FFF7FEFF 		bl	LED_LOCK_Write
  74              	.LVL2:
 173:sys.c         **** //#endif
 174:sys.c         **** //    if(MODE_TEST == false) LED_LOCK_OFF;
 175:sys.c         **** //        ledStt.ro = ledStt.cold = ledStt.hot = LED_RESET;
 176:sys.c         ****         ledStt.lock = LED_SET;      
 177:sys.c         ****         autoLock = false;
  75              		.loc 1 177 0
  76 000c 0022     		movs	r2, #0
  77 000e 084B     		ldr	r3, .L7
  78 0010 1A72     		strb	r2, [r3, #8]
  79 0012 0AE0     		b	.L6
  80              	.LVL3:
  81              	.L5:
 178:sys.c         ****     }
 179:sys.c         ****     else if(status == UNLOCK)
  82              		.loc 1 179 0
  83 0014 0128     		cmp	r0, #1
  84 0016 08D1     		bne	.L6
 180:sys.c         ****     {
 181:sys.c         **** //#if (IGNORE_ALL_LED==0)       
 182:sys.c         ****         LED_LOCK_OFF;
  85              		.loc 1 182 0
  86 0018 0120     		movs	r0, #1
  87              	.LVL4:
  88 001a FFF7FEFF 		bl	LED_LOCK_Write
  89              	.LVL5:
 183:sys.c         **** //#endif
 184:sys.c         **** //    if(MODE_TEST == true) LED_LOCK_OFF;
 185:sys.c         ****         ledStt.lock = LED_RESET;
 186:sys.c         ****         LOG_INFO("switch to unlock\n");
 187:sys.c         ****         thoiGianChoKhoaPhim = g_SysTime;
  90              		.loc 1 187 0
  91 001e 044B     		ldr	r3, .L7
  92 0020 044A     		ldr	r2, .L7+4
  93 0022 1268     		ldr	r2, [r2]
  94 0024 DA60     		str	r2, [r3, #12]
 188:sys.c         ****         autoLock = true;
  95              		.loc 1 188 0
  96 0026 0122     		movs	r2, #1
  97 0028 1A72     		strb	r2, [r3, #8]
ARM GAS  C:\Users\dell\AppData\Local\Temp\ccmzUbMt.s 			page 6


  98              	.L6:
 189:sys.c         ****     }
 190:sys.c         ****     lockStatus = status;
  99              		.loc 1 190 0
 100 002a 014B     		ldr	r3, .L7
 101 002c 1C74     		strb	r4, [r3, #16]
 191:sys.c         **** }
 102              		.loc 1 191 0
 103              		@ sp needed
 104 002e 10BD     		pop	{r4, pc}
 105              	.L8:
 106              		.align	2
 107              	.L7:
 108 0030 00000000 		.word	.LANCHOR0
 109 0034 00000000 		.word	g_SysTime
 110              		.cfi_endproc
 111              	.LFE46:
 112              		.size	SwitchState, .-SwitchState
 113              		.section	.text.disableTestInd,"ax",%progbits
 114              		.align	2
 115              		.code	16
 116              		.thumb_func
 117              		.type	disableTestInd, %function
 118              	disableTestInd:
 119              	.LFB37:
  60:sys.c         ****     ledLOCKIsBlink = false;
 120              		.loc 1 60 0
 121              		.cfi_startproc
 122              		@ args = 0, pretend = 0, frame = 0
 123              		@ frame_needed = 0, uses_anonymous_args = 0
 124 0000 10B5     		push	{r4, lr}
 125              		.cfi_def_cfa_offset 8
 126              		.cfi_offset 4, -8
 127              		.cfi_offset 14, -4
  61:sys.c         ****     LED_LOCK_ON;
 128              		.loc 1 61 0
 129 0002 0022     		movs	r2, #0
 130 0004 024B     		ldr	r3, .L10
 131 0006 1A70     		strb	r2, [r3]
  62:sys.c         **** }
 132              		.loc 1 62 0
 133 0008 0020     		movs	r0, #0
 134 000a FFF7FEFF 		bl	LED_LOCK_Write
 135              	.LVL6:
  63:sys.c         **** 
 136              		.loc 1 63 0
 137              		@ sp needed
 138 000e 10BD     		pop	{r4, pc}
 139              	.L11:
 140              		.align	2
 141              	.L10:
 142 0010 00000000 		.word	.LANCHOR0
 143              		.cfi_endproc
 144              	.LFE37:
 145              		.size	disableTestInd, .-disableTestInd
 146              		.section	.text.Dung_lay_nuoc,"ax",%progbits
 147              		.align	2
ARM GAS  C:\Users\dell\AppData\Local\Temp\ccmzUbMt.s 			page 7


 148              		.code	16
 149              		.thumb_func
 150              		.type	Dung_lay_nuoc, %function
 151              	Dung_lay_nuoc:
 152              	.LFB47:
 192:sys.c         **** 
 193:sys.c         **** static void Dung_lay_nuoc(void)
 194:sys.c         **** {
 153              		.loc 1 194 0
 154              		.cfi_startproc
 155              		@ args = 0, pretend = 0, frame = 0
 156              		@ frame_needed = 0, uses_anonymous_args = 0
 157 0000 10B5     		push	{r4, lr}
 158              		.cfi_def_cfa_offset 8
 159              		.cfi_offset 4, -8
 160              		.cfi_offset 14, -4
 195:sys.c         **** #if (IGNORE_ALL_LED==0)
 196:sys.c         ****     LED_RO_OFF;             
 197:sys.c         ****     LED_COLD_OFF;
 198:sys.c         ****     LED_HOT_OFF;
 199:sys.c         **** #endif
 200:sys.c         ****     if(MODE_TEST == true)
 161              		.loc 1 200 0
 162 0002 144B     		ldr	r3, .L15
 163 0004 1B78     		ldrb	r3, [r3]
 164 0006 002B     		cmp	r3, #0
 165 0008 08D0     		beq	.L13
 201:sys.c         ****     {
 202:sys.c         ****         LED_RO_OFF;             
 166              		.loc 1 202 0
 167 000a 0120     		movs	r0, #1
 168 000c FFF7FEFF 		bl	LED_RO_Write
 169              	.LVL7:
 203:sys.c         ****         LED_COLD_OFF;
 170              		.loc 1 203 0
 171 0010 0120     		movs	r0, #1
 172 0012 FFF7FEFF 		bl	LED_COLD_Write
 173              	.LVL8:
 204:sys.c         ****         LED_HOT_OFF;
 174              		.loc 1 204 0
 175 0016 0120     		movs	r0, #1
 176 0018 FFF7FEFF 		bl	LED_HOT_Write
 177              	.LVL9:
 178              	.L13:
 205:sys.c         ****     }
 206:sys.c         ****     dangLayNuoc = false;
 179              		.loc 1 206 0
 180 001c 0E4C     		ldr	r4, .L15+4
 181 001e 0023     		movs	r3, #0
 182 0020 6374     		strb	r3, [r4, #17]
 207:sys.c         ****     
 208:sys.c         ****     VL1_OFF;
 183              		.loc 1 208 0
 184 0022 0020     		movs	r0, #0
 185 0024 FFF7FEFF 		bl	VL1_Write
 186              	.LVL10:
 209:sys.c         ****     VL2_OFF;
ARM GAS  C:\Users\dell\AppData\Local\Temp\ccmzUbMt.s 			page 8


 187              		.loc 1 209 0
 188 0028 0020     		movs	r0, #0
 189 002a FFF7FEFF 		bl	VL2_Write
 190              	.LVL11:
 210:sys.c         ****     VL3_OFF;
 191              		.loc 1 210 0
 192 002e 0020     		movs	r0, #0
 193 0030 FFF7FEFF 		bl	VL3_Write
 194              	.LVL12:
 211:sys.c         ****     if(ledHOTIsBlink) 
 195              		.loc 1 211 0
 196 0034 A37C     		ldrb	r3, [r4, #18]
 197 0036 002B     		cmp	r3, #0
 198 0038 05D0     		beq	.L14
 212:sys.c         ****     {
 213:sys.c         ****         thoiGianChoKhoaPhim = g_SysTime;
 199              		.loc 1 213 0
 200 003a 074B     		ldr	r3, .L15+4
 201 003c 074A     		ldr	r2, .L15+8
 202 003e 1268     		ldr	r2, [r2]
 203 0040 DA60     		str	r2, [r3, #12]
 214:sys.c         ****         autoLock = true;
 204              		.loc 1 214 0
 205 0042 0122     		movs	r2, #1
 206 0044 1A72     		strb	r2, [r3, #8]
 207              	.L14:
 215:sys.c         ****     }
 216:sys.c         ****     ledHOTIsBlink = ledCOLDIsBlink = ledROIsBlink = false;
 208              		.loc 1 216 0
 209 0046 044B     		ldr	r3, .L15+4
 210 0048 0022     		movs	r2, #0
 211 004a DA74     		strb	r2, [r3, #19]
 212 004c 1A75     		strb	r2, [r3, #20]
 213 004e 9A74     		strb	r2, [r3, #18]
 217:sys.c         **** }
 214              		.loc 1 217 0
 215              		@ sp needed
 216 0050 10BD     		pop	{r4, pc}
 217              	.L16:
 218 0052 C046     		.align	2
 219              	.L15:
 220 0054 00000000 		.word	MODE_TEST
 221 0058 00000000 		.word	.LANCHOR0
 222 005c 00000000 		.word	g_SysTime
 223              		.cfi_endproc
 224              	.LFE47:
 225              		.size	Dung_lay_nuoc, .-Dung_lay_nuoc
 226              		.section	.text.Lay_nuoc_RO,"ax",%progbits
 227              		.align	2
 228              		.code	16
 229              		.thumb_func
 230              		.type	Lay_nuoc_RO, %function
 231              	Lay_nuoc_RO:
 232              	.LFB42:
 113:sys.c         ****     dangLayNuoc = true;
 233              		.loc 1 113 0
 234              		.cfi_startproc
ARM GAS  C:\Users\dell\AppData\Local\Temp\ccmzUbMt.s 			page 9


 235              		@ args = 0, pretend = 0, frame = 0
 236              		@ frame_needed = 0, uses_anonymous_args = 0
 237 0000 70B5     		push	{r4, r5, r6, lr}
 238              		.cfi_def_cfa_offset 16
 239              		.cfi_offset 4, -16
 240              		.cfi_offset 5, -12
 241              		.cfi_offset 6, -8
 242              		.cfi_offset 14, -4
 114:sys.c         ****     thoiGianLayNuoc = g_SysTime;
 243              		.loc 1 114 0
 244 0002 094C     		ldr	r4, .L18
 245 0004 0126     		movs	r6, #1
 246 0006 6674     		strb	r6, [r4, #17]
 115:sys.c         ****     VL1_ON;
 247              		.loc 1 115 0
 248 0008 084D     		ldr	r5, .L18+4
 249 000a 2B68     		ldr	r3, [r5]
 250 000c A361     		str	r3, [r4, #24]
 116:sys.c         ****     VL2_OFF;
 251              		.loc 1 116 0
 252 000e 0120     		movs	r0, #1
 253 0010 FFF7FEFF 		bl	VL1_Write
 254              	.LVL13:
 117:sys.c         ****     VL3_OFF;
 255              		.loc 1 117 0
 256 0014 0020     		movs	r0, #0
 257 0016 FFF7FEFF 		bl	VL2_Write
 258              	.LVL14:
 118:sys.c         ****     ledROIsBlink = true;
 259              		.loc 1 118 0
 260 001a 0020     		movs	r0, #0
 261 001c FFF7FEFF 		bl	VL3_Write
 262              	.LVL15:
 119:sys.c         ****     ledROBinkTime = g_SysTime;
 263              		.loc 1 119 0
 264 0020 E674     		strb	r6, [r4, #19]
 120:sys.c         **** //    thoiGianChoKhoaPhim = g_SysTime;
 265              		.loc 1 120 0
 266 0022 2B68     		ldr	r3, [r5]
 267 0024 E361     		str	r3, [r4, #28]
 122:sys.c         **** 
 268              		.loc 1 122 0
 269              		@ sp needed
 270 0026 70BD     		pop	{r4, r5, r6, pc}
 271              	.L19:
 272              		.align	2
 273              	.L18:
 274 0028 00000000 		.word	.LANCHOR0
 275 002c 00000000 		.word	g_SysTime
 276              		.cfi_endproc
 277              	.LFE42:
 278              		.size	Lay_nuoc_RO, .-Lay_nuoc_RO
 279              		.section	.text.Lay_nuoc_COLD,"ax",%progbits
 280              		.align	2
 281              		.code	16
 282              		.thumb_func
 283              		.type	Lay_nuoc_COLD, %function
ARM GAS  C:\Users\dell\AppData\Local\Temp\ccmzUbMt.s 			page 10


 284              	Lay_nuoc_COLD:
 285              	.LFB43:
 125:sys.c         ****     dangLayNuoc = true;
 286              		.loc 1 125 0
 287              		.cfi_startproc
 288              		@ args = 0, pretend = 0, frame = 0
 289              		@ frame_needed = 0, uses_anonymous_args = 0
 290 0000 70B5     		push	{r4, r5, r6, lr}
 291              		.cfi_def_cfa_offset 16
 292              		.cfi_offset 4, -16
 293              		.cfi_offset 5, -12
 294              		.cfi_offset 6, -8
 295              		.cfi_offset 14, -4
 126:sys.c         ****     thoiGianLayNuoc = g_SysTime;
 296              		.loc 1 126 0
 297 0002 094C     		ldr	r4, .L21
 298 0004 0126     		movs	r6, #1
 299 0006 6674     		strb	r6, [r4, #17]
 127:sys.c         ****     VL1_OFF;
 300              		.loc 1 127 0
 301 0008 084D     		ldr	r5, .L21+4
 302 000a 2B68     		ldr	r3, [r5]
 303 000c A361     		str	r3, [r4, #24]
 128:sys.c         ****     VL2_ON;
 304              		.loc 1 128 0
 305 000e 0020     		movs	r0, #0
 306 0010 FFF7FEFF 		bl	VL1_Write
 307              	.LVL16:
 129:sys.c         ****     VL3_OFF;
 308              		.loc 1 129 0
 309 0014 0120     		movs	r0, #1
 310 0016 FFF7FEFF 		bl	VL2_Write
 311              	.LVL17:
 130:sys.c         ****     ledCOLDIsBlink = true;
 312              		.loc 1 130 0
 313 001a 0020     		movs	r0, #0
 314 001c FFF7FEFF 		bl	VL3_Write
 315              	.LVL18:
 131:sys.c         ****     ledCOLDBinkTime = g_SysTime;
 316              		.loc 1 131 0
 317 0020 2675     		strb	r6, [r4, #20]
 132:sys.c         **** //    thoiGianChoKhoaPhim = g_SysTime;
 318              		.loc 1 132 0
 319 0022 2B68     		ldr	r3, [r5]
 320 0024 2362     		str	r3, [r4, #32]
 134:sys.c         **** 
 321              		.loc 1 134 0
 322              		@ sp needed
 323 0026 70BD     		pop	{r4, r5, r6, pc}
 324              	.L22:
 325              		.align	2
 326              	.L21:
 327 0028 00000000 		.word	.LANCHOR0
 328 002c 00000000 		.word	g_SysTime
 329              		.cfi_endproc
 330              	.LFE43:
 331              		.size	Lay_nuoc_COLD, .-Lay_nuoc_COLD
ARM GAS  C:\Users\dell\AppData\Local\Temp\ccmzUbMt.s 			page 11


 332              		.section	.text.Lay_nuoc_HOT,"ax",%progbits
 333              		.align	2
 334              		.code	16
 335              		.thumb_func
 336              		.type	Lay_nuoc_HOT, %function
 337              	Lay_nuoc_HOT:
 338              	.LFB44:
 137:sys.c         ****     dangLayNuoc = true;
 339              		.loc 1 137 0
 340              		.cfi_startproc
 341              		@ args = 0, pretend = 0, frame = 0
 342              		@ frame_needed = 0, uses_anonymous_args = 0
 343 0000 70B5     		push	{r4, r5, r6, lr}
 344              		.cfi_def_cfa_offset 16
 345              		.cfi_offset 4, -16
 346              		.cfi_offset 5, -12
 347              		.cfi_offset 6, -8
 348              		.cfi_offset 14, -4
 138:sys.c         ****     thoiGianLayNuoc = g_SysTime;
 349              		.loc 1 138 0
 350 0002 0A4C     		ldr	r4, .L24
 351 0004 0126     		movs	r6, #1
 352 0006 6674     		strb	r6, [r4, #17]
 139:sys.c         ****     VL1_OFF;
 353              		.loc 1 139 0
 354 0008 094D     		ldr	r5, .L24+4
 355 000a 2B68     		ldr	r3, [r5]
 356 000c A361     		str	r3, [r4, #24]
 140:sys.c         ****     VL2_OFF;
 357              		.loc 1 140 0
 358 000e 0020     		movs	r0, #0
 359 0010 FFF7FEFF 		bl	VL1_Write
 360              	.LVL19:
 141:sys.c         ****     VL3_ON;
 361              		.loc 1 141 0
 362 0014 0020     		movs	r0, #0
 363 0016 FFF7FEFF 		bl	VL2_Write
 364              	.LVL20:
 142:sys.c         ****     ledHOTIsBlink = true;
 365              		.loc 1 142 0
 366 001a 0120     		movs	r0, #1
 367 001c FFF7FEFF 		bl	VL3_Write
 368              	.LVL21:
 143:sys.c         ****     ledHOTBinkTime = g_SysTime;
 369              		.loc 1 143 0
 370 0020 A674     		strb	r6, [r4, #18]
 144:sys.c         ****     autoLock = false;
 371              		.loc 1 144 0
 372 0022 2B68     		ldr	r3, [r5]
 373 0024 6362     		str	r3, [r4, #36]
 145:sys.c         **** }
 374              		.loc 1 145 0
 375 0026 0023     		movs	r3, #0
 376 0028 2372     		strb	r3, [r4, #8]
 146:sys.c         **** 
 377              		.loc 1 146 0
 378              		@ sp needed
ARM GAS  C:\Users\dell\AppData\Local\Temp\ccmzUbMt.s 			page 12


 379 002a 70BD     		pop	{r4, r5, r6, pc}
 380              	.L25:
 381              		.align	2
 382              	.L24:
 383 002c 00000000 		.word	.LANCHOR0
 384 0030 00000000 		.word	g_SysTime
 385              		.cfi_endproc
 386              	.LFE44:
 387              		.size	Lay_nuoc_HOT, .-Lay_nuoc_HOT
 388              		.section	.text.Lay_nuoc_All,"ax",%progbits
 389              		.align	2
 390              		.code	16
 391              		.thumb_func
 392              		.type	Lay_nuoc_All, %function
 393              	Lay_nuoc_All:
 394              	.LFB45:
 149:sys.c         ****     dangLayNuoc = true;
 395              		.loc 1 149 0
 396              		.cfi_startproc
 397              		@ args = 0, pretend = 0, frame = 0
 398              		@ frame_needed = 0, uses_anonymous_args = 0
 399 0000 70B5     		push	{r4, r5, r6, lr}
 400              		.cfi_def_cfa_offset 16
 401              		.cfi_offset 4, -16
 402              		.cfi_offset 5, -12
 403              		.cfi_offset 6, -8
 404              		.cfi_offset 14, -4
 150:sys.c         ****     thoiGianLayNuoc = g_SysTime;
 405              		.loc 1 150 0
 406 0002 0B4C     		ldr	r4, .L27
 407 0004 0125     		movs	r5, #1
 408 0006 6574     		strb	r5, [r4, #17]
 151:sys.c         ****     VL1_ON;
 409              		.loc 1 151 0
 410 0008 0A4E     		ldr	r6, .L27+4
 411 000a 3368     		ldr	r3, [r6]
 412 000c A361     		str	r3, [r4, #24]
 152:sys.c         ****     VL2_ON;
 413              		.loc 1 152 0
 414 000e 0120     		movs	r0, #1
 415 0010 FFF7FEFF 		bl	VL1_Write
 416              	.LVL22:
 153:sys.c         ****     VL3_ON;
 417              		.loc 1 153 0
 418 0014 0120     		movs	r0, #1
 419 0016 FFF7FEFF 		bl	VL2_Write
 420              	.LVL23:
 154:sys.c         ****     ledROIsBlink = true;
 421              		.loc 1 154 0
 422 001a 0120     		movs	r0, #1
 423 001c FFF7FEFF 		bl	VL3_Write
 424              	.LVL24:
 155:sys.c         ****     ledCOLDIsBlink = true;
 425              		.loc 1 155 0
 426 0020 E574     		strb	r5, [r4, #19]
 156:sys.c         ****     ledHOTIsBlink = true;
 427              		.loc 1 156 0
ARM GAS  C:\Users\dell\AppData\Local\Temp\ccmzUbMt.s 			page 13


 428 0022 2575     		strb	r5, [r4, #20]
 157:sys.c         ****     ledROBinkTime = g_SysTime;
 429              		.loc 1 157 0
 430 0024 A574     		strb	r5, [r4, #18]
 158:sys.c         ****     ledCOLDBinkTime = g_SysTime;
 431              		.loc 1 158 0
 432 0026 3368     		ldr	r3, [r6]
 433 0028 E361     		str	r3, [r4, #28]
 159:sys.c         ****     ledHOTBinkTime = g_SysTime;
 434              		.loc 1 159 0
 435 002a 2362     		str	r3, [r4, #32]
 160:sys.c         **** }
 436              		.loc 1 160 0
 437 002c 6362     		str	r3, [r4, #36]
 161:sys.c         **** 
 438              		.loc 1 161 0
 439              		@ sp needed
 440 002e 70BD     		pop	{r4, r5, r6, pc}
 441              	.L28:
 442              		.align	2
 443              	.L27:
 444 0030 00000000 		.word	.LANCHOR0
 445 0034 00000000 		.word	g_SysTime
 446              		.cfi_endproc
 447              	.LFE45:
 448              		.size	Lay_nuoc_All, .-Lay_nuoc_All
 449              		.section	.text.Beep,"ax",%progbits
 450              		.align	2
 451              		.code	16
 452              		.thumb_func
 453              		.type	Beep, %function
 454              	Beep:
 455              	.LFB34:
  34:sys.c         ****     BUZZ_ON;
 456              		.loc 1 34 0
 457              		.cfi_startproc
 458              		@ args = 0, pretend = 0, frame = 0
 459              		@ frame_needed = 0, uses_anonymous_args = 0
 460 0000 10B5     		push	{r4, lr}
 461              		.cfi_def_cfa_offset 8
 462              		.cfi_offset 4, -8
 463              		.cfi_offset 14, -4
  35:sys.c         ****     CyDelay(100);
 464              		.loc 1 35 0
 465 0002 0120     		movs	r0, #1
 466 0004 FFF7FEFF 		bl	Buzzer_Write
 467              	.LVL25:
  36:sys.c         ****     BUZZ_OFF;
 468              		.loc 1 36 0
 469 0008 6420     		movs	r0, #100
 470 000a FFF7FEFF 		bl	CyDelay
 471              	.LVL26:
  37:sys.c         **** }
 472              		.loc 1 37 0
 473 000e 0020     		movs	r0, #0
 474 0010 FFF7FEFF 		bl	Buzzer_Write
 475              	.LVL27:
ARM GAS  C:\Users\dell\AppData\Local\Temp\ccmzUbMt.s 			page 14


  38:sys.c         **** 
 476              		.loc 1 38 0
 477              		@ sp needed
 478 0014 10BD     		pop	{r4, pc}
 479              		.cfi_endproc
 480              	.LFE34:
 481              		.size	Beep, .-Beep
 482 0016 C046     		.section	.text.KiemTra_dungLayNuoc,"ax",%progbits
 483              		.align	2
 484              		.code	16
 485              		.thumb_func
 486              		.type	KiemTra_dungLayNuoc, %function
 487              	KiemTra_dungLayNuoc:
 488              	.LFB53:
 218:sys.c         **** 
 219:sys.c         **** void Sys_init(void)
 220:sys.c         **** {
 221:sys.c         **** //    PWM_Start();
 222:sys.c         **** //    PWM_WritePeriod(6000); // clock 12MHz -> PWM 2kHz
 223:sys.c         **** //    PWM_WriteCompare(1500); // duty 25%
 224:sys.c         ****     enteringTestMode = false;
 225:sys.c         ****     MODE_TEST = false;
 226:sys.c         ****     LED_LOCK_OFF;
 227:sys.c         ****     LED_RO_OFF;    
 228:sys.c         ****     LED_COLD_OFF;
 229:sys.c         ****     LED_HOT_OFF;
 230:sys.c         ****     SwitchState(LOCK);
 231:sys.c         ****     Dung_lay_nuoc();
 232:sys.c         **** }
 233:sys.c         **** 
 234:sys.c         **** enum
 235:sys.c         **** {
 236:sys.c         ****     ULOCK_ALL0 = 0,
 237:sys.c         ****     ULOCK_ALL1,
 238:sys.c         ****     ULOCK_ALL2,
 239:sys.c         **** } Ulock_State_t;
 240:sys.c         **** uint8_t unLockAll = ULOCK_ALL0;
 241:sys.c         **** void Sys_touchPress(uint8_t btnId)
 242:sys.c         **** {
 243:sys.c         **** //    if(lockStatus == LOCK)
 244:sys.c         **** //    {
 245:sys.c         **** //        if(btnId == BTN_LOCK || btnId == BTN_COLD || btnId == BTN_RO)
 246:sys.c         **** //        {
 247:sys.c         **** //            thoiGianChoKhoaPhim = g_SysTime;
 248:sys.c         **** //        }
 249:sys.c         **** //    }
 250:sys.c         **** //    else if(lockStatus == UNLOCK)
 251:sys.c         **** //    {
 252:sys.c         **** //        thoiGianChoKhoaPhim = g_SysTime;        
 253:sys.c         **** //    }
 254:sys.c         ****     
 255:sys.c         ****     if(dangLayNuoc) 
 256:sys.c         ****     {
 257:sys.c         ****         if(unLockAll == ULOCK_ALL2) unLockAll = ULOCK_ALL0;
 258:sys.c         ****         Dung_lay_nuoc();
 259:sys.c         ****         Beep();
 260:sys.c         ****     }
ARM GAS  C:\Users\dell\AppData\Local\Temp\ccmzUbMt.s 			page 15


 261:sys.c         ****     else
 262:sys.c         ****     {
 263:sys.c         ****         if(lockStatus == UNLOCK)
 264:sys.c         ****         {
 265:sys.c         ****             if(btnId == BTN_RO)
 266:sys.c         ****             {          
 267:sys.c         ****                 Beep();
 268:sys.c         ****                 Lay_nuoc_RO();
 269:sys.c         ****             }
 270:sys.c         ****             else if(btnId == BTN_COLD)
 271:sys.c         ****             {
 272:sys.c         ****                 Beep();
 273:sys.c         ****                 Lay_nuoc_COLD();
 274:sys.c         ****             }
 275:sys.c         ****             else if(btnId == BTN_HOT)
 276:sys.c         ****             {
 277:sys.c         ****                 Beep();
 278:sys.c         ****                 Lay_nuoc_HOT();                
 279:sys.c         ****             }
 280:sys.c         ****         }
 281:sys.c         **** //        else if(lockStatus == LOCK)
 282:sys.c         **** //        {
 283:sys.c         ****             if(btnId == BTN_LOCK)
 284:sys.c         ****             { 
 285:sys.c         ****                 if(unLockAll == ULOCK_ALL0) unLockAll = ULOCK_ALL1;               
 286:sys.c         ****             }
 287:sys.c         ****             if(btnId == BTN_RO)
 288:sys.c         ****             { 
 289:sys.c         ****                 if(unLockAll == ULOCK_ALL1)
 290:sys.c         ****                 {
 291:sys.c         ****                     unLockAll = ULOCK_ALL2;
 292:sys.c         ****                     Beep();
 293:sys.c         ****                     Lay_nuoc_All();
 294:sys.c         ****                 }
 295:sys.c         ****             }
 296:sys.c         **** 
 297:sys.c         **** //        }
 298:sys.c         ****     } 
 299:sys.c         **** }
 300:sys.c         **** 
 301:sys.c         **** void Sys_touchShortPress(uint8_t btnId)
 302:sys.c         **** {
 303:sys.c         ****     uint8_t id = btnId;
 304:sys.c         ****     if(unLockAll != ULOCK_ALL0) unLockAll = ULOCK_ALL0;
 305:sys.c         ****     if(enteringTestMode) 
 306:sys.c         ****     {
 307:sys.c         ****         if(btnId == BTN_LOCK) 
 308:sys.c         ****         {
 309:sys.c         ****             enteringTestMode = false;
 310:sys.c         ****             if(MODE_TEST == false){
 311:sys.c         ****                 MODE_TEST = true;
 312:sys.c         ****                 SwitchState(UNLOCK);
 313:sys.c         ****                 enableTestInd();
 314:sys.c         ****                 LOG_INFO("-->TestMode: running\r\n");
 315:sys.c         ****             } else{
 316:sys.c         ****                 MODE_TEST = false;
 317:sys.c         ****                 SwitchState(LOCK);
ARM GAS  C:\Users\dell\AppData\Local\Temp\ccmzUbMt.s 			page 16


 318:sys.c         ****                 disableTestInd();
 319:sys.c         ****                 LOG_INFO("-->TestMode: EXIT\r\n");
 320:sys.c         ****             }
 321:sys.c         ****         }
 322:sys.c         ****     }
 323:sys.c         **** }
 324:sys.c         **** 
 325:sys.c         **** void Sys_touchHold(uint8_t btnId)
 326:sys.c         **** {
 327:sys.c         ****     if(enteringTestMode == false)
 328:sys.c         ****     {
 329:sys.c         ****         if(btnId == BTN_LOCK && MODE_TEST == false) 
 330:sys.c         ****         {
 331:sys.c         ****             Beep();
 332:sys.c         ****             if(lockStatus == LOCK) SwitchState(UNLOCK);
 333:sys.c         ****             else SwitchState(LOCK);        
 334:sys.c         ****         }
 335:sys.c         ****         else if(btnId == BTN_HOT)
 336:sys.c         ****         {
 337:sys.c         ****             Beep();
 338:sys.c         ****             CyDelay(100);
 339:sys.c         ****             Beep();
 340:sys.c         ****             enteringTestMode = true;
 341:sys.c         ****             LOG_INFO("-->enteringTestMode\r\n");
 342:sys.c         ****         }
 343:sys.c         ****     }
 344:sys.c         **** }
 345:sys.c         **** 
 346:sys.c         **** void Sys_RoColdHold(uint8_t btnId)
 347:sys.c         **** {
 348:sys.c         ****     if(enteringTestMode == false)
 349:sys.c         ****     {
 350:sys.c         ****         if(lockStatus == LOCK)
 351:sys.c         ****         {
 352:sys.c         ****             
 353:sys.c         ****     //        SwitchState(UNLOCK);
 354:sys.c         ****             if(btnId == BTN_RO) 
 355:sys.c         ****             {
 356:sys.c         ****                 Beep();
 357:sys.c         ****                 Dung_lay_nuoc();
 358:sys.c         ****                 Lay_nuoc_RO();
 359:sys.c         ****             }
 360:sys.c         ****             else if(btnId == BTN_COLD) 
 361:sys.c         ****             {
 362:sys.c         ****                 Beep();
 363:sys.c         ****                 Dung_lay_nuoc();
 364:sys.c         ****                 Lay_nuoc_COLD();
 365:sys.c         ****             }
 366:sys.c         ****         }
 367:sys.c         ****     }
 368:sys.c         **** }
 369:sys.c         **** 
 370:sys.c         **** static void KiemTra_dungLayNuoc(void)
 371:sys.c         **** {
 489              		.loc 1 371 0
 490              		.cfi_startproc
 491              		@ args = 0, pretend = 0, frame = 0
ARM GAS  C:\Users\dell\AppData\Local\Temp\ccmzUbMt.s 			page 17


 492              		@ frame_needed = 0, uses_anonymous_args = 0
 493 0000 10B5     		push	{r4, lr}
 494              		.cfi_def_cfa_offset 8
 495              		.cfi_offset 4, -8
 496              		.cfi_offset 14, -4
 372:sys.c         ****     if(dangLayNuoc == true && (elapstime(g_SysTime, thoiGianLayNuoc) > THOI_GIAN_CHO_NUOC))
 497              		.loc 1 372 0
 498 0002 084B     		ldr	r3, .L32
 499 0004 5B7C     		ldrb	r3, [r3, #17]
 500 0006 002B     		cmp	r3, #0
 501 0008 0AD0     		beq	.L30
 502              		.loc 1 372 0 is_stmt 0 discriminator 1
 503 000a 064B     		ldr	r3, .L32
 504 000c 9969     		ldr	r1, [r3, #24]
 505 000e 064B     		ldr	r3, .L32+4
 506 0010 1868     		ldr	r0, [r3]
 507 0012 FFF7FEFF 		bl	elapstime
 508              	.LVL28:
 509 0016 054B     		ldr	r3, .L32+8
 510 0018 9842     		cmp	r0, r3
 511 001a 01D9     		bls	.L30
 373:sys.c         ****     {
 374:sys.c         ****         Dung_lay_nuoc();
 512              		.loc 1 374 0 is_stmt 1
 513 001c FFF7FEFF 		bl	Dung_lay_nuoc
 514              	.LVL29:
 515              	.L30:
 375:sys.c         ****     }
 376:sys.c         **** }
 516              		.loc 1 376 0
 517              		@ sp needed
 518 0020 10BD     		pop	{r4, pc}
 519              	.L33:
 520 0022 C046     		.align	2
 521              	.L32:
 522 0024 00000000 		.word	.LANCHOR0
 523 0028 00000000 		.word	g_SysTime
 524 002c 20BF0200 		.word	180000
 525              		.cfi_endproc
 526              	.LFE53:
 527              		.size	KiemTra_dungLayNuoc, .-KiemTra_dungLayNuoc
 528              		.section	.text.KiemTra_tuKhoaPhim,"ax",%progbits
 529              		.align	2
 530              		.code	16
 531              		.thumb_func
 532              		.type	KiemTra_tuKhoaPhim, %function
 533              	KiemTra_tuKhoaPhim:
 534              	.LFB54:
 377:sys.c         **** 
 378:sys.c         **** static void KiemTra_tuKhoaPhim(void)
 379:sys.c         **** {
 535              		.loc 1 379 0
 536              		.cfi_startproc
 537              		@ args = 0, pretend = 0, frame = 0
 538              		@ frame_needed = 0, uses_anonymous_args = 0
 539 0000 10B5     		push	{r4, lr}
 540              		.cfi_def_cfa_offset 8
ARM GAS  C:\Users\dell\AppData\Local\Temp\ccmzUbMt.s 			page 18


 541              		.cfi_offset 4, -8
 542              		.cfi_offset 14, -4
 380:sys.c         ****     if(lockStatus == UNLOCK)
 543              		.loc 1 380 0
 544 0002 0D4B     		ldr	r3, .L36
 545 0004 1B7C     		ldrb	r3, [r3, #16]
 546 0006 012B     		cmp	r3, #1
 547 0008 15D1     		bne	.L34
 381:sys.c         ****     {
 382:sys.c         ****         if(autoLock && elapstime(g_SysTime, thoiGianChoKhoaPhim) > THOI_GIAN_TU_KHOA)
 548              		.loc 1 382 0
 549 000a 0B4B     		ldr	r3, .L36
 550 000c 1B7A     		ldrb	r3, [r3, #8]
 551 000e 002B     		cmp	r3, #0
 552 0010 11D0     		beq	.L34
 553              		.loc 1 382 0 is_stmt 0 discriminator 1
 554 0012 094B     		ldr	r3, .L36
 555 0014 D968     		ldr	r1, [r3, #12]
 556 0016 094B     		ldr	r3, .L36+4
 557 0018 1868     		ldr	r0, [r3]
 558 001a FFF7FEFF 		bl	elapstime
 559              	.LVL30:
 560 001e 084B     		ldr	r3, .L36+8
 561 0020 9842     		cmp	r0, r3
 562 0022 08D9     		bls	.L34
 383:sys.c         ****         {
 384:sys.c         ****             SwitchState(LOCK);   
 563              		.loc 1 384 0 is_stmt 1
 564 0024 0020     		movs	r0, #0
 565 0026 FFF7FEFF 		bl	SwitchState
 566              	.LVL31:
 385:sys.c         ****             if(dangLayNuoc == false) Beep();
 567              		.loc 1 385 0
 568 002a 034B     		ldr	r3, .L36
 569 002c 5B7C     		ldrb	r3, [r3, #17]
 570 002e 002B     		cmp	r3, #0
 571 0030 01D1     		bne	.L34
 572              		.loc 1 385 0 is_stmt 0 discriminator 1
 573 0032 FFF7FEFF 		bl	Beep
 574              	.LVL32:
 575              	.L34:
 386:sys.c         ****         }
 387:sys.c         ****     }
 388:sys.c         **** }
 576              		.loc 1 388 0 is_stmt 1
 577              		@ sp needed
 578 0036 10BD     		pop	{r4, pc}
 579              	.L37:
 580              		.align	2
 581              	.L36:
 582 0038 00000000 		.word	.LANCHOR0
 583 003c 00000000 		.word	g_SysTime
 584 0040 30750000 		.word	30000
 585              		.cfi_endproc
 586              	.LFE54:
 587              		.size	KiemTra_tuKhoaPhim, .-KiemTra_tuKhoaPhim
 588              		.section	.text.ledLOCKBlinkProcess,"ax",%progbits
ARM GAS  C:\Users\dell\AppData\Local\Temp\ccmzUbMt.s 			page 19


 589              		.align	2
 590              		.code	16
 591              		.thumb_func
 592              		.type	ledLOCKBlinkProcess, %function
 593              	ledLOCKBlinkProcess:
 594              	.LFB35:
  44:sys.c         ****     if(ledLOCKIsBlink && elapstime(g_SysTime, ledLOCKBinkTime) > 1000)
 595              		.loc 1 44 0
 596              		.cfi_startproc
 597              		@ args = 0, pretend = 0, frame = 0
 598              		@ frame_needed = 0, uses_anonymous_args = 0
 599 0000 10B5     		push	{r4, lr}
 600              		.cfi_def_cfa_offset 8
 601              		.cfi_offset 4, -8
 602              		.cfi_offset 14, -4
  45:sys.c         ****     {
 603              		.loc 1 45 0
 604 0002 134B     		ldr	r3, .L42
 605 0004 1B78     		ldrb	r3, [r3]
 606 0006 002B     		cmp	r3, #0
 607 0008 21D0     		beq	.L38
  45:sys.c         ****     {
 608              		.loc 1 45 0 is_stmt 0 discriminator 1
 609 000a 114B     		ldr	r3, .L42
 610 000c 5968     		ldr	r1, [r3, #4]
 611 000e 114B     		ldr	r3, .L42+4
 612 0010 1868     		ldr	r0, [r3]
 613 0012 FFF7FEFF 		bl	elapstime
 614              	.LVL33:
 615 0016 FA23     		movs	r3, #250
 616 0018 9B00     		lsls	r3, r3, #2
 617 001a 9842     		cmp	r0, r3
 618 001c 17D9     		bls	.L38
  47:sys.c         ****         else { LED_LOCK_OFF; lockBlinkOnOff = false; }            
 619              		.loc 1 47 0 is_stmt 1
 620 001e 2823     		movs	r3, #40
 621 0020 0B4A     		ldr	r2, .L42
 622 0022 D35C     		ldrb	r3, [r2, r3]
 623 0024 002B     		cmp	r3, #0
 624 0026 07D1     		bne	.L40
  47:sys.c         ****         else { LED_LOCK_OFF; lockBlinkOnOff = false; }            
 625              		.loc 1 47 0 is_stmt 0 discriminator 1
 626 0028 0020     		movs	r0, #0
 627 002a FFF7FEFF 		bl	LED_LOCK_Write
 628              	.LVL34:
 629 002e 0121     		movs	r1, #1
 630 0030 2823     		movs	r3, #40
 631 0032 074A     		ldr	r2, .L42
 632 0034 D154     		strb	r1, [r2, r3]
 633 0036 06E0     		b	.L41
 634              	.L40:
  48:sys.c         ****         ledLOCKBinkTime = g_SysTime;
 635              		.loc 1 48 0 is_stmt 1
 636 0038 0120     		movs	r0, #1
 637 003a FFF7FEFF 		bl	LED_LOCK_Write
 638              	.LVL35:
 639 003e 0021     		movs	r1, #0
ARM GAS  C:\Users\dell\AppData\Local\Temp\ccmzUbMt.s 			page 20


 640 0040 2823     		movs	r3, #40
 641 0042 034A     		ldr	r2, .L42
 642 0044 D154     		strb	r1, [r2, r3]
 643              	.L41:
  49:sys.c         ****     }
 644              		.loc 1 49 0
 645 0046 034B     		ldr	r3, .L42+4
 646 0048 1A68     		ldr	r2, [r3]
 647 004a 014B     		ldr	r3, .L42
 648 004c 5A60     		str	r2, [r3, #4]
 649              	.L38:
  51:sys.c         **** 
 650              		.loc 1 51 0
 651              		@ sp needed
 652 004e 10BD     		pop	{r4, pc}
 653              	.L43:
 654              		.align	2
 655              	.L42:
 656 0050 00000000 		.word	.LANCHOR0
 657 0054 00000000 		.word	g_SysTime
 658              		.cfi_endproc
 659              	.LFE35:
 660              		.size	ledLOCKBlinkProcess, .-ledLOCKBlinkProcess
 661              		.section	.text.ledHOTBlinkProcess,"ax",%progbits
 662              		.align	2
 663              		.code	16
 664              		.thumb_func
 665              		.type	ledHOTBlinkProcess, %function
 666              	ledHOTBlinkProcess:
 667              	.LFB38:
  69:sys.c         ****     if(ledHOTIsBlink && elapstime(g_SysTime, ledHOTBinkTime) > 300)
 668              		.loc 1 69 0
 669              		.cfi_startproc
 670              		@ args = 0, pretend = 0, frame = 0
 671              		@ frame_needed = 0, uses_anonymous_args = 0
 672 0000 10B5     		push	{r4, lr}
 673              		.cfi_def_cfa_offset 8
 674              		.cfi_offset 4, -8
 675              		.cfi_offset 14, -4
  70:sys.c         ****     {
 676              		.loc 1 70 0
 677 0002 144B     		ldr	r3, .L48
 678 0004 9B7C     		ldrb	r3, [r3, #18]
 679 0006 002B     		cmp	r3, #0
 680 0008 22D0     		beq	.L44
  70:sys.c         ****     {
 681              		.loc 1 70 0 is_stmt 0 discriminator 1
 682 000a 124B     		ldr	r3, .L48
 683 000c 596A     		ldr	r1, [r3, #36]
 684 000e 124B     		ldr	r3, .L48+4
 685 0010 1868     		ldr	r0, [r3]
 686 0012 FFF7FEFF 		bl	elapstime
 687              	.LVL36:
 688 0016 9623     		movs	r3, #150
 689 0018 5B00     		lsls	r3, r3, #1
 690 001a 9842     		cmp	r0, r3
 691 001c 18D9     		bls	.L44
ARM GAS  C:\Users\dell\AppData\Local\Temp\ccmzUbMt.s 			page 21


  72:sys.c         ****         else { LED_HOT_OFF; hotBlinkOnOff = false; }            
 692              		.loc 1 72 0 is_stmt 1
 693 001e 043B     		subs	r3, r3, #4
 694 0020 FF3B     		subs	r3, r3, #255
 695 0022 0C4A     		ldr	r2, .L48
 696 0024 D35C     		ldrb	r3, [r2, r3]
 697 0026 002B     		cmp	r3, #0
 698 0028 07D1     		bne	.L46
  72:sys.c         ****         else { LED_HOT_OFF; hotBlinkOnOff = false; }            
 699              		.loc 1 72 0 is_stmt 0 discriminator 1
 700 002a 0020     		movs	r0, #0
 701 002c FFF7FEFF 		bl	LED_HOT_Write
 702              	.LVL37:
 703 0030 0121     		movs	r1, #1
 704 0032 2923     		movs	r3, #41
 705 0034 074A     		ldr	r2, .L48
 706 0036 D154     		strb	r1, [r2, r3]
 707 0038 06E0     		b	.L47
 708              	.L46:
  73:sys.c         ****         ledHOTBinkTime = g_SysTime;
 709              		.loc 1 73 0 is_stmt 1
 710 003a 0120     		movs	r0, #1
 711 003c FFF7FEFF 		bl	LED_HOT_Write
 712              	.LVL38:
 713 0040 0021     		movs	r1, #0
 714 0042 2923     		movs	r3, #41
 715 0044 034A     		ldr	r2, .L48
 716 0046 D154     		strb	r1, [r2, r3]
 717              	.L47:
  74:sys.c         ****     }
 718              		.loc 1 74 0
 719 0048 034B     		ldr	r3, .L48+4
 720 004a 1A68     		ldr	r2, [r3]
 721 004c 014B     		ldr	r3, .L48
 722 004e 5A62     		str	r2, [r3, #36]
 723              	.L44:
  76:sys.c         **** 
 724              		.loc 1 76 0
 725              		@ sp needed
 726 0050 10BD     		pop	{r4, pc}
 727              	.L49:
 728 0052 C046     		.align	2
 729              	.L48:
 730 0054 00000000 		.word	.LANCHOR0
 731 0058 00000000 		.word	g_SysTime
 732              		.cfi_endproc
 733              	.LFE38:
 734              		.size	ledHOTBlinkProcess, .-ledHOTBlinkProcess
 735              		.section	.text.ledROBlinkProcess,"ax",%progbits
 736              		.align	2
 737              		.code	16
 738              		.thumb_func
 739              		.type	ledROBlinkProcess, %function
 740              	ledROBlinkProcess:
 741              	.LFB39:
  82:sys.c         ****     if(ledROIsBlink && elapstime(g_SysTime, ledROBinkTime) > 300)
 742              		.loc 1 82 0
ARM GAS  C:\Users\dell\AppData\Local\Temp\ccmzUbMt.s 			page 22


 743              		.cfi_startproc
 744              		@ args = 0, pretend = 0, frame = 0
 745              		@ frame_needed = 0, uses_anonymous_args = 0
 746 0000 10B5     		push	{r4, lr}
 747              		.cfi_def_cfa_offset 8
 748              		.cfi_offset 4, -8
 749              		.cfi_offset 14, -4
  83:sys.c         ****     {
 750              		.loc 1 83 0
 751 0002 144B     		ldr	r3, .L54
 752 0004 DB7C     		ldrb	r3, [r3, #19]
 753 0006 002B     		cmp	r3, #0
 754 0008 22D0     		beq	.L50
  83:sys.c         ****     {
 755              		.loc 1 83 0 is_stmt 0 discriminator 1
 756 000a 124B     		ldr	r3, .L54
 757 000c D969     		ldr	r1, [r3, #28]
 758 000e 124B     		ldr	r3, .L54+4
 759 0010 1868     		ldr	r0, [r3]
 760 0012 FFF7FEFF 		bl	elapstime
 761              	.LVL39:
 762 0016 9623     		movs	r3, #150
 763 0018 5B00     		lsls	r3, r3, #1
 764 001a 9842     		cmp	r0, r3
 765 001c 18D9     		bls	.L50
  85:sys.c         ****         else { LED_RO_OFF; roBlinkOnOff = false; }
 766              		.loc 1 85 0 is_stmt 1
 767 001e 033B     		subs	r3, r3, #3
 768 0020 FF3B     		subs	r3, r3, #255
 769 0022 0C4A     		ldr	r2, .L54
 770 0024 D35C     		ldrb	r3, [r2, r3]
 771 0026 002B     		cmp	r3, #0
 772 0028 07D1     		bne	.L52
  85:sys.c         ****         else { LED_RO_OFF; roBlinkOnOff = false; }
 773              		.loc 1 85 0 is_stmt 0 discriminator 1
 774 002a 0020     		movs	r0, #0
 775 002c FFF7FEFF 		bl	LED_RO_Write
 776              	.LVL40:
 777 0030 0121     		movs	r1, #1
 778 0032 2A23     		movs	r3, #42
 779 0034 074A     		ldr	r2, .L54
 780 0036 D154     		strb	r1, [r2, r3]
 781 0038 06E0     		b	.L53
 782              	.L52:
  86:sys.c         ****         ledROBinkTime = g_SysTime;
 783              		.loc 1 86 0 is_stmt 1
 784 003a 0120     		movs	r0, #1
 785 003c FFF7FEFF 		bl	LED_RO_Write
 786              	.LVL41:
 787 0040 0021     		movs	r1, #0
 788 0042 2A23     		movs	r3, #42
 789 0044 034A     		ldr	r2, .L54
 790 0046 D154     		strb	r1, [r2, r3]
 791              	.L53:
  87:sys.c         ****     }
 792              		.loc 1 87 0
 793 0048 034B     		ldr	r3, .L54+4
ARM GAS  C:\Users\dell\AppData\Local\Temp\ccmzUbMt.s 			page 23


 794 004a 1A68     		ldr	r2, [r3]
 795 004c 014B     		ldr	r3, .L54
 796 004e DA61     		str	r2, [r3, #28]
 797              	.L50:
  89:sys.c         **** 
 798              		.loc 1 89 0
 799              		@ sp needed
 800 0050 10BD     		pop	{r4, pc}
 801              	.L55:
 802 0052 C046     		.align	2
 803              	.L54:
 804 0054 00000000 		.word	.LANCHOR0
 805 0058 00000000 		.word	g_SysTime
 806              		.cfi_endproc
 807              	.LFE39:
 808              		.size	ledROBlinkProcess, .-ledROBlinkProcess
 809              		.section	.text.ledCOLDBlinkProcess,"ax",%progbits
 810              		.align	2
 811              		.code	16
 812              		.thumb_func
 813              		.type	ledCOLDBlinkProcess, %function
 814              	ledCOLDBlinkProcess:
 815              	.LFB40:
  95:sys.c         ****     if(ledCOLDIsBlink && elapstime(g_SysTime, ledCOLDBinkTime) > 300)
 816              		.loc 1 95 0
 817              		.cfi_startproc
 818              		@ args = 0, pretend = 0, frame = 0
 819              		@ frame_needed = 0, uses_anonymous_args = 0
 820 0000 10B5     		push	{r4, lr}
 821              		.cfi_def_cfa_offset 8
 822              		.cfi_offset 4, -8
 823              		.cfi_offset 14, -4
  96:sys.c         ****     {
 824              		.loc 1 96 0
 825 0002 144B     		ldr	r3, .L60
 826 0004 1B7D     		ldrb	r3, [r3, #20]
 827 0006 002B     		cmp	r3, #0
 828 0008 22D0     		beq	.L56
  96:sys.c         ****     {
 829              		.loc 1 96 0 is_stmt 0 discriminator 1
 830 000a 124B     		ldr	r3, .L60
 831 000c 196A     		ldr	r1, [r3, #32]
 832 000e 124B     		ldr	r3, .L60+4
 833 0010 1868     		ldr	r0, [r3]
 834 0012 FFF7FEFF 		bl	elapstime
 835              	.LVL42:
 836 0016 9623     		movs	r3, #150
 837 0018 5B00     		lsls	r3, r3, #1
 838 001a 9842     		cmp	r0, r3
 839 001c 18D9     		bls	.L56
  98:sys.c         ****         else { LED_COLD_OFF; coldBlinkOnOff = false;}              
 840              		.loc 1 98 0 is_stmt 1
 841 001e 023B     		subs	r3, r3, #2
 842 0020 FF3B     		subs	r3, r3, #255
 843 0022 0C4A     		ldr	r2, .L60
 844 0024 D35C     		ldrb	r3, [r2, r3]
 845 0026 002B     		cmp	r3, #0
ARM GAS  C:\Users\dell\AppData\Local\Temp\ccmzUbMt.s 			page 24


 846 0028 07D1     		bne	.L58
  98:sys.c         ****         else { LED_COLD_OFF; coldBlinkOnOff = false;}              
 847              		.loc 1 98 0 is_stmt 0 discriminator 1
 848 002a 0020     		movs	r0, #0
 849 002c FFF7FEFF 		bl	LED_COLD_Write
 850              	.LVL43:
 851 0030 0121     		movs	r1, #1
 852 0032 2B23     		movs	r3, #43
 853 0034 074A     		ldr	r2, .L60
 854 0036 D154     		strb	r1, [r2, r3]
 855 0038 06E0     		b	.L59
 856              	.L58:
  99:sys.c         ****         ledCOLDBinkTime = g_SysTime;
 857              		.loc 1 99 0 is_stmt 1
 858 003a 0120     		movs	r0, #1
 859 003c FFF7FEFF 		bl	LED_COLD_Write
 860              	.LVL44:
 861 0040 0021     		movs	r1, #0
 862 0042 2B23     		movs	r3, #43
 863 0044 034A     		ldr	r2, .L60
 864 0046 D154     		strb	r1, [r2, r3]
 865              	.L59:
 100:sys.c         ****     }
 866              		.loc 1 100 0
 867 0048 034B     		ldr	r3, .L60+4
 868 004a 1A68     		ldr	r2, [r3]
 869 004c 014B     		ldr	r3, .L60
 870 004e 1A62     		str	r2, [r3, #32]
 871              	.L56:
 102:sys.c         **** 
 872              		.loc 1 102 0
 873              		@ sp needed
 874 0050 10BD     		pop	{r4, pc}
 875              	.L61:
 876 0052 C046     		.align	2
 877              	.L60:
 878 0054 00000000 		.word	.LANCHOR0
 879 0058 00000000 		.word	g_SysTime
 880              		.cfi_endproc
 881              	.LFE40:
 882              		.size	ledCOLDBlinkProcess, .-ledCOLDBlinkProcess
 883              		.section	.text.ledBlinkProcess,"ax",%progbits
 884              		.align	2
 885              		.code	16
 886              		.thumb_func
 887              		.type	ledBlinkProcess, %function
 888              	ledBlinkProcess:
 889              	.LFB41:
 105:sys.c         ****     ledLOCKBlinkProcess();
 890              		.loc 1 105 0
 891              		.cfi_startproc
 892              		@ args = 0, pretend = 0, frame = 0
 893              		@ frame_needed = 0, uses_anonymous_args = 0
 894 0000 10B5     		push	{r4, lr}
 895              		.cfi_def_cfa_offset 8
 896              		.cfi_offset 4, -8
 897              		.cfi_offset 14, -4
ARM GAS  C:\Users\dell\AppData\Local\Temp\ccmzUbMt.s 			page 25


 106:sys.c         ****     ledHOTBlinkProcess();
 898              		.loc 1 106 0
 899 0002 FFF7FEFF 		bl	ledLOCKBlinkProcess
 900              	.LVL45:
 107:sys.c         ****     ledROBlinkProcess();
 901              		.loc 1 107 0
 902 0006 FFF7FEFF 		bl	ledHOTBlinkProcess
 903              	.LVL46:
 108:sys.c         ****     ledCOLDBlinkProcess();
 904              		.loc 1 108 0
 905 000a FFF7FEFF 		bl	ledROBlinkProcess
 906              	.LVL47:
 109:sys.c         **** }
 907              		.loc 1 109 0
 908 000e FFF7FEFF 		bl	ledCOLDBlinkProcess
 909              	.LVL48:
 110:sys.c         **** 
 910              		.loc 1 110 0
 911              		@ sp needed
 912 0012 10BD     		pop	{r4, pc}
 913              		.cfi_endproc
 914              	.LFE41:
 915              		.size	ledBlinkProcess, .-ledBlinkProcess
 916              		.section	.text.Sys_init,"ax",%progbits
 917              		.align	2
 918              		.global	Sys_init
 919              		.code	16
 920              		.thumb_func
 921              		.type	Sys_init, %function
 922              	Sys_init:
 923              	.LFB48:
 220:sys.c         **** //    PWM_Start();
 924              		.loc 1 220 0
 925              		.cfi_startproc
 926              		@ args = 0, pretend = 0, frame = 0
 927              		@ frame_needed = 0, uses_anonymous_args = 0
 928 0000 10B5     		push	{r4, lr}
 929              		.cfi_def_cfa_offset 8
 930              		.cfi_offset 4, -8
 931              		.cfi_offset 14, -4
 224:sys.c         ****     MODE_TEST = false;
 932              		.loc 1 224 0
 933 0002 0023     		movs	r3, #0
 934 0004 2C22     		movs	r2, #44
 935 0006 0B49     		ldr	r1, .L64
 936 0008 8B54     		strb	r3, [r1, r2]
 225:sys.c         ****     LED_LOCK_OFF;
 937              		.loc 1 225 0
 938 000a 0B4A     		ldr	r2, .L64+4
 939 000c 1370     		strb	r3, [r2]
 226:sys.c         ****     LED_RO_OFF;    
 940              		.loc 1 226 0
 941 000e 0120     		movs	r0, #1
 942 0010 FFF7FEFF 		bl	LED_LOCK_Write
 943              	.LVL49:
 227:sys.c         ****     LED_COLD_OFF;
 944              		.loc 1 227 0
ARM GAS  C:\Users\dell\AppData\Local\Temp\ccmzUbMt.s 			page 26


 945 0014 0120     		movs	r0, #1
 946 0016 FFF7FEFF 		bl	LED_RO_Write
 947              	.LVL50:
 228:sys.c         ****     LED_HOT_OFF;
 948              		.loc 1 228 0
 949 001a 0120     		movs	r0, #1
 950 001c FFF7FEFF 		bl	LED_COLD_Write
 951              	.LVL51:
 229:sys.c         ****     SwitchState(LOCK);
 952              		.loc 1 229 0
 953 0020 0120     		movs	r0, #1
 954 0022 FFF7FEFF 		bl	LED_HOT_Write
 955              	.LVL52:
 230:sys.c         ****     Dung_lay_nuoc();
 956              		.loc 1 230 0
 957 0026 0020     		movs	r0, #0
 958 0028 FFF7FEFF 		bl	SwitchState
 959              	.LVL53:
 231:sys.c         **** }
 960              		.loc 1 231 0
 961 002c FFF7FEFF 		bl	Dung_lay_nuoc
 962              	.LVL54:
 232:sys.c         **** 
 963              		.loc 1 232 0
 964              		@ sp needed
 965 0030 10BD     		pop	{r4, pc}
 966              	.L65:
 967 0032 C046     		.align	2
 968              	.L64:
 969 0034 00000000 		.word	.LANCHOR0
 970 0038 00000000 		.word	MODE_TEST
 971              		.cfi_endproc
 972              	.LFE48:
 973              		.size	Sys_init, .-Sys_init
 974              		.section	.text.Sys_touchPress,"ax",%progbits
 975              		.align	2
 976              		.global	Sys_touchPress
 977              		.code	16
 978              		.thumb_func
 979              		.type	Sys_touchPress, %function
 980              	Sys_touchPress:
 981              	.LFB49:
 242:sys.c         **** //    if(lockStatus == LOCK)
 982              		.loc 1 242 0
 983              		.cfi_startproc
 984              		@ args = 0, pretend = 0, frame = 0
 985              		@ frame_needed = 0, uses_anonymous_args = 0
 986              	.LVL55:
 987 0000 10B5     		push	{r4, lr}
 988              		.cfi_def_cfa_offset 8
 989              		.cfi_offset 4, -8
 990              		.cfi_offset 14, -4
 991 0002 0400     		movs	r4, r0
 255:sys.c         ****     {
 992              		.loc 1 255 0
 993 0004 204B     		ldr	r3, .L74
 994 0006 5B7C     		ldrb	r3, [r3, #17]
ARM GAS  C:\Users\dell\AppData\Local\Temp\ccmzUbMt.s 			page 27


 995 0008 002B     		cmp	r3, #0
 996 000a 0CD0     		beq	.L67
 257:sys.c         ****         Dung_lay_nuoc();
 997              		.loc 1 257 0
 998 000c 2D23     		movs	r3, #45
 999 000e 1E4A     		ldr	r2, .L74
 1000 0010 D35C     		ldrb	r3, [r2, r3]
 1001 0012 022B     		cmp	r3, #2
 1002 0014 02D1     		bne	.L68
 257:sys.c         ****         Dung_lay_nuoc();
 1003              		.loc 1 257 0 is_stmt 0 discriminator 1
 1004 0016 0021     		movs	r1, #0
 1005 0018 2B33     		adds	r3, r3, #43
 1006 001a D154     		strb	r1, [r2, r3]
 1007              	.L68:
 258:sys.c         ****         Beep();
 1008              		.loc 1 258 0 is_stmt 1
 1009 001c FFF7FEFF 		bl	Dung_lay_nuoc
 1010              	.LVL56:
 259:sys.c         ****     }
 1011              		.loc 1 259 0
 1012 0020 FFF7FEFF 		bl	Beep
 1013              	.LVL57:
 1014 0024 2FE0     		b	.L66
 1015              	.LVL58:
 1016              	.L67:
 263:sys.c         ****         {
 1017              		.loc 1 263 0
 1018 0026 184B     		ldr	r3, .L74
 1019 0028 1B7C     		ldrb	r3, [r3, #16]
 1020 002a 012B     		cmp	r3, #1
 1021 002c 13D1     		bne	.L70
 265:sys.c         ****             {          
 1022              		.loc 1 265 0
 1023 002e 0028     		cmp	r0, #0
 1024 0030 04D1     		bne	.L71
 267:sys.c         ****                 Lay_nuoc_RO();
 1025              		.loc 1 267 0
 1026 0032 FFF7FEFF 		bl	Beep
 1027              	.LVL59:
 268:sys.c         ****             }
 1028              		.loc 1 268 0
 1029 0036 FFF7FEFF 		bl	Lay_nuoc_RO
 1030              	.LVL60:
 1031 003a 0CE0     		b	.L70
 1032              	.LVL61:
 1033              	.L71:
 270:sys.c         ****             {
 1034              		.loc 1 270 0
 1035 003c 0128     		cmp	r0, #1
 1036 003e 04D1     		bne	.L72
 272:sys.c         ****                 Lay_nuoc_COLD();
 1037              		.loc 1 272 0
 1038 0040 FFF7FEFF 		bl	Beep
 1039              	.LVL62:
 273:sys.c         ****             }
 1040              		.loc 1 273 0
ARM GAS  C:\Users\dell\AppData\Local\Temp\ccmzUbMt.s 			page 28


 1041 0044 FFF7FEFF 		bl	Lay_nuoc_COLD
 1042              	.LVL63:
 1043 0048 05E0     		b	.L70
 1044              	.LVL64:
 1045              	.L72:
 275:sys.c         ****             {
 1046              		.loc 1 275 0
 1047 004a 0228     		cmp	r0, #2
 1048 004c 03D1     		bne	.L70
 277:sys.c         ****                 Lay_nuoc_HOT();                
 1049              		.loc 1 277 0
 1050 004e FFF7FEFF 		bl	Beep
 1051              	.LVL65:
 278:sys.c         ****             }
 1052              		.loc 1 278 0
 1053 0052 FFF7FEFF 		bl	Lay_nuoc_HOT
 1054              	.LVL66:
 1055              	.L70:
 283:sys.c         ****             { 
 1056              		.loc 1 283 0
 1057 0056 032C     		cmp	r4, #3
 1058 0058 07D1     		bne	.L73
 285:sys.c         ****             }
 1059              		.loc 1 285 0
 1060 005a 2D23     		movs	r3, #45
 1061 005c 0A4A     		ldr	r2, .L74
 1062 005e D35C     		ldrb	r3, [r2, r3]
 1063 0060 002B     		cmp	r3, #0
 1064 0062 02D1     		bne	.L73
 285:sys.c         ****             }
 1065              		.loc 1 285 0 is_stmt 0 discriminator 1
 1066 0064 0121     		movs	r1, #1
 1067 0066 2D33     		adds	r3, r3, #45
 1068 0068 D154     		strb	r1, [r2, r3]
 1069              	.L73:
 287:sys.c         ****             { 
 1070              		.loc 1 287 0 is_stmt 1
 1071 006a 002C     		cmp	r4, #0
 1072 006c 0BD1     		bne	.L66
 289:sys.c         ****                 {
 1073              		.loc 1 289 0
 1074 006e 2D23     		movs	r3, #45
 1075 0070 054A     		ldr	r2, .L74
 1076 0072 D35C     		ldrb	r3, [r2, r3]
 1077 0074 012B     		cmp	r3, #1
 1078 0076 06D1     		bne	.L66
 291:sys.c         ****                     Beep();
 1079              		.loc 1 291 0
 1080 0078 0221     		movs	r1, #2
 1081 007a 2C33     		adds	r3, r3, #44
 1082 007c D154     		strb	r1, [r2, r3]
 292:sys.c         ****                     Lay_nuoc_All();
 1083              		.loc 1 292 0
 1084 007e FFF7FEFF 		bl	Beep
 1085              	.LVL67:
 293:sys.c         ****                 }
 1086              		.loc 1 293 0
ARM GAS  C:\Users\dell\AppData\Local\Temp\ccmzUbMt.s 			page 29


 1087 0082 FFF7FEFF 		bl	Lay_nuoc_All
 1088              	.LVL68:
 1089              	.L66:
 299:sys.c         **** 
 1090              		.loc 1 299 0
 1091              		@ sp needed
 1092 0086 10BD     		pop	{r4, pc}
 1093              	.L75:
 1094              		.align	2
 1095              	.L74:
 1096 0088 00000000 		.word	.LANCHOR0
 1097              		.cfi_endproc
 1098              	.LFE49:
 1099              		.size	Sys_touchPress, .-Sys_touchPress
 1100              		.section	.text.Sys_touchShortPress,"ax",%progbits
 1101              		.align	2
 1102              		.global	Sys_touchShortPress
 1103              		.code	16
 1104              		.thumb_func
 1105              		.type	Sys_touchShortPress, %function
 1106              	Sys_touchShortPress:
 1107              	.LFB50:
 302:sys.c         ****     uint8_t id = btnId;
 1108              		.loc 1 302 0
 1109              		.cfi_startproc
 1110              		@ args = 0, pretend = 0, frame = 0
 1111              		@ frame_needed = 0, uses_anonymous_args = 0
 1112              	.LVL69:
 1113 0000 10B5     		push	{r4, lr}
 1114              		.cfi_def_cfa_offset 8
 1115              		.cfi_offset 4, -8
 1116              		.cfi_offset 14, -4
 1117              	.LVL70:
 304:sys.c         ****     if(enteringTestMode) 
 1118              		.loc 1 304 0
 1119 0002 2D23     		movs	r3, #45
 1120 0004 134A     		ldr	r2, .L80
 1121 0006 D35C     		ldrb	r3, [r2, r3]
 1122 0008 002B     		cmp	r3, #0
 1123 000a 02D0     		beq	.L77
 304:sys.c         ****     if(enteringTestMode) 
 1124              		.loc 1 304 0 is_stmt 0 discriminator 1
 1125 000c 0021     		movs	r1, #0
 1126 000e 2D23     		movs	r3, #45
 1127 0010 D154     		strb	r1, [r2, r3]
 1128              	.L77:
 305:sys.c         ****     {
 1129              		.loc 1 305 0 is_stmt 1
 1130 0012 2C23     		movs	r3, #44
 1131 0014 0F4A     		ldr	r2, .L80
 1132 0016 D35C     		ldrb	r3, [r2, r3]
 1133 0018 002B     		cmp	r3, #0
 1134 001a 19D0     		beq	.L76
 307:sys.c         ****         {
 1135              		.loc 1 307 0
 1136 001c 0328     		cmp	r0, #3
 1137 001e 17D1     		bne	.L76
ARM GAS  C:\Users\dell\AppData\Local\Temp\ccmzUbMt.s 			page 30


 309:sys.c         ****             if(MODE_TEST == false){
 1138              		.loc 1 309 0
 1139 0020 0021     		movs	r1, #0
 1140 0022 2C23     		movs	r3, #44
 1141 0024 D154     		strb	r1, [r2, r3]
 310:sys.c         ****                 MODE_TEST = true;
 1142              		.loc 1 310 0
 1143 0026 0C4B     		ldr	r3, .L80+4
 1144 0028 1B78     		ldrb	r3, [r3]
 1145 002a 002B     		cmp	r3, #0
 1146 002c 08D1     		bne	.L79
 311:sys.c         ****                 SwitchState(UNLOCK);
 1147              		.loc 1 311 0
 1148 002e 0122     		movs	r2, #1
 1149 0030 094B     		ldr	r3, .L80+4
 1150 0032 1A70     		strb	r2, [r3]
 312:sys.c         ****                 enableTestInd();
 1151              		.loc 1 312 0
 1152 0034 0238     		subs	r0, r0, #2
 1153              	.LVL71:
 1154 0036 FFF7FEFF 		bl	SwitchState
 1155              	.LVL72:
 313:sys.c         ****                 LOG_INFO("-->TestMode: running\r\n");
 1156              		.loc 1 313 0
 1157 003a FFF7FEFF 		bl	enableTestInd
 1158              	.LVL73:
 1159 003e 07E0     		b	.L76
 1160              	.LVL74:
 1161              	.L79:
 316:sys.c         ****                 SwitchState(LOCK);
 1162              		.loc 1 316 0
 1163 0040 0022     		movs	r2, #0
 1164 0042 054B     		ldr	r3, .L80+4
 1165 0044 1A70     		strb	r2, [r3]
 317:sys.c         ****                 disableTestInd();
 1166              		.loc 1 317 0
 1167 0046 0020     		movs	r0, #0
 1168              	.LVL75:
 1169 0048 FFF7FEFF 		bl	SwitchState
 1170              	.LVL76:
 318:sys.c         ****                 LOG_INFO("-->TestMode: EXIT\r\n");
 1171              		.loc 1 318 0
 1172 004c FFF7FEFF 		bl	disableTestInd
 1173              	.LVL77:
 1174              	.L76:
 323:sys.c         **** 
 1175              		.loc 1 323 0
 1176              		@ sp needed
 1177 0050 10BD     		pop	{r4, pc}
 1178              	.L81:
 1179 0052 C046     		.align	2
 1180              	.L80:
 1181 0054 00000000 		.word	.LANCHOR0
 1182 0058 00000000 		.word	MODE_TEST
 1183              		.cfi_endproc
 1184              	.LFE50:
 1185              		.size	Sys_touchShortPress, .-Sys_touchShortPress
ARM GAS  C:\Users\dell\AppData\Local\Temp\ccmzUbMt.s 			page 31


 1186              		.section	.text.Sys_touchHold,"ax",%progbits
 1187              		.align	2
 1188              		.global	Sys_touchHold
 1189              		.code	16
 1190              		.thumb_func
 1191              		.type	Sys_touchHold, %function
 1192              	Sys_touchHold:
 1193              	.LFB51:
 326:sys.c         ****     if(enteringTestMode == false)
 1194              		.loc 1 326 0
 1195              		.cfi_startproc
 1196              		@ args = 0, pretend = 0, frame = 0
 1197              		@ frame_needed = 0, uses_anonymous_args = 0
 1198              	.LVL78:
 1199 0000 10B5     		push	{r4, lr}
 1200              		.cfi_def_cfa_offset 8
 1201              		.cfi_offset 4, -8
 1202              		.cfi_offset 14, -4
 327:sys.c         ****     {
 1203              		.loc 1 327 0
 1204 0002 2C23     		movs	r3, #44
 1205 0004 124A     		ldr	r2, .L86
 1206 0006 D35C     		ldrb	r3, [r2, r3]
 1207 0008 002B     		cmp	r3, #0
 1208 000a 20D1     		bne	.L82
 329:sys.c         ****         {
 1209              		.loc 1 329 0
 1210 000c 0328     		cmp	r0, #3
 1211 000e 11D1     		bne	.L84
 329:sys.c         ****         {
 1212              		.loc 1 329 0 is_stmt 0 discriminator 1
 1213 0010 104B     		ldr	r3, .L86+4
 1214 0012 1B78     		ldrb	r3, [r3]
 1215 0014 002B     		cmp	r3, #0
 1216 0016 0DD1     		bne	.L84
 331:sys.c         ****             if(lockStatus == LOCK) SwitchState(UNLOCK);
 1217              		.loc 1 331 0 is_stmt 1
 1218 0018 FFF7FEFF 		bl	Beep
 1219              	.LVL79:
 332:sys.c         ****             else SwitchState(LOCK);        
 1220              		.loc 1 332 0
 1221 001c 0C4B     		ldr	r3, .L86
 1222 001e 1B7C     		ldrb	r3, [r3, #16]
 1223 0020 002B     		cmp	r3, #0
 1224 0022 03D1     		bne	.L85
 332:sys.c         ****             else SwitchState(LOCK);        
 1225              		.loc 1 332 0 is_stmt 0 discriminator 1
 1226 0024 0120     		movs	r0, #1
 1227 0026 FFF7FEFF 		bl	SwitchState
 1228              	.LVL80:
 1229 002a 10E0     		b	.L82
 1230              	.L85:
 333:sys.c         ****         }
 1231              		.loc 1 333 0 is_stmt 1
 1232 002c 0020     		movs	r0, #0
 1233 002e FFF7FEFF 		bl	SwitchState
 1234              	.LVL81:
ARM GAS  C:\Users\dell\AppData\Local\Temp\ccmzUbMt.s 			page 32


 1235 0032 0CE0     		b	.L82
 1236              	.LVL82:
 1237              	.L84:
 335:sys.c         ****         {
 1238              		.loc 1 335 0
 1239 0034 0228     		cmp	r0, #2
 1240 0036 0AD1     		bne	.L82
 337:sys.c         ****             CyDelay(100);
 1241              		.loc 1 337 0
 1242 0038 FFF7FEFF 		bl	Beep
 1243              	.LVL83:
 338:sys.c         ****             Beep();
 1244              		.loc 1 338 0
 1245 003c 6420     		movs	r0, #100
 1246 003e FFF7FEFF 		bl	CyDelay
 1247              	.LVL84:
 339:sys.c         ****             enteringTestMode = true;
 1248              		.loc 1 339 0
 1249 0042 FFF7FEFF 		bl	Beep
 1250              	.LVL85:
 340:sys.c         ****             LOG_INFO("-->enteringTestMode\r\n");
 1251              		.loc 1 340 0
 1252 0046 0121     		movs	r1, #1
 1253 0048 2C23     		movs	r3, #44
 1254 004a 014A     		ldr	r2, .L86
 1255 004c D154     		strb	r1, [r2, r3]
 1256              	.L82:
 344:sys.c         **** 
 1257              		.loc 1 344 0
 1258              		@ sp needed
 1259 004e 10BD     		pop	{r4, pc}
 1260              	.L87:
 1261              		.align	2
 1262              	.L86:
 1263 0050 00000000 		.word	.LANCHOR0
 1264 0054 00000000 		.word	MODE_TEST
 1265              		.cfi_endproc
 1266              	.LFE51:
 1267              		.size	Sys_touchHold, .-Sys_touchHold
 1268              		.section	.text.Sys_RoColdHold,"ax",%progbits
 1269              		.align	2
 1270              		.global	Sys_RoColdHold
 1271              		.code	16
 1272              		.thumb_func
 1273              		.type	Sys_RoColdHold, %function
 1274              	Sys_RoColdHold:
 1275              	.LFB52:
 347:sys.c         ****     if(enteringTestMode == false)
 1276              		.loc 1 347 0
 1277              		.cfi_startproc
 1278              		@ args = 0, pretend = 0, frame = 0
 1279              		@ frame_needed = 0, uses_anonymous_args = 0
 1280              	.LVL86:
 1281 0000 10B5     		push	{r4, lr}
 1282              		.cfi_def_cfa_offset 8
 1283              		.cfi_offset 4, -8
 1284              		.cfi_offset 14, -4
ARM GAS  C:\Users\dell\AppData\Local\Temp\ccmzUbMt.s 			page 33


 348:sys.c         ****     {
 1285              		.loc 1 348 0
 1286 0002 2C23     		movs	r3, #44
 1287 0004 0C4A     		ldr	r2, .L91
 1288 0006 D35C     		ldrb	r3, [r2, r3]
 1289 0008 002B     		cmp	r3, #0
 1290 000a 13D1     		bne	.L88
 350:sys.c         ****         {
 1291              		.loc 1 350 0
 1292 000c 137C     		ldrb	r3, [r2, #16]
 1293 000e 002B     		cmp	r3, #0
 1294 0010 10D1     		bne	.L88
 354:sys.c         ****             {
 1295              		.loc 1 354 0
 1296 0012 0028     		cmp	r0, #0
 1297 0014 06D1     		bne	.L90
 356:sys.c         ****                 Dung_lay_nuoc();
 1298              		.loc 1 356 0
 1299 0016 FFF7FEFF 		bl	Beep
 1300              	.LVL87:
 357:sys.c         ****                 Lay_nuoc_RO();
 1301              		.loc 1 357 0
 1302 001a FFF7FEFF 		bl	Dung_lay_nuoc
 1303              	.LVL88:
 358:sys.c         ****             }
 1304              		.loc 1 358 0
 1305 001e FFF7FEFF 		bl	Lay_nuoc_RO
 1306              	.LVL89:
 1307 0022 07E0     		b	.L88
 1308              	.LVL90:
 1309              	.L90:
 360:sys.c         ****             {
 1310              		.loc 1 360 0
 1311 0024 0128     		cmp	r0, #1
 1312 0026 05D1     		bne	.L88
 362:sys.c         ****                 Dung_lay_nuoc();
 1313              		.loc 1 362 0
 1314 0028 FFF7FEFF 		bl	Beep
 1315              	.LVL91:
 363:sys.c         ****                 Lay_nuoc_COLD();
 1316              		.loc 1 363 0
 1317 002c FFF7FEFF 		bl	Dung_lay_nuoc
 1318              	.LVL92:
 364:sys.c         ****             }
 1319              		.loc 1 364 0
 1320 0030 FFF7FEFF 		bl	Lay_nuoc_COLD
 1321              	.LVL93:
 1322              	.L88:
 368:sys.c         **** 
 1323              		.loc 1 368 0
 1324              		@ sp needed
 1325 0034 10BD     		pop	{r4, pc}
 1326              	.L92:
 1327 0036 C046     		.align	2
 1328              	.L91:
 1329 0038 00000000 		.word	.LANCHOR0
 1330              		.cfi_endproc
ARM GAS  C:\Users\dell\AppData\Local\Temp\ccmzUbMt.s 			page 34


 1331              	.LFE52:
 1332              		.size	Sys_RoColdHold, .-Sys_RoColdHold
 1333              		.section	.text.Sys_process,"ax",%progbits
 1334              		.align	2
 1335              		.global	Sys_process
 1336              		.code	16
 1337              		.thumb_func
 1338              		.type	Sys_process, %function
 1339              	Sys_process:
 1340              	.LFB55:
 389:sys.c         **** 
 390:sys.c         **** void Sys_process(void)
 391:sys.c         **** {
 1341              		.loc 1 391 0
 1342              		.cfi_startproc
 1343              		@ args = 0, pretend = 0, frame = 0
 1344              		@ frame_needed = 0, uses_anonymous_args = 0
 1345 0000 10B5     		push	{r4, lr}
 1346              		.cfi_def_cfa_offset 8
 1347              		.cfi_offset 4, -8
 1348              		.cfi_offset 14, -4
 392:sys.c         ****     if(MODE_TEST == false)
 1349              		.loc 1 392 0
 1350 0002 064B     		ldr	r3, .L96
 1351 0004 1B78     		ldrb	r3, [r3]
 1352 0006 002B     		cmp	r3, #0
 1353 0008 04D1     		bne	.L94
 393:sys.c         ****     {
 394:sys.c         ****         KiemTra_dungLayNuoc();
 1354              		.loc 1 394 0
 1355 000a FFF7FEFF 		bl	KiemTra_dungLayNuoc
 1356              	.LVL94:
 395:sys.c         ****         KiemTra_tuKhoaPhim();
 1357              		.loc 1 395 0
 1358 000e FFF7FEFF 		bl	KiemTra_tuKhoaPhim
 1359              	.LVL95:
 1360 0012 01E0     		b	.L93
 1361              	.L94:
 396:sys.c         **** #if (IGNORE_ALL_LED==0)
 397:sys.c         ****     ledBlinkProcess();
 398:sys.c         **** #endif    
 399:sys.c         ****     } 
 400:sys.c         ****     else ledBlinkProcess();
 1362              		.loc 1 400 0
 1363 0014 FFF7FEFF 		bl	ledBlinkProcess
 1364              	.LVL96:
 1365              	.L93:
 401:sys.c         **** }
 1366              		.loc 1 401 0
 1367              		@ sp needed
 1368 0018 10BD     		pop	{r4, pc}
 1369              	.L97:
 1370 001a C046     		.align	2
 1371              	.L96:
 1372 001c 00000000 		.word	MODE_TEST
 1373              		.cfi_endproc
 1374              	.LFE55:
ARM GAS  C:\Users\dell\AppData\Local\Temp\ccmzUbMt.s 			page 35


 1375              		.size	Sys_process, .-Sys_process
 1376              		.global	unLockAll
 1377              		.comm	Ulock_State_t,1,1
 1378              		.global	enteringTestMode
 1379              		.comm	myBtn,4,4
 1380              		.bss
 1381              		.align	2
 1382              		.set	.LANCHOR0,. + 0
 1383              		.type	ledLOCKIsBlink, %object
 1384              		.size	ledLOCKIsBlink, 1
 1385              	ledLOCKIsBlink:
 1386 0000 00       		.space	1
 1387 0001 000000   		.space	3
 1388              		.type	ledLOCKBinkTime, %object
 1389              		.size	ledLOCKBinkTime, 4
 1390              	ledLOCKBinkTime:
 1391 0004 00000000 		.space	4
 1392              		.type	autoLock, %object
 1393              		.size	autoLock, 1
 1394              	autoLock:
 1395 0008 00       		.space	1
 1396 0009 000000   		.space	3
 1397              		.type	thoiGianChoKhoaPhim, %object
 1398              		.size	thoiGianChoKhoaPhim, 4
 1399              	thoiGianChoKhoaPhim:
 1400 000c 00000000 		.space	4
 1401              		.type	lockStatus, %object
 1402              		.size	lockStatus, 1
 1403              	lockStatus:
 1404 0010 00       		.space	1
 1405              		.type	dangLayNuoc, %object
 1406              		.size	dangLayNuoc, 1
 1407              	dangLayNuoc:
 1408 0011 00       		.space	1
 1409              		.type	ledHOTIsBlink, %object
 1410              		.size	ledHOTIsBlink, 1
 1411              	ledHOTIsBlink:
 1412 0012 00       		.space	1
 1413              		.type	ledROIsBlink, %object
 1414              		.size	ledROIsBlink, 1
 1415              	ledROIsBlink:
 1416 0013 00       		.space	1
 1417              		.type	ledCOLDIsBlink, %object
 1418              		.size	ledCOLDIsBlink, 1
 1419              	ledCOLDIsBlink:
 1420 0014 00       		.space	1
 1421 0015 000000   		.space	3
 1422              		.type	thoiGianLayNuoc, %object
 1423              		.size	thoiGianLayNuoc, 4
 1424              	thoiGianLayNuoc:
 1425 0018 00000000 		.space	4
 1426              		.type	ledROBinkTime, %object
 1427              		.size	ledROBinkTime, 4
 1428              	ledROBinkTime:
 1429 001c 00000000 		.space	4
 1430              		.type	ledCOLDBinkTime, %object
 1431              		.size	ledCOLDBinkTime, 4
ARM GAS  C:\Users\dell\AppData\Local\Temp\ccmzUbMt.s 			page 36


 1432              	ledCOLDBinkTime:
 1433 0020 00000000 		.space	4
 1434              		.type	ledHOTBinkTime, %object
 1435              		.size	ledHOTBinkTime, 4
 1436              	ledHOTBinkTime:
 1437 0024 00000000 		.space	4
 1438              		.type	lockBlinkOnOff, %object
 1439              		.size	lockBlinkOnOff, 1
 1440              	lockBlinkOnOff:
 1441 0028 00       		.space	1
 1442              		.type	hotBlinkOnOff, %object
 1443              		.size	hotBlinkOnOff, 1
 1444              	hotBlinkOnOff:
 1445 0029 00       		.space	1
 1446              		.type	roBlinkOnOff, %object
 1447              		.size	roBlinkOnOff, 1
 1448              	roBlinkOnOff:
 1449 002a 00       		.space	1
 1450              		.type	coldBlinkOnOff, %object
 1451              		.size	coldBlinkOnOff, 1
 1452              	coldBlinkOnOff:
 1453 002b 00       		.space	1
 1454              		.type	enteringTestMode, %object
 1455              		.size	enteringTestMode, 1
 1456              	enteringTestMode:
 1457 002c 00       		.space	1
 1458              		.type	unLockAll, %object
 1459              		.size	unLockAll, 1
 1460              	unLockAll:
 1461 002d 00       		.space	1
 1462              		.text
 1463              	.Letext0:
 1464              		.file 2 "e:\\psoc creator\\4.3\\psoc creator\\import\\gnu\\arm\\5.4.1\\arm-none-eabi\\include\\mac
 1465              		.file 3 "e:\\psoc creator\\4.3\\psoc creator\\import\\gnu\\arm\\5.4.1\\arm-none-eabi\\include\\sys
 1466              		.file 4 "Generated_Source\\PSoC4/cytypes.h"
 1467              		.file 5 "myHeader.h"
 1468              		.file 6 "sysTick.h"
 1469              		.file 7 "touchBtn_ADC.h"
 1470              		.file 8 "Generated_Source\\PSoC4/LED_LOCK.h"
 1471              		.file 9 "Generated_Source\\PSoC4/LED_RO.h"
 1472              		.file 10 "Generated_Source\\PSoC4/LED_COLD.h"
 1473              		.file 11 "Generated_Source\\PSoC4/LED_HOT.h"
 1474              		.file 12 "Generated_Source\\PSoC4/VL1.h"
 1475              		.file 13 "Generated_Source\\PSoC4/VL2.h"
 1476              		.file 14 "Generated_Source\\PSoC4/VL3.h"
 1477              		.file 15 "Generated_Source\\PSoC4/Buzzer.h"
 1478              		.file 16 "Generated_Source\\PSoC4/CyLib.h"