ARM GAS  C:\Users\dell\AppData\Local\Temp\ccFMJ9je.s 			page 1


   1              		.syntax unified
   2              		.cpu cortex-m0plus
   3              		.fpu softvfp
   4              		.eabi_attribute 20, 1
   5              		.eabi_attribute 21, 1
   6              		.eabi_attribute 23, 3
   7              		.eabi_attribute 24, 1
   8              		.eabi_attribute 25, 1
   9              		.eabi_attribute 26, 1
  10              		.eabi_attribute 30, 1
  11              		.eabi_attribute 34, 0
  12              		.eabi_attribute 18, 4
  13              		.thumb
  14              		.syntax unified
  15              		.file	"touchBtn_ADC.c"
  16              		.text
  17              	.Ltext0:
  18              		.cfi_sections	.debug_frame
  19              		.section	.text.getDataMode,"ax",%progbits
  20              		.align	2
  21              		.code	16
  22              		.thumb_func
  23              		.type	getDataMode, %function
  24              	getDataMode:
  25              	.LFB34:
  26              		.file 1 "touchBtn_ADC.c"
   1:touchBtn_ADC.c **** /* ========================================
   2:touchBtn_ADC.c ****  *
   3:touchBtn_ADC.c ****  * Copyright YOUR COMPANY, THE YEAR
   4:touchBtn_ADC.c ****  * All Rights Reserved
   5:touchBtn_ADC.c ****  * UNPUBLISHED, LICENSED SOFTWARE.
   6:touchBtn_ADC.c ****  *
   7:touchBtn_ADC.c ****  * CONFIDENTIAL AND PROPRIETARY INFORMATION
   8:touchBtn_ADC.c ****  * WHICH IS THE PROPERTY OF your company.
   9:touchBtn_ADC.c ****  *
  10:touchBtn_ADC.c ****  * ========================================
  11:touchBtn_ADC.c **** */
  12:touchBtn_ADC.c **** #include "touchBtn_ADC.h"
  13:touchBtn_ADC.c **** 
  14:touchBtn_ADC.c **** static touchBtnProfile_t touchBtn[NUM_TOUCH_BTN];
  15:touchBtn_ADC.c **** /* -------------------------------*/
  16:touchBtn_ADC.c **** static struct sensorParams_t
  17:touchBtn_ADC.c **** {
  18:touchBtn_ADC.c ****     uint16_t baseline;
  19:touchBtn_ADC.c ****     uint16_t rawData;
  20:touchBtn_ADC.c ****     uint16_t diffData;
  21:touchBtn_ADC.c ****     uint32_t startTimeDiffData;
  22:touchBtn_ADC.c ****     uint32_t stopTimeDiffData;
  23:touchBtn_ADC.c **** } sensorParams[NUM_TOUCH_BTN];
  24:touchBtn_ADC.c **** /* -------------------------------*/
  25:touchBtn_ADC.c **** static uint16_t getDataMode(modeData_t mode, uint8_t btnId)
  26:touchBtn_ADC.c **** {
  27              		.loc 1 26 0
  28              		.cfi_startproc
  29              		@ args = 0, pretend = 0, frame = 0
  30              		@ frame_needed = 0, uses_anonymous_args = 0
  31              		@ link register save eliminated.
ARM GAS  C:\Users\dell\AppData\Local\Temp\ccFMJ9je.s 			page 2


  32              	.LVL0:
  27:touchBtn_ADC.c ****     if(mode == MODE_RAW)
  33              		.loc 1 27 0
  34 0000 0028     		cmp	r0, #0
  35 0002 17D1     		bne	.L2
  28:touchBtn_ADC.c ****     {
  29:touchBtn_ADC.c ****         if(btnId == BTN_RO) return CapSense_BTNRO_SNS0_RAW0_VALUE;   
  36              		.loc 1 29 0
  37 0004 0029     		cmp	r1, #0
  38 0006 03D1     		bne	.L3
  39              		.loc 1 29 0 is_stmt 0 discriminator 1
  40 0008 6223     		movs	r3, #98
  41 000a 264A     		ldr	r2, .L16
  42 000c D05A     		ldrh	r0, [r2, r3]
  43              	.LVL1:
  44 000e 48E0     		b	.L4
  45              	.LVL2:
  46              	.L3:
  30:touchBtn_ADC.c ****         if(btnId == BTN_COLD) return CapSense_BTNCOLD_SNS0_RAW0_VALUE;
  47              		.loc 1 30 0 is_stmt 1
  48 0010 0129     		cmp	r1, #1
  49 0012 03D1     		bne	.L5
  50              		.loc 1 30 0 is_stmt 0 discriminator 1
  51 0014 6C23     		movs	r3, #108
  52 0016 234A     		ldr	r2, .L16
  53 0018 D05A     		ldrh	r0, [r2, r3]
  54              	.LVL3:
  55 001a 42E0     		b	.L4
  56              	.LVL4:
  57              	.L5:
  31:touchBtn_ADC.c ****         if(btnId == BTN_HOT) return CapSense_BTNHOT_SNS0_RAW0_VALUE;
  58              		.loc 1 31 0 is_stmt 1
  59 001c 0229     		cmp	r1, #2
  60 001e 03D1     		bne	.L6
  61              		.loc 1 31 0 is_stmt 0 discriminator 1
  62 0020 7623     		movs	r3, #118
  63 0022 204A     		ldr	r2, .L16
  64 0024 D05A     		ldrh	r0, [r2, r3]
  65              	.LVL5:
  66 0026 3CE0     		b	.L4
  67              	.LVL6:
  68              	.L6:
  32:touchBtn_ADC.c ****         if(btnId == BTN_LOCK) return CapSense_BTNLOCK_SNS0_RAW0_VALUE;
  69              		.loc 1 32 0 is_stmt 1
  70 0028 0329     		cmp	r1, #3
  71 002a 03D1     		bne	.L2
  72              		.loc 1 32 0 is_stmt 0 discriminator 1
  73 002c 8023     		movs	r3, #128
  74 002e 1D4A     		ldr	r2, .L16
  75 0030 D05A     		ldrh	r0, [r2, r3]
  76              	.LVL7:
  77 0032 36E0     		b	.L4
  78              	.LVL8:
  79              	.L2:
  33:touchBtn_ADC.c ****     }
  34:touchBtn_ADC.c ****     
  35:touchBtn_ADC.c ****     if(mode == MODE_BASELINE)
ARM GAS  C:\Users\dell\AppData\Local\Temp\ccFMJ9je.s 			page 3


  80              		.loc 1 35 0 is_stmt 1
  81 0034 0128     		cmp	r0, #1
  82 0036 17D1     		bne	.L7
  36:touchBtn_ADC.c ****     {
  37:touchBtn_ADC.c ****         if(btnId == BTN_RO) return CapSense_BTNRO_SNS0_BSLN0_VALUE;   
  83              		.loc 1 37 0
  84 0038 0029     		cmp	r1, #0
  85 003a 03D1     		bne	.L8
  86              		.loc 1 37 0 is_stmt 0 discriminator 1
  87 003c 6423     		movs	r3, #100
  88 003e 194A     		ldr	r2, .L16
  89 0040 D05A     		ldrh	r0, [r2, r3]
  90              	.LVL9:
  91 0042 2EE0     		b	.L4
  92              	.LVL10:
  93              	.L8:
  38:touchBtn_ADC.c ****         if(btnId == BTN_COLD) return CapSense_BTNCOLD_SNS0_BSLN0_VALUE;
  94              		.loc 1 38 0 is_stmt 1
  95 0044 0129     		cmp	r1, #1
  96 0046 03D1     		bne	.L9
  97              		.loc 1 38 0 is_stmt 0 discriminator 1
  98 0048 6E23     		movs	r3, #110
  99 004a 164A     		ldr	r2, .L16
 100 004c D05A     		ldrh	r0, [r2, r3]
 101              	.LVL11:
 102 004e 28E0     		b	.L4
 103              	.LVL12:
 104              	.L9:
  39:touchBtn_ADC.c ****         if(btnId == BTN_HOT) return CapSense_BTNHOT_SNS0_BSLN0_VALUE;
 105              		.loc 1 39 0 is_stmt 1
 106 0050 0229     		cmp	r1, #2
 107 0052 03D1     		bne	.L10
 108              		.loc 1 39 0 is_stmt 0 discriminator 1
 109 0054 7823     		movs	r3, #120
 110 0056 134A     		ldr	r2, .L16
 111 0058 D05A     		ldrh	r0, [r2, r3]
 112              	.LVL13:
 113 005a 22E0     		b	.L4
 114              	.LVL14:
 115              	.L10:
  40:touchBtn_ADC.c ****         if(btnId == BTN_LOCK) return CapSense_BTNLOCK_SNS0_BSLN0_VALUE;
 116              		.loc 1 40 0 is_stmt 1
 117 005c 0329     		cmp	r1, #3
 118 005e 03D1     		bne	.L7
 119              		.loc 1 40 0 is_stmt 0 discriminator 1
 120 0060 8223     		movs	r3, #130
 121 0062 104A     		ldr	r2, .L16
 122 0064 D05A     		ldrh	r0, [r2, r3]
 123              	.LVL15:
 124 0066 1CE0     		b	.L4
 125              	.LVL16:
 126              	.L7:
  41:touchBtn_ADC.c ****     }
  42:touchBtn_ADC.c ****     
  43:touchBtn_ADC.c ****     if(mode == MODE_DIF)
 127              		.loc 1 43 0 is_stmt 1
 128 0068 0228     		cmp	r0, #2
ARM GAS  C:\Users\dell\AppData\Local\Temp\ccFMJ9je.s 			page 4


 129 006a 17D1     		bne	.L14
  44:touchBtn_ADC.c ****     {
  45:touchBtn_ADC.c ****         if(btnId == BTN_RO) return CapSense_BTNRO_SNS0_DIFF_VALUE;   
 130              		.loc 1 45 0
 131 006c 0029     		cmp	r1, #0
 132 006e 03D1     		bne	.L11
 133              		.loc 1 45 0 is_stmt 0 discriminator 1
 134 0070 6823     		movs	r3, #104
 135 0072 0C4A     		ldr	r2, .L16
 136 0074 D05A     		ldrh	r0, [r2, r3]
 137              	.LVL17:
 138 0076 14E0     		b	.L4
 139              	.LVL18:
 140              	.L11:
  46:touchBtn_ADC.c ****         if(btnId == BTN_COLD) return CapSense_BTNCOLD_SNS0_DIFF_VALUE;
 141              		.loc 1 46 0 is_stmt 1
 142 0078 0129     		cmp	r1, #1
 143 007a 03D1     		bne	.L12
 144              		.loc 1 46 0 is_stmt 0 discriminator 1
 145 007c 7223     		movs	r3, #114
 146 007e 094A     		ldr	r2, .L16
 147 0080 D05A     		ldrh	r0, [r2, r3]
 148              	.LVL19:
 149 0082 0EE0     		b	.L4
 150              	.LVL20:
 151              	.L12:
  47:touchBtn_ADC.c ****         if(btnId == BTN_HOT) return CapSense_BTNHOT_SNS0_DIFF_VALUE;
 152              		.loc 1 47 0 is_stmt 1
 153 0084 0229     		cmp	r1, #2
 154 0086 03D1     		bne	.L13
 155              		.loc 1 47 0 is_stmt 0 discriminator 1
 156 0088 7C23     		movs	r3, #124
 157 008a 064A     		ldr	r2, .L16
 158 008c D05A     		ldrh	r0, [r2, r3]
 159              	.LVL21:
 160 008e 08E0     		b	.L4
 161              	.LVL22:
 162              	.L13:
  48:touchBtn_ADC.c ****         if(btnId == BTN_LOCK) return CapSense_BTNLOCK_SNS0_DIFF_VALUE;
 163              		.loc 1 48 0 is_stmt 1
 164 0090 0329     		cmp	r1, #3
 165 0092 05D1     		bne	.L15
 166              		.loc 1 48 0 is_stmt 0 discriminator 1
 167 0094 8623     		movs	r3, #134
 168 0096 034A     		ldr	r2, .L16
 169 0098 D05A     		ldrh	r0, [r2, r3]
 170              	.LVL23:
 171 009a 02E0     		b	.L4
 172              	.LVL24:
 173              	.L14:
  49:touchBtn_ADC.c ****     }
  50:touchBtn_ADC.c ****     return 0xFFFF;
 174              		.loc 1 50 0 is_stmt 1
 175 009c 0248     		ldr	r0, .L16+4
 176              	.LVL25:
 177 009e 00E0     		b	.L4
 178              	.LVL26:
ARM GAS  C:\Users\dell\AppData\Local\Temp\ccFMJ9je.s 			page 5


 179              	.L15:
 180 00a0 0148     		ldr	r0, .L16+4
 181              	.LVL27:
 182              	.L4:
  51:touchBtn_ADC.c **** }
 183              		.loc 1 51 0
 184              		@ sp needed
 185 00a2 7047     		bx	lr
 186              	.L17:
 187              		.align	2
 188              	.L16:
 189 00a4 00000000 		.word	CapSense_dsRam
 190 00a8 FFFF0000 		.word	65535
 191              		.cfi_endproc
 192              	.LFE34:
 193              		.size	getDataMode, .-getDataMode
 194              		.section	.text.Touch_init,"ax",%progbits
 195              		.align	2
 196              		.global	Touch_init
 197              		.code	16
 198              		.thumb_func
 199              		.type	Touch_init, %function
 200              	Touch_init:
 201              	.LFB35:
  52:touchBtn_ADC.c **** /* -------------------------------*/
  53:touchBtn_ADC.c **** uint16_t retacd;
  54:touchBtn_ADC.c **** void Touch_init(void)
  55:touchBtn_ADC.c **** {
 202              		.loc 1 55 0
 203              		.cfi_startproc
 204              		@ args = 0, pretend = 0, frame = 0
 205              		@ frame_needed = 0, uses_anonymous_args = 0
 206 0000 10B5     		push	{r4, lr}
 207              		.cfi_def_cfa_offset 8
 208              		.cfi_offset 4, -8
 209              		.cfi_offset 14, -4
  56:touchBtn_ADC.c ****     CapSense_Start();	
 210              		.loc 1 56 0
 211 0002 FFF7FEFF 		bl	CapSense_Start
 212              	.LVL28:
  57:touchBtn_ADC.c ****     CapSense_ScanAllWidgets();
 213              		.loc 1 57 0
 214 0006 FFF7FEFF 		bl	CapSense_ScanAllWidgets
 215              	.LVL29:
  58:touchBtn_ADC.c ****     CapSense_ProcessAllWidgets();
 216              		.loc 1 58 0
 217 000a FFF7FEFF 		bl	CapSense_ProcessAllWidgets
 218              	.LVL30:
  59:touchBtn_ADC.c ****     CyDelay(100);
 219              		.loc 1 59 0
 220 000e 6420     		movs	r0, #100
 221 0010 FFF7FEFF 		bl	CyDelay
 222              	.LVL31:
  60:touchBtn_ADC.c **** 	/* Initialize the baselines of all CapSense widgets. */ 
  61:touchBtn_ADC.c **** 	CapSense_InitializeAllBaselines();
 223              		.loc 1 61 0
 224 0014 FFF7FEFF 		bl	CapSense_InitializeAllBaselines
ARM GAS  C:\Users\dell\AppData\Local\Temp\ccFMJ9je.s 			page 6


 225              	.LVL32:
  62:touchBtn_ADC.c ****     retacd = CapSense_CSDCalibrateWidget(CapSense_BTNRO_WDGT_ID,65);
 226              		.loc 1 62 0
 227 0018 4121     		movs	r1, #65
 228 001a 0020     		movs	r0, #0
 229 001c FFF7FEFF 		bl	CapSense_CSDCalibrateWidget
 230              	.LVL33:
 231 0020 084C     		ldr	r4, .L19
 232 0022 2080     		strh	r0, [r4]
  63:touchBtn_ADC.c ****     retacd = CapSense_CSDCalibrateWidget(CapSense_BTNCOLD_WDGT_ID,65);
 233              		.loc 1 63 0
 234 0024 4121     		movs	r1, #65
 235 0026 0120     		movs	r0, #1
 236 0028 FFF7FEFF 		bl	CapSense_CSDCalibrateWidget
 237              	.LVL34:
 238 002c 2080     		strh	r0, [r4]
  64:touchBtn_ADC.c ****     retacd = CapSense_CSDCalibrateWidget(CapSense_BTNHOT_WDGT_ID,65);
 239              		.loc 1 64 0
 240 002e 4121     		movs	r1, #65
 241 0030 0220     		movs	r0, #2
 242 0032 FFF7FEFF 		bl	CapSense_CSDCalibrateWidget
 243              	.LVL35:
 244 0036 2080     		strh	r0, [r4]
  65:touchBtn_ADC.c ****     retacd = CapSense_CSDCalibrateWidget(CapSense_BTNLOCK_WDGT_ID,65);
 245              		.loc 1 65 0
 246 0038 4121     		movs	r1, #65
 247 003a 0320     		movs	r0, #3
 248 003c FFF7FEFF 		bl	CapSense_CSDCalibrateWidget
 249              	.LVL36:
 250 0040 2080     		strh	r0, [r4]
  66:touchBtn_ADC.c **** }
 251              		.loc 1 66 0
 252              		@ sp needed
 253 0042 10BD     		pop	{r4, pc}
 254              	.L20:
 255              		.align	2
 256              	.L19:
 257 0044 00000000 		.word	retacd
 258              		.cfi_endproc
 259              	.LFE35:
 260              		.size	Touch_init, .-Touch_init
 261              		.section	.text.Touch_pressEvent,"ax",%progbits
 262              		.align	2
 263              		.global	Touch_pressEvent
 264              		.code	16
 265              		.thumb_func
 266              		.type	Touch_pressEvent, %function
 267              	Touch_pressEvent:
 268              	.LFB37:
  67:touchBtn_ADC.c **** 
  68:touchBtn_ADC.c **** static bool startConv = false;
  69:touchBtn_ADC.c **** uint16_t mVolts = 0;
  70:touchBtn_ADC.c **** void Touch_process(void)
  71:touchBtn_ADC.c **** {
  72:touchBtn_ADC.c ****     
  73:touchBtn_ADC.c ****     if(CapSense_NOT_BUSY == CapSense_IsBusy() && CapSense_AdcIsBusy() == CapSense_AdcSTATUS_IDLE)
  74:touchBtn_ADC.c ****     {
ARM GAS  C:\Users\dell\AppData\Local\Temp\ccFMJ9je.s 			page 7


  75:touchBtn_ADC.c ****         /* Start an ADC Conversion conversion */
  76:touchBtn_ADC.c ****         if(startConv == false)
  77:touchBtn_ADC.c ****         {
  78:touchBtn_ADC.c ****             CapSense_AdcStartConvert(CapSense_AdcCHANNEL_0);
  79:touchBtn_ADC.c ****             CapSense_ProcessAllWidgets();
  80:touchBtn_ADC.c ****             startConv = true;
  81:touchBtn_ADC.c ****         }
  82:touchBtn_ADC.c ****         else if(startConv)
  83:touchBtn_ADC.c ****         {
  84:touchBtn_ADC.c ****             mVolts = CapSense_AdcGetResult_mVolts(CapSense_AdcCHANNEL_0);
  85:touchBtn_ADC.c **** //            LOG_INFO("Dien ap: %d mV\n", mVolts);
  86:touchBtn_ADC.c ****             startConv = false;
  87:touchBtn_ADC.c ****             CapSense_ScanAllWidgets();
  88:touchBtn_ADC.c ****             CapSense_ProcessAllWidgets();
  89:touchBtn_ADC.c ****             //CapSense_UpdateAllBaselines();
  90:touchBtn_ADC.c ****             for(uint8_t i = 0; i < NUM_TOUCH_BTN; i++) 
  91:touchBtn_ADC.c ****             {
  92:touchBtn_ADC.c ****                 sensorParams[i].baseline = getDataMode(MODE_BASELINE, i);
  93:touchBtn_ADC.c ****                 sensorParams[i].rawData  = getDataMode(MODE_RAW, i);
  94:touchBtn_ADC.c ****                 sensorParams[i].diffData = getDataMode(MODE_DIF, i);
  95:touchBtn_ADC.c ****                 sensorParams[i].stopTimeDiffData = g_SysTime;
  96:touchBtn_ADC.c ****                 if(sensorParams[i].diffData == 0) sensorParams[i].startTimeDiffData = g_SysTime;
  97:touchBtn_ADC.c ****                 else 
  98:touchBtn_ADC.c ****                 {
  99:touchBtn_ADC.c ****                     if(elapstime(sensorParams[i].stopTimeDiffData, sensorParams[i].startTimeDiffDat
 100:touchBtn_ADC.c ****                     {
 101:touchBtn_ADC.c ****                         CapSense_InitializeWidgetBaseline(i);
 102:touchBtn_ADC.c ****                         Touch_holdEvent(i, TOUCH_TIME_HOLDING_TIMEOUT);
 103:touchBtn_ADC.c ****                     }
 104:touchBtn_ADC.c ****                 }
 105:touchBtn_ADC.c ****             }
 106:touchBtn_ADC.c ****             LOG_RAW("%d,%d,%d,%d,%d,%d,%d,%d,%d,%d,%d,%d,%d\r\n",  
 107:touchBtn_ADC.c ****                                 sensorParams[0].baseline, sensorParams[0].rawData, sensorParams[0].
 108:touchBtn_ADC.c ****                                 sensorParams[1].baseline, sensorParams[1].rawData, sensorParams[1].
 109:touchBtn_ADC.c ****                                 sensorParams[2].baseline, sensorParams[2].rawData, sensorParams[2].
 110:touchBtn_ADC.c ****                                 sensorParams[3].baseline, sensorParams[3].rawData, sensorParams[3].
 111:touchBtn_ADC.c ****                                 mVolts);
 112:touchBtn_ADC.c ****         
 113:touchBtn_ADC.c ****             for(uint8_t i = 0; i < NUM_TOUCH_BTN; i++)
 114:touchBtn_ADC.c ****             {             
 115:touchBtn_ADC.c ****                 touchBtn[i].btnActive = CapSense_IsWidgetActive(i);
 116:touchBtn_ADC.c ****                 touchBtn[i].timeTotalPress = elapstime(g_SysTime, touchBtn[i].timeStartPress);
 117:touchBtn_ADC.c ****                 
 118:touchBtn_ADC.c ****                 switch(touchBtn[i].state)
 119:touchBtn_ADC.c ****                 {
 120:touchBtn_ADC.c ****                     case TOUCH_BTN_RELEASE:
 121:touchBtn_ADC.c ****                         if(touchBtn[i].btnActive == TOUCH_BTN_ACTIVE)
 122:touchBtn_ADC.c ****                         {
 123:touchBtn_ADC.c ****                             touchBtn[i].timeStartPress = g_SysTime;
 124:touchBtn_ADC.c ****                             touchBtn[i].state = TOUCH_BTN_PRESS;
 125:touchBtn_ADC.c ****                             /*-------------------------------*/
 126:touchBtn_ADC.c ****                             /*   call press event btn */
 127:touchBtn_ADC.c ****                             Touch_pressEvent(i);
 128:touchBtn_ADC.c ****                         }
 129:touchBtn_ADC.c ****                         break;
 130:touchBtn_ADC.c ****                     case TOUCH_BTN_PRESS:
 131:touchBtn_ADC.c ****                         if(touchBtn[i].timeTotalPress > TOUCH_TIME_HOLDING1)
ARM GAS  C:\Users\dell\AppData\Local\Temp\ccFMJ9je.s 			page 8


 132:touchBtn_ADC.c ****                         {
 133:touchBtn_ADC.c ****                             touchBtn[i].state = TOUCH_BTN_HOLDING1;
 134:touchBtn_ADC.c ****                             /*-------------------------------*/
 135:touchBtn_ADC.c ****                             /*   call hoding1 event btn */
 136:touchBtn_ADC.c ****                             Touch_holdEvent(i, TOUCH_TIME_HOLDING1);
 137:touchBtn_ADC.c ****                         }
 138:touchBtn_ADC.c ****                         break;
 139:touchBtn_ADC.c ****                     case TOUCH_BTN_HOLDING1:
 140:touchBtn_ADC.c ****                         if(touchBtn[i].timeTotalPress > TOUCH_TIME_HOLDING2)
 141:touchBtn_ADC.c ****                         {
 142:touchBtn_ADC.c ****                             touchBtn[i].state = TOUCH_BTN_HOLDING2;
 143:touchBtn_ADC.c ****                             /*-------------------------------*/
 144:touchBtn_ADC.c ****                             /*   call hoding1 event btn */
 145:touchBtn_ADC.c ****                             Touch_holdEvent(i, TOUCH_TIME_HOLDING2);
 146:touchBtn_ADC.c ****                         }
 147:touchBtn_ADC.c ****                         break;
 148:touchBtn_ADC.c ****                 }
 149:touchBtn_ADC.c ****                 
 150:touchBtn_ADC.c ****                 if(touchBtn[i].state != TOUCH_BTN_RELEASE)
 151:touchBtn_ADC.c ****                 {
 152:touchBtn_ADC.c ****                     if(touchBtn[i].btnActive == TOUCH_BTN_INACTIVE)
 153:touchBtn_ADC.c ****                     {   
 154:touchBtn_ADC.c ****                         touchBtn[i].state = TOUCH_BTN_RELEASE;
 155:touchBtn_ADC.c ****                         /*-------------------------------*/
 156:touchBtn_ADC.c ****                         /*   call release event btn */
 157:touchBtn_ADC.c ****                         Touch_releaseEvent(i, touchBtn[i].timeTotalPress);
 158:touchBtn_ADC.c ****                     }
 159:touchBtn_ADC.c ****                 }        
 160:touchBtn_ADC.c ****             }
 161:touchBtn_ADC.c ****         }
 162:touchBtn_ADC.c ****     }
 163:touchBtn_ADC.c **** }
 164:touchBtn_ADC.c **** /* -------------------------------*/
 165:touchBtn_ADC.c **** void Touch_pressEvent(uint8_t btnId)
 166:touchBtn_ADC.c **** {
 269              		.loc 1 166 0
 270              		.cfi_startproc
 271              		@ args = 0, pretend = 0, frame = 0
 272              		@ frame_needed = 0, uses_anonymous_args = 0
 273              	.LVL37:
 274 0000 10B5     		push	{r4, lr}
 275              		.cfi_def_cfa_offset 8
 276              		.cfi_offset 4, -8
 277              		.cfi_offset 14, -4
 167:touchBtn_ADC.c ****     LOG_INFO("btn %d press\r\n", btnId);
 168:touchBtn_ADC.c ****     Sys_touchPress(btnId);
 278              		.loc 1 168 0
 279 0002 FFF7FEFF 		bl	Sys_touchPress
 280              	.LVL38:
 169:touchBtn_ADC.c **** }
 281              		.loc 1 169 0
 282              		@ sp needed
 283 0006 10BD     		pop	{r4, pc}
 284              		.cfi_endproc
 285              	.LFE37:
 286              		.size	Touch_pressEvent, .-Touch_pressEvent
 287              		.section	.text.Touch_holdEvent,"ax",%progbits
ARM GAS  C:\Users\dell\AppData\Local\Temp\ccFMJ9je.s 			page 9


 288              		.align	2
 289              		.global	Touch_holdEvent
 290              		.code	16
 291              		.thumb_func
 292              		.type	Touch_holdEvent, %function
 293              	Touch_holdEvent:
 294              	.LFB38:
 170:touchBtn_ADC.c **** /* -------------------------------*/
 171:touchBtn_ADC.c **** void Touch_holdEvent(uint8_t btnId, uint32_t timeHolding)
 172:touchBtn_ADC.c **** {
 295              		.loc 1 172 0
 296              		.cfi_startproc
 297              		@ args = 0, pretend = 0, frame = 0
 298              		@ frame_needed = 0, uses_anonymous_args = 0
 299              	.LVL39:
 300 0000 10B5     		push	{r4, lr}
 301              		.cfi_def_cfa_offset 8
 302              		.cfi_offset 4, -8
 303              		.cfi_offset 14, -4
 173:touchBtn_ADC.c ****     LOG_INFO("btn %d hold, timeholding %d\r\n", btnId, timeHolding);
 174:touchBtn_ADC.c ****     if(timeHolding == TOUCH_TIME_HOLDING2) Sys_touchHold(btnId);//giu LOCK de doi trang thai, giu H
 304              		.loc 1 174 0
 305 0002 FA23     		movs	r3, #250
 306 0004 DB00     		lsls	r3, r3, #3
 307 0006 9942     		cmp	r1, r3
 308 0008 02D1     		bne	.L23
 309              		.loc 1 174 0 is_stmt 0 discriminator 1
 310 000a FFF7FEFF 		bl	Sys_touchHold
 311              	.LVL40:
 312 000e 05E0     		b	.L22
 313              	.LVL41:
 314              	.L23:
 175:touchBtn_ADC.c ****     else if(timeHolding == TOUCH_TIME_HOLDING1) Sys_RoColdHold(btnId);//lay nuoc RO, COLD o trang t
 315              		.loc 1 175 0 is_stmt 1
 316 0010 FA23     		movs	r3, #250
 317 0012 5B00     		lsls	r3, r3, #1
 318 0014 9942     		cmp	r1, r3
 319 0016 01D1     		bne	.L22
 320              		.loc 1 175 0 is_stmt 0 discriminator 1
 321 0018 FFF7FEFF 		bl	Sys_RoColdHold
 322              	.LVL42:
 323              	.L22:
 176:touchBtn_ADC.c **** }
 324              		.loc 1 176 0 is_stmt 1
 325              		@ sp needed
 326 001c 10BD     		pop	{r4, pc}
 327              		.cfi_endproc
 328              	.LFE38:
 329              		.size	Touch_holdEvent, .-Touch_holdEvent
 330 001e C046     		.section	.text.Touch_releaseEvent,"ax",%progbits
 331              		.align	2
 332              		.global	Touch_releaseEvent
 333              		.code	16
 334              		.thumb_func
 335              		.type	Touch_releaseEvent, %function
 336              	Touch_releaseEvent:
 337              	.LFB39:
ARM GAS  C:\Users\dell\AppData\Local\Temp\ccFMJ9je.s 			page 10


 177:touchBtn_ADC.c **** /* -------------------------------*/
 178:touchBtn_ADC.c **** void Touch_releaseEvent(uint8_t btnId, uint32_t timeHolding)
 179:touchBtn_ADC.c **** {
 338              		.loc 1 179 0
 339              		.cfi_startproc
 340              		@ args = 0, pretend = 0, frame = 0
 341              		@ frame_needed = 0, uses_anonymous_args = 0
 342              	.LVL43:
 343 0000 10B5     		push	{r4, lr}
 344              		.cfi_def_cfa_offset 8
 345              		.cfi_offset 4, -8
 346              		.cfi_offset 14, -4
 347 0002 0400     		movs	r4, r0
 180:touchBtn_ADC.c ****     LOG_INFO("btn %d release, timeholding %d\r\n", btnId, timeHolding);
 181:touchBtn_ADC.c ****     if(timeHolding < TOUCH_TIME_HOLDING1) Sys_touchShortPress(btnId);
 348              		.loc 1 181 0
 349 0004 F423     		movs	r3, #244
 350 0006 FF33     		adds	r3, r3, #255
 351 0008 9942     		cmp	r1, r3
 352 000a 01D8     		bhi	.L26
 353              		.loc 1 181 0 is_stmt 0 discriminator 1
 354 000c FFF7FEFF 		bl	Sys_touchShortPress
 355              	.LVL44:
 356              	.L26:
 182:touchBtn_ADC.c ****     if(btnId == BTN_HOT) enteringTestMode = false;
 357              		.loc 1 182 0 is_stmt 1
 358 0010 022C     		cmp	r4, #2
 359 0012 02D1     		bne	.L25
 360              		.loc 1 182 0 is_stmt 0 discriminator 1
 361 0014 0022     		movs	r2, #0
 362 0016 014B     		ldr	r3, .L28
 363 0018 1A70     		strb	r2, [r3]
 364              	.L25:
 183:touchBtn_ADC.c **** }
 365              		.loc 1 183 0 is_stmt 1
 366              		@ sp needed
 367 001a 10BD     		pop	{r4, pc}
 368              	.L29:
 369              		.align	2
 370              	.L28:
 371 001c 00000000 		.word	enteringTestMode
 372              		.cfi_endproc
 373              	.LFE39:
 374              		.size	Touch_releaseEvent, .-Touch_releaseEvent
 375              		.section	.text.Touch_process,"ax",%progbits
 376              		.align	2
 377              		.global	Touch_process
 378              		.code	16
 379              		.thumb_func
 380              		.type	Touch_process, %function
 381              	Touch_process:
 382              	.LFB36:
  71:touchBtn_ADC.c ****     
 383              		.loc 1 71 0
 384              		.cfi_startproc
 385              		@ args = 0, pretend = 0, frame = 8
 386              		@ frame_needed = 0, uses_anonymous_args = 0
ARM GAS  C:\Users\dell\AppData\Local\Temp\ccFMJ9je.s 			page 11


 387 0000 F0B5     		push	{r4, r5, r6, r7, lr}
 388              		.cfi_def_cfa_offset 20
 389              		.cfi_offset 4, -20
 390              		.cfi_offset 5, -16
 391              		.cfi_offset 6, -12
 392              		.cfi_offset 7, -8
 393              		.cfi_offset 14, -4
 394 0002 5F46     		mov	r7, fp
 395 0004 5646     		mov	r6, r10
 396 0006 4D46     		mov	r5, r9
 397 0008 4446     		mov	r4, r8
 398 000a F0B4     		push	{r4, r5, r6, r7}
 399              		.cfi_def_cfa_offset 36
 400              		.cfi_offset 8, -36
 401              		.cfi_offset 9, -32
 402              		.cfi_offset 10, -28
 403              		.cfi_offset 11, -24
 404 000c 8DB0     		sub	sp, sp, #52
 405              		.cfi_def_cfa_offset 88
  73:touchBtn_ADC.c ****     {
 406              		.loc 1 73 0
 407 000e FFF7FEFF 		bl	CapSense_IsBusy
 408              	.LVL45:
 409 0012 0028     		cmp	r0, #0
 410 0014 00D0     		beq	.LCB343
 411 0016 F9E0     		b	.L30	@long jump
 412              	.LCB343:
  73:touchBtn_ADC.c ****     {
 413              		.loc 1 73 0 is_stmt 0 discriminator 1
 414 0018 FFF7FEFF 		bl	CapSense_AdcIsBusy
 415              	.LVL46:
 416 001c 0028     		cmp	r0, #0
 417 001e 00D0     		beq	.LCB347
 418 0020 F4E0     		b	.L30	@long jump
 419              	.LCB347:
  76:touchBtn_ADC.c ****         {
 420              		.loc 1 76 0 is_stmt 1
 421 0022 7E4B     		ldr	r3, .L44
 422 0024 1B78     		ldrb	r3, [r3]
 423 0026 002B     		cmp	r3, #0
 424 0028 07D1     		bne	.L32
  78:touchBtn_ADC.c ****             CapSense_ProcessAllWidgets();
 425              		.loc 1 78 0
 426 002a FFF7FEFF 		bl	CapSense_AdcStartConvert
 427              	.LVL47:
  79:touchBtn_ADC.c ****             startConv = true;
 428              		.loc 1 79 0
 429 002e FFF7FEFF 		bl	CapSense_ProcessAllWidgets
 430              	.LVL48:
  80:touchBtn_ADC.c ****         }
 431              		.loc 1 80 0
 432 0032 0122     		movs	r2, #1
 433 0034 794B     		ldr	r3, .L44
 434 0036 1A70     		strb	r2, [r3]
 435 0038 E8E0     		b	.L30
 436              	.L32:
  82:touchBtn_ADC.c ****         {
ARM GAS  C:\Users\dell\AppData\Local\Temp\ccFMJ9je.s 			page 12


 437              		.loc 1 82 0
 438 003a 002B     		cmp	r3, #0
 439 003c 00D1     		bne	.LCB364
 440 003e E5E0     		b	.L30	@long jump
 441              	.LCB364:
  84:touchBtn_ADC.c **** //            LOG_INFO("Dien ap: %d mV\n", mVolts);
 442              		.loc 1 84 0
 443 0040 0020     		movs	r0, #0
 444 0042 FFF7FEFF 		bl	CapSense_AdcGetResult_mVolts
 445              	.LVL49:
 446 0046 754B     		ldr	r3, .L44
 447 0048 5880     		strh	r0, [r3, #2]
  86:touchBtn_ADC.c ****             CapSense_ScanAllWidgets();
 448              		.loc 1 86 0
 449 004a 0022     		movs	r2, #0
 450 004c 1A70     		strb	r2, [r3]
  87:touchBtn_ADC.c ****             CapSense_ProcessAllWidgets();
 451              		.loc 1 87 0
 452 004e FFF7FEFF 		bl	CapSense_ScanAllWidgets
 453              	.LVL50:
  88:touchBtn_ADC.c ****             //CapSense_UpdateAllBaselines();
 454              		.loc 1 88 0
 455 0052 FFF7FEFF 		bl	CapSense_ProcessAllWidgets
 456              	.LVL51:
 457              	.LBB2:
  90:touchBtn_ADC.c ****             {
 458              		.loc 1 90 0
 459 0056 0024     		movs	r4, #0
 460 0058 2BE0     		b	.L33
 461              	.LVL52:
 462              	.L36:
  92:touchBtn_ADC.c ****                 sensorParams[i].rawData  = getDataMode(MODE_RAW, i);
 463              		.loc 1 92 0
 464 005a 2100     		movs	r1, r4
 465 005c 0120     		movs	r0, #1
 466 005e FFF7FEFF 		bl	getDataMode
 467              	.LVL53:
 468 0062 2301     		lsls	r3, r4, #4
 469 0064 6D4D     		ldr	r5, .L44
 470 0066 ED18     		adds	r5, r5, r3
 471 0068 A880     		strh	r0, [r5, #4]
  93:touchBtn_ADC.c ****                 sensorParams[i].diffData = getDataMode(MODE_DIF, i);
 472              		.loc 1 93 0
 473 006a 2100     		movs	r1, r4
 474 006c 0020     		movs	r0, #0
 475 006e FFF7FEFF 		bl	getDataMode
 476              	.LVL54:
 477 0072 E880     		strh	r0, [r5, #6]
  94:touchBtn_ADC.c ****                 sensorParams[i].stopTimeDiffData = g_SysTime;
 478              		.loc 1 94 0
 479 0074 2100     		movs	r1, r4
 480 0076 0220     		movs	r0, #2
 481 0078 FFF7FEFF 		bl	getDataMode
 482              	.LVL55:
 483 007c 2881     		strh	r0, [r5, #8]
  95:touchBtn_ADC.c ****                 if(sensorParams[i].diffData == 0) sensorParams[i].startTimeDiffData = g_SysTime;
 484              		.loc 1 95 0
ARM GAS  C:\Users\dell\AppData\Local\Temp\ccFMJ9je.s 			page 13


 485 007e 684B     		ldr	r3, .L44+4
 486 0080 1A68     		ldr	r2, [r3]
 487 0082 2A61     		str	r2, [r5, #16]
  96:touchBtn_ADC.c ****                 else 
 488              		.loc 1 96 0
 489 0084 0028     		cmp	r0, #0
 490 0086 01D1     		bne	.L34
  96:touchBtn_ADC.c ****                 else 
 491              		.loc 1 96 0 is_stmt 0 discriminator 1
 492 0088 EA60     		str	r2, [r5, #12]
 493 008a 10E0     		b	.L35
 494              	.L34:
  99:touchBtn_ADC.c ****                     {
 495              		.loc 1 99 0 is_stmt 1
 496 008c 2301     		lsls	r3, r4, #4
 497 008e 6349     		ldr	r1, .L44
 498 0090 CB18     		adds	r3, r1, r3
 499 0092 D968     		ldr	r1, [r3, #12]
 500 0094 1000     		movs	r0, r2
 501 0096 FFF7FEFF 		bl	elapstime
 502              	.LVL56:
 503 009a 624B     		ldr	r3, .L44+8
 504 009c 9842     		cmp	r0, r3
 505 009e 06D9     		bls	.L35
 101:touchBtn_ADC.c ****                         Touch_holdEvent(i, TOUCH_TIME_HOLDING_TIMEOUT);
 506              		.loc 1 101 0
 507 00a0 2000     		movs	r0, r4
 508 00a2 FFF7FEFF 		bl	CapSense_InitializeWidgetBaseline
 509              	.LVL57:
 102:touchBtn_ADC.c ****                     }
 510              		.loc 1 102 0
 511 00a6 5F49     		ldr	r1, .L44+8
 512 00a8 2000     		movs	r0, r4
 513 00aa FFF7FEFF 		bl	Touch_holdEvent
 514              	.LVL58:
 515              	.L35:
  90:touchBtn_ADC.c ****             {
 516              		.loc 1 90 0 discriminator 2
 517 00ae 0134     		adds	r4, r4, #1
 518              	.LVL59:
 519 00b0 E4B2     		uxtb	r4, r4
 520              	.LVL60:
 521              	.L33:
  90:touchBtn_ADC.c ****             {
 522              		.loc 1 90 0 is_stmt 0 discriminator 1
 523 00b2 032C     		cmp	r4, #3
 524 00b4 D1D9     		bls	.L36
 525              	.LBE2:
 106:touchBtn_ADC.c ****                                 sensorParams[0].baseline, sensorParams[0].rawData, sensorParams[0].
 526              		.loc 1 106 0 is_stmt 1
 527 00b6 5948     		ldr	r0, .L44
 528 00b8 8188     		ldrh	r1, [r0, #4]
 529 00ba C288     		ldrh	r2, [r0, #6]
 530 00bc 0389     		ldrh	r3, [r0, #8]
 531 00be 0B93     		str	r3, [sp, #44]
 532 00c0 848A     		ldrh	r4, [r0, #20]
 533              	.LVL61:
ARM GAS  C:\Users\dell\AppData\Local\Temp\ccFMJ9je.s 			page 14


 534 00c2 C58A     		ldrh	r5, [r0, #22]
 535 00c4 068B     		ldrh	r6, [r0, #24]
 536 00c6 878C     		ldrh	r7, [r0, #36]
 537 00c8 C38C     		ldrh	r3, [r0, #38]
 538 00ca 9C46     		mov	ip, r3
 539 00cc 038D     		ldrh	r3, [r0, #40]
 540 00ce 9846     		mov	r8, r3
 541 00d0 838E     		ldrh	r3, [r0, #52]
 542 00d2 9946     		mov	r9, r3
 543 00d4 C38E     		ldrh	r3, [r0, #54]
 544 00d6 9A46     		mov	r10, r3
 545 00d8 038F     		ldrh	r3, [r0, #56]
 546 00da 4088     		ldrh	r0, [r0, #2]
 547 00dc 0990     		str	r0, [sp, #36]
 548 00de 0893     		str	r3, [sp, #32]
 549 00e0 5346     		mov	r3, r10
 550 00e2 0793     		str	r3, [sp, #28]
 551 00e4 4B46     		mov	r3, r9
 552 00e6 0693     		str	r3, [sp, #24]
 553 00e8 4346     		mov	r3, r8
 554 00ea 0593     		str	r3, [sp, #20]
 555 00ec 6346     		mov	r3, ip
 556 00ee 0493     		str	r3, [sp, #16]
 557 00f0 0397     		str	r7, [sp, #12]
 558 00f2 0296     		str	r6, [sp, #8]
 559 00f4 0195     		str	r5, [sp, #4]
 560 00f6 0094     		str	r4, [sp]
 561 00f8 0B9B     		ldr	r3, [sp, #44]
 562 00fa 4B48     		ldr	r0, .L44+12
 563 00fc FFF7FEFF 		bl	DEBUG_SW_UART
 564              	.LVL62:
 565              	.LBB3:
 113:touchBtn_ADC.c ****             {             
 566              		.loc 1 113 0
 567 0100 0024     		movs	r4, #0
 568 0102 80E0     		b	.L37
 569              	.LVL63:
 570              	.L43:
 115:touchBtn_ADC.c ****                 touchBtn[i].timeTotalPress = elapstime(g_SysTime, touchBtn[i].timeStartPress);
 571              		.loc 1 115 0
 572 0104 2600     		movs	r6, r4
 573 0106 2000     		movs	r0, r4
 574 0108 FFF7FEFF 		bl	CapSense_IsWidgetActive
 575              	.LVL64:
 576 010c 431E     		subs	r3, r0, #1
 577 010e 9841     		sbcs	r0, r0, r3
 578 0110 424B     		ldr	r3, .L44
 579 0112 9846     		mov	r8, r3
 580 0114 6500     		lsls	r5, r4, #1
 581 0116 2F19     		adds	r7, r5, r4
 582 0118 BF00     		lsls	r7, r7, #2
 583 011a 4744     		add	r7, r7, r8
 584 011c 4423     		movs	r3, #68
 585 011e F854     		strb	r0, [r7, r3]
 116:touchBtn_ADC.c ****                 
 586              		.loc 1 116 0
 587 0120 3F4B     		ldr	r3, .L44+4
ARM GAS  C:\Users\dell\AppData\Local\Temp\ccFMJ9je.s 			page 15


 588 0122 1868     		ldr	r0, [r3]
 589 0124 B96C     		ldr	r1, [r7, #72]
 590 0126 FFF7FEFF 		bl	elapstime
 591              	.LVL65:
 592 012a F864     		str	r0, [r7, #76]
 118:touchBtn_ADC.c ****                 {
 593              		.loc 1 118 0
 594 012c 4346     		mov	r3, r8
 595 012e 4433     		adds	r3, r3, #68
 596 0130 2D19     		adds	r5, r5, r4
 597 0132 AD00     		lsls	r5, r5, #2
 598 0134 5D19     		adds	r5, r3, r5
 599 0136 6B78     		ldrb	r3, [r5, #1]
 600 0138 012B     		cmp	r3, #1
 601 013a 1FD0     		beq	.L39
 602 013c 002B     		cmp	r3, #0
 603 013e 02D0     		beq	.L40
 604 0140 022B     		cmp	r3, #2
 605 0142 2DD0     		beq	.L41
 606 0144 3DE0     		b	.L38
 607              	.L40:
 121:touchBtn_ADC.c ****                         {
 608              		.loc 1 121 0
 609 0146 6300     		lsls	r3, r4, #1
 610 0148 1B19     		adds	r3, r3, r4
 611 014a 9B00     		lsls	r3, r3, #2
 612 014c 334A     		ldr	r2, .L44
 613 014e D318     		adds	r3, r2, r3
 614 0150 4422     		movs	r2, #68
 615 0152 9B5C     		ldrb	r3, [r3, r2]
 616 0154 002B     		cmp	r3, #0
 617 0156 34D0     		beq	.L38
 123:touchBtn_ADC.c ****                             touchBtn[i].state = TOUCH_BTN_PRESS;
 618              		.loc 1 123 0
 619 0158 3049     		ldr	r1, .L44
 620 015a 6300     		lsls	r3, r4, #1
 621 015c 1A19     		adds	r2, r3, r4
 622 015e 9200     		lsls	r2, r2, #2
 623 0160 8A18     		adds	r2, r1, r2
 624 0162 2F48     		ldr	r0, .L44+4
 625 0164 0068     		ldr	r0, [r0]
 626 0166 9064     		str	r0, [r2, #72]
 124:touchBtn_ADC.c ****                             /*-------------------------------*/
 627              		.loc 1 124 0
 628 0168 4431     		adds	r1, r1, #68
 629 016a 1B19     		adds	r3, r3, r4
 630 016c 9B00     		lsls	r3, r3, #2
 631 016e CB18     		adds	r3, r1, r3
 632 0170 0122     		movs	r2, #1
 633 0172 5A70     		strb	r2, [r3, #1]
 127:touchBtn_ADC.c ****                         }
 634              		.loc 1 127 0
 635 0174 2000     		movs	r0, r4
 636 0176 FFF7FEFF 		bl	Touch_pressEvent
 637              	.LVL66:
 638 017a 22E0     		b	.L38
 639              	.L39:
ARM GAS  C:\Users\dell\AppData\Local\Temp\ccFMJ9je.s 			page 16


 131:touchBtn_ADC.c ****                         {
 640              		.loc 1 131 0
 641 017c FA23     		movs	r3, #250
 642 017e 5B00     		lsls	r3, r3, #1
 643 0180 9842     		cmp	r0, r3
 644 0182 1ED9     		bls	.L38
 133:touchBtn_ADC.c ****                             /*-------------------------------*/
 645              		.loc 1 133 0
 646 0184 6300     		lsls	r3, r4, #1
 647 0186 1B19     		adds	r3, r3, r4
 648 0188 9A00     		lsls	r2, r3, #2
 649 018a 244B     		ldr	r3, .L44
 650 018c 4433     		adds	r3, r3, #68
 651 018e 9B18     		adds	r3, r3, r2
 652 0190 0222     		movs	r2, #2
 653 0192 5A70     		strb	r2, [r3, #1]
 136:touchBtn_ADC.c ****                         }
 654              		.loc 1 136 0
 655 0194 FA21     		movs	r1, #250
 656 0196 4900     		lsls	r1, r1, #1
 657 0198 2000     		movs	r0, r4
 658 019a FFF7FEFF 		bl	Touch_holdEvent
 659              	.LVL67:
 660 019e 10E0     		b	.L38
 661              	.L41:
 140:touchBtn_ADC.c ****                         {
 662              		.loc 1 140 0
 663 01a0 FA23     		movs	r3, #250
 664 01a2 DB00     		lsls	r3, r3, #3
 665 01a4 9842     		cmp	r0, r3
 666 01a6 0CD9     		bls	.L38
 142:touchBtn_ADC.c ****                             /*-------------------------------*/
 667              		.loc 1 142 0
 668 01a8 6300     		lsls	r3, r4, #1
 669 01aa 1B19     		adds	r3, r3, r4
 670 01ac 9A00     		lsls	r2, r3, #2
 671 01ae 1B4B     		ldr	r3, .L44
 672 01b0 4433     		adds	r3, r3, #68
 673 01b2 9B18     		adds	r3, r3, r2
 674 01b4 0322     		movs	r2, #3
 675 01b6 5A70     		strb	r2, [r3, #1]
 145:touchBtn_ADC.c ****                         }
 676              		.loc 1 145 0
 677 01b8 FA21     		movs	r1, #250
 678 01ba C900     		lsls	r1, r1, #3
 679 01bc 2000     		movs	r0, r4
 680 01be FFF7FEFF 		bl	Touch_holdEvent
 681              	.LVL68:
 682              	.L38:
 150:touchBtn_ADC.c ****                 {
 683              		.loc 1 150 0
 684 01c2 7300     		lsls	r3, r6, #1
 685 01c4 9B19     		adds	r3, r3, r6
 686 01c6 9A00     		lsls	r2, r3, #2
 687 01c8 144B     		ldr	r3, .L44
 688 01ca 4433     		adds	r3, r3, #68
 689 01cc 9B18     		adds	r3, r3, r2
ARM GAS  C:\Users\dell\AppData\Local\Temp\ccFMJ9je.s 			page 17


 690 01ce 5B78     		ldrb	r3, [r3, #1]
 691 01d0 002B     		cmp	r3, #0
 692 01d2 16D0     		beq	.L42
 152:touchBtn_ADC.c ****                     {   
 693              		.loc 1 152 0
 694 01d4 1300     		movs	r3, r2
 695 01d6 114A     		ldr	r2, .L44
 696 01d8 D318     		adds	r3, r2, r3
 697 01da 4422     		movs	r2, #68
 698 01dc 9B5C     		ldrb	r3, [r3, r2]
 699 01de 002B     		cmp	r3, #0
 700 01e0 0FD1     		bne	.L42
 154:touchBtn_ADC.c ****                         /*-------------------------------*/
 701              		.loc 1 154 0
 702 01e2 0E4A     		ldr	r2, .L44
 703 01e4 1000     		movs	r0, r2
 704 01e6 4430     		adds	r0, r0, #68
 705 01e8 7100     		lsls	r1, r6, #1
 706 01ea 8B19     		adds	r3, r1, r6
 707 01ec 9B00     		lsls	r3, r3, #2
 708 01ee C318     		adds	r3, r0, r3
 709 01f0 0020     		movs	r0, #0
 710 01f2 5870     		strb	r0, [r3, #1]
 157:touchBtn_ADC.c ****                     }
 711              		.loc 1 157 0
 712 01f4 8E19     		adds	r6, r1, r6
 713 01f6 B600     		lsls	r6, r6, #2
 714 01f8 9619     		adds	r6, r2, r6
 715 01fa F16C     		ldr	r1, [r6, #76]
 716 01fc 2000     		movs	r0, r4
 717 01fe FFF7FEFF 		bl	Touch_releaseEvent
 718              	.LVL69:
 719              	.L42:
 113:touchBtn_ADC.c ****             {             
 720              		.loc 1 113 0 discriminator 2
 721 0202 0134     		adds	r4, r4, #1
 722              	.LVL70:
 723 0204 E4B2     		uxtb	r4, r4
 724              	.LVL71:
 725              	.L37:
 113:touchBtn_ADC.c ****             {             
 726              		.loc 1 113 0 is_stmt 0 discriminator 1
 727 0206 032C     		cmp	r4, #3
 728 0208 00D8     		bhi	.LCB642
 729 020a 7BE7     		b	.L43	@long jump
 730              	.LCB642:
 731              	.LVL72:
 732              	.L30:
 733              	.LBE3:
 163:touchBtn_ADC.c **** /* -------------------------------*/
 734              		.loc 1 163 0 is_stmt 1
 735 020c 0DB0     		add	sp, sp, #52
 736              		@ sp needed
 737 020e 3CBC     		pop	{r2, r3, r4, r5}
 738 0210 9046     		mov	r8, r2
 739 0212 9946     		mov	r9, r3
 740 0214 A246     		mov	r10, r4
ARM GAS  C:\Users\dell\AppData\Local\Temp\ccFMJ9je.s 			page 18


 741 0216 AB46     		mov	fp, r5
 742 0218 F0BD     		pop	{r4, r5, r6, r7, pc}
 743              	.L45:
 744 021a C046     		.align	2
 745              	.L44:
 746 021c 00000000 		.word	.LANCHOR0
 747 0220 00000000 		.word	g_SysTime
 748 0224 88130000 		.word	5000
 749 0228 00000000 		.word	.LC5
 750              		.cfi_endproc
 751              	.LFE36:
 752              		.size	Touch_process, .-Touch_process
 753              		.section	.text.MF58_init,"ax",%progbits
 754              		.align	2
 755              		.global	MF58_init
 756              		.code	16
 757              		.thumb_func
 758              		.type	MF58_init, %function
 759              	MF58_init:
 760              	.LFB40:
 184:touchBtn_ADC.c **** /* -------------------------------*/
 185:touchBtn_ADC.c **** 
 186:touchBtn_ADC.c **** static uint8_t coldStatus = K1_OFF;
 187:touchBtn_ADC.c **** void MF58_init(void)
 188:touchBtn_ADC.c **** {
 761              		.loc 1 188 0
 762              		.cfi_startproc
 763              		@ args = 0, pretend = 0, frame = 0
 764              		@ frame_needed = 0, uses_anonymous_args = 0
 765 0000 10B5     		push	{r4, lr}
 766              		.cfi_def_cfa_offset 8
 767              		.cfi_offset 4, -8
 768              		.cfi_offset 14, -4
 189:touchBtn_ADC.c ****     coldStatus = K1_OFF;
 769              		.loc 1 189 0
 770 0002 0021     		movs	r1, #0
 771 0004 7423     		movs	r3, #116
 772 0006 034A     		ldr	r2, .L47
 773 0008 D154     		strb	r1, [r2, r3]
 190:touchBtn_ADC.c ****     COLD_K1_Write(K1_OFF);
 774              		.loc 1 190 0
 775 000a 0020     		movs	r0, #0
 776 000c FFF7FEFF 		bl	COLD_K1_Write
 777              	.LVL73:
 191:touchBtn_ADC.c **** }
 778              		.loc 1 191 0
 779              		@ sp needed
 780 0010 10BD     		pop	{r4, pc}
 781              	.L48:
 782 0012 C046     		.align	2
 783              	.L47:
 784 0014 00000000 		.word	.LANCHOR0
 785              		.cfi_endproc
 786              	.LFE40:
 787              		.size	MF58_init, .-MF58_init
 788              		.section	.text.MF58_control,"ax",%progbits
 789              		.align	2
ARM GAS  C:\Users\dell\AppData\Local\Temp\ccFMJ9je.s 			page 19


 790              		.global	MF58_control
 791              		.code	16
 792              		.thumb_func
 793              		.type	MF58_control, %function
 794              	MF58_control:
 795              	.LFB41:
 192:touchBtn_ADC.c **** 
 193:touchBtn_ADC.c **** void MF58_control(void)
 194:touchBtn_ADC.c **** {
 796              		.loc 1 194 0
 797              		.cfi_startproc
 798              		@ args = 0, pretend = 0, frame = 0
 799              		@ frame_needed = 0, uses_anonymous_args = 0
 800 0000 10B5     		push	{r4, lr}
 801              		.cfi_def_cfa_offset 8
 802              		.cfi_offset 4, -8
 803              		.cfi_offset 14, -4
 195:touchBtn_ADC.c ****     LOG_INFO("Dien ap: %d mV\n", mVolts);
 196:touchBtn_ADC.c ****     if(mVolts != 0xFFFF)
 804              		.loc 1 196 0
 805 0002 124B     		ldr	r3, .L52
 806 0004 5B88     		ldrh	r3, [r3, #2]
 807 0006 124A     		ldr	r2, .L52+4
 808 0008 9342     		cmp	r3, r2
 809 000a 1ED0     		beq	.L49
 197:touchBtn_ADC.c ****     {
 198:touchBtn_ADC.c ****         if(coldStatus == K1_ON && mVolts < (uint16_t)(NGUONG_DUOI+DELTA_NGUONG))
 810              		.loc 1 198 0
 811 000c 7422     		movs	r2, #116
 812 000e 0F49     		ldr	r1, .L52
 813 0010 8A5C     		ldrb	r2, [r1, r2]
 814 0012 012A     		cmp	r2, #1
 815 0014 09D1     		bne	.L51
 816              		.loc 1 198 0 is_stmt 0 discriminator 1
 817 0016 0F4A     		ldr	r2, .L52+8
 818 0018 9342     		cmp	r3, r2
 819 001a 06D8     		bhi	.L51
 199:touchBtn_ADC.c ****         {
 200:touchBtn_ADC.c ****             coldStatus = K1_OFF;
 820              		.loc 1 200 0 is_stmt 1
 821 001c 0021     		movs	r1, #0
 822 001e 7423     		movs	r3, #116
 823 0020 0A4A     		ldr	r2, .L52
 824 0022 D154     		strb	r1, [r2, r3]
 201:touchBtn_ADC.c ****             COLD_K1_Write(K1_OFF);
 825              		.loc 1 201 0
 826 0024 0020     		movs	r0, #0
 827 0026 FFF7FEFF 		bl	COLD_K1_Write
 828              	.LVL74:
 829              	.L51:
 202:touchBtn_ADC.c ****             LOG_INFO("K1_OFF\n");
 203:touchBtn_ADC.c ****         }
 204:touchBtn_ADC.c **** 
 205:touchBtn_ADC.c ****         if(coldStatus == K1_OFF && mVolts > (uint16_t)(NGUONG_TREN-DELTA_NGUONG))
 830              		.loc 1 205 0
 831 002a 7423     		movs	r3, #116
 832 002c 074A     		ldr	r2, .L52
ARM GAS  C:\Users\dell\AppData\Local\Temp\ccFMJ9je.s 			page 20


 833 002e D35C     		ldrb	r3, [r2, r3]
 834 0030 002B     		cmp	r3, #0
 835 0032 0AD1     		bne	.L49
 836              		.loc 1 205 0 is_stmt 0 discriminator 1
 837 0034 5288     		ldrh	r2, [r2, #2]
 838 0036 084B     		ldr	r3, .L52+12
 839 0038 9A42     		cmp	r2, r3
 840 003a 06D9     		bls	.L49
 206:touchBtn_ADC.c ****         {
 207:touchBtn_ADC.c ****             coldStatus = K1_ON;
 841              		.loc 1 207 0 is_stmt 1
 842 003c 0121     		movs	r1, #1
 843 003e 7423     		movs	r3, #116
 844 0040 024A     		ldr	r2, .L52
 845 0042 D154     		strb	r1, [r2, r3]
 208:touchBtn_ADC.c ****             COLD_K1_Write(K1_ON);
 846              		.loc 1 208 0
 847 0044 0120     		movs	r0, #1
 848 0046 FFF7FEFF 		bl	COLD_K1_Write
 849              	.LVL75:
 850              	.L49:
 209:touchBtn_ADC.c ****             LOG_INFO("K1_ON\n");
 210:touchBtn_ADC.c ****         }
 211:touchBtn_ADC.c ****     }
 212:touchBtn_ADC.c **** }
 851              		.loc 1 212 0
 852              		@ sp needed
 853 004a 10BD     		pop	{r4, pc}
 854              	.L53:
 855              		.align	2
 856              	.L52:
 857 004c 00000000 		.word	.LANCHOR0
 858 0050 FFFF0000 		.word	65535
 859 0054 A3060000 		.word	1699
 860 0058 99070000 		.word	1945
 861              		.cfi_endproc
 862              	.LFE41:
 863              		.size	MF58_control, .-MF58_control
 864              		.global	mVolts
 865              		.comm	retacd,2,2
 866              		.comm	myBtn,4,4
 867              		.section	.rodata.str1.4,"aMS",%progbits,1
 868              		.align	2
 869              	.LC5:
 870 0000 25642C25 		.ascii	"%d,%d,%d,%d,%d,%d,%d,%d,%d,%d,%d,%d,%d\015\012\000"
 870      642C2564 
 870      2C25642C 
 870      25642C25 
 870      642C2564 
 871              		.bss
 872              		.align	2
 873              		.set	.LANCHOR0,. + 0
 874              		.type	startConv, %object
 875              		.size	startConv, 1
 876              	startConv:
 877 0000 00       		.space	1
 878 0001 00       		.space	1
ARM GAS  C:\Users\dell\AppData\Local\Temp\ccFMJ9je.s 			page 21


 879              		.type	mVolts, %object
 880              		.size	mVolts, 2
 881              	mVolts:
 882 0002 0000     		.space	2
 883              		.type	sensorParams, %object
 884              		.size	sensorParams, 64
 885              	sensorParams:
 886 0004 00000000 		.space	64
 886      00000000 
 886      00000000 
 886      00000000 
 886      00000000 
 887              		.type	touchBtn, %object
 888              		.size	touchBtn, 48
 889              	touchBtn:
 890 0044 00000000 		.space	48
 890      00000000 
 890      00000000 
 890      00000000 
 890      00000000 
 891              		.type	coldStatus, %object
 892              		.size	coldStatus, 1
 893              	coldStatus:
 894 0074 00       		.space	1
 895              		.text
 896              	.Letext0:
 897              		.file 2 "e:\\psoc creator\\4.3\\psoc creator\\import\\gnu\\arm\\5.4.1\\arm-none-eabi\\include\\mac
 898              		.file 3 "e:\\psoc creator\\4.3\\psoc creator\\import\\gnu\\arm\\5.4.1\\arm-none-eabi\\include\\sys
 899              		.file 4 "Generated_Source\\PSoC4/cytypes.h"
 900              		.file 5 "Generated_Source\\PSoC4/CapSense_Configuration.h"
 901              		.file 6 "Generated_Source\\PSoC4/CapSense_Structure.h"
 902              		.file 7 "myHeader.h"
 903              		.file 8 "touchBtn_ADC.h"
 904              		.file 9 "sysTick.h"
 905              		.file 10 "Generated_Source\\PSoC4/CapSense_Control.h"
 906              		.file 11 "Generated_Source\\PSoC4/CapSense_Sensing.h"
 907              		.file 12 "Generated_Source\\PSoC4/CyLib.h"
 908              		.file 13 "Generated_Source\\PSoC4/CapSense_Filter.h"
 909              		.file 14 "Generated_Source\\PSoC4/CapSense_SensingCSD_LL.h"
 910              		.file 15 "sys.h"
 911              		.file 16 "Generated_Source\\PSoC4/CapSense_Adc.h"
 912              		.file 17 "softDebug.h"
 913              		.file 18 "Generated_Source\\PSoC4/COLD_K1.h"